
main:     file format elf64-littleriscv
main
architecture: riscv:rv64, flags 0x00000112:
EXEC_P, HAS_SYMS, D_PAGED
start address 0x0000000000000000

Program Header:
0x70000003 off    0x0000000000002efd vaddr 0x0000000000000000 paddr 0x0000000000000000 align 2**0
         filesz 0x000000000000002f memsz 0x0000000000000000 flags r--
    LOAD off    0x0000000000001000 vaddr 0x0000000000000000 paddr 0x0000000000000000 align 2**12
         filesz 0x0000000000001ee2 memsz 0x0000000000001ee2 flags rwx
    LOAD off    0x0000000000000000 vaddr 0x0000000000020000 paddr 0x0000000000020000 align 2**12
         filesz 0x0000000000000000 memsz 0x0000000000020000 flags rw-

Sections:
Idx Name          Size      VMA               LMA               File off  Algn
  0 .text         000011da  0000000000000000  0000000000000000  00001000  2**3
                  CONTENTS, ALLOC, LOAD, READONLY, CODE
  1 .data         00000bf9  00000000000011e0  00000000000011e0  000021e0  2**3
                  CONTENTS, ALLOC, LOAD, DATA
  2 .rodata       00000024  0000000000001de0  0000000000001de0  00002de0  2**3
                  CONTENTS, ALLOC, LOAD, READONLY, DATA
  3 .rodata.str1.8 000000da  0000000000001e08  0000000000001e08  00002e08  2**3
                  CONTENTS, ALLOC, LOAD, READONLY, DATA
  4 .stack        00020000  0000000000020000  0000000000020000  00003000  2**0
                  ALLOC
  5 .comment      0000001b  0000000000000000  0000000000000000  00002ee2  2**0
                  CONTENTS, READONLY
  6 .riscv.attributes 0000002f  0000000000000000  0000000000000000  00002efd  2**0
                  CONTENTS, READONLY
SYMBOL TABLE:
0000000000000000 l    d  .text	0000000000000000 .text
00000000000011e0 l    d  .data	0000000000000000 .data
0000000000001de0 l    d  .rodata	0000000000000000 .rodata
0000000000001e08 l    d  .rodata.str1.8	0000000000000000 .rodata.str1.8
0000000000020000 l    d  .stack	0000000000000000 .stack
0000000000000000 l    d  .comment	0000000000000000 .comment
0000000000000000 l    d  .riscv.attributes	0000000000000000 .riscv.attributes
0000000000000000 l    df *ABS*	0000000000000000 setup.o
000000000000003e l       .text	0000000000000000 fill_stack
0000000000000136 l       .text	0000000000000000 fill_block
0000000000000054 l       .text	0000000000000000 init_stack
000000000000005c l       .text	0000000000000000 init_system
00000000000000c2 l       .text	0000000000000000 rv64
0000000000000148 l       .text	0000000000000000 sysram_base
0000000000000150 l       .text	0000000000000000 sysram_size
0000000000000158 l       .text	0000000000000000 ddr_base
0000000000000160 l       .text	0000000000000000 ddr_size
0000000000000122 l       .text	0000000000000000 goto_main
0000000000000134 l       .text	0000000000000000 dead_loop
0000000000000140 l       .text	0000000000000000 fb_end
0000000000000000 l    df *ABS*	0000000000000000 main.c
0000000000000000 l    df *ABS*	0000000000000000 elf_loader.c
0000000000000000 l    df *ABS*	0000000000000000 iolib.c
0000000000000000 l    df *ABS*	0000000000000000 spi.c
0000000000000000 l    df *ABS*	0000000000000000 uart.c
0000000000000000 l    df *ABS*	0000000000000000 util.c
0000000000000f5a g     F .text	0000000000000034 .hidden __puts
0000000000000bf9 g       *ABS*	0000000000000000 _binary_tmp_size
0000000000000ad4 g     F .text	000000000000000e .hidden __dma_busy
0000000000000ae2 g     F .text	0000000000000036 .hidden __spi_init
00000000000011e0 g       *ABS*	0000000000000000 __data_paddr_start
0000000000000ff4 g     F .text	000000000000003a .hidden __delay
0000000000000000 g       .text	0000000000000000 __text_start
000000000000094e g     F .text	0000000000000146 .hidden __fread
0000000000000d7c g     F .text	00000000000001b4 .hidden __sd_init
00000000000005a0 g     F .text	00000000000001b2 .hidden __get_clst
000000000000102e g     F .text	000000000000001c .hidden __dec2hex
0000000000000d42 g     F .text	000000000000003a .hidden __sd_readblk
0000000000000f8e g     F .text	0000000000000034 .hidden __strcmp
000000000000051c g     F .text	0000000000000084 .hidden __nxt_clst
0000000000000000 g       .text	0000000000000000 _start
0000000000000296 g     F .text	0000000000000004 .hidden __elf_loader
00000000000011e0 g       .data	0000000000000000 _binary_tmp_start
000000000000029a g     F .text	0000000000000282 .hidden __fat_bpb_init
00000000000011e0 g       .data	0000000000000000 _DTB
0000000000001dd9 g       .data	0000000000000000 __data_end
0000000000000168 g     F .text	000000000000012e .hidden __elf_loader_reloc
0000000000000a94 g     F .text	0000000000000040 .hidden __dma_cfg
0000000000000b68 g     F .text	000000000000010c .hidden __sd_sendcmd
0000000000000fc2 g     F .text	0000000000000032 .hidden __memcpy
00000000000011da g       .text	0000000000000000 __text_end
000000000000104a g     F .text	0000000000000190 .hidden main
0000000000000f30 g     F .text	000000000000001a .hidden __uart_init
000000000003f000 g       .stack	0000000000000000 _stack_end
0000000000000f4a g     F .text	0000000000000010 .hidden __putch
0000000000000b18 g     F .text	0000000000000020 .hidden __spi_rwbyte
0000000000040000 g       .stack	0000000000000000 __stack
0000000000001dd9 g       .data	0000000000000000 _binary_tmp_end
0000000000000752 g     F .text	00000000000001d4 .hidden __fopen
0000000000000c74 g     F .text	00000000000000ce .hidden __sd_rcvdata
0000000000040000 g       .stack	0000000000000000 _stack
00000000000011e0 g       .data	0000000000000000 __data_start
0000000000000b38 g     F .text	0000000000000030 .hidden __sd_getresp
0000000000000926 g     F .text	0000000000000028 .hidden __fseek


Contents of section .text:
 0000 81400141 81410142 81420143 81430144  .@.A.A.B.B.C.C.D
 0010 81440145 81450146 81460147 81470148  .D.E.E.F.F.G.G.H
 0020 81480149 8149014a 814a014b 814b014c  .H.I.I.J.J.K.K.L
 0030 814c014d 814d014e 814e014f 814f17f5  .L.M.M.N.N.O.O..
 0040 03001305 25fc9705 04009385 65fb0146  ....%.......e..F
 0050 ef00600e 17010400 1301c1fa f3221030  ..`..........".0
 0060 63c10206 b7021a00 7390323c 97020000  c.......s.2<....
 0070 83a2c20d 17030000 0323c30d 7d131353  .........#..}..S
 0080 1300b3e2 620093d2 22007390 e23db702  ....b...".s..=..
 0090 001a73a0 323c9702 000083a2 220c1703  ..s.2<......"...
 00a0 00000323 230c7d13 13531300 b3e26200  ...##.}..S....b.
 00b0 93d22200 7390f23d 17040000 03240409  ..".s..=.....$..
 00c0 8da09b02 d000c612 7390223c 97020000  ........s."<....
 00d0 83b2c207 17030000 0333c307 7d131353  .........3..}..S
 00e0 1300b3e2 620093d2 22007390 e23d9b02  ....b...".s..=..
 00f0 d000e612 73a0223c 97020000 83b20206  ....s."<........
 0100 17030000 03330306 7d131353 1300b3e2  .....3..}..S....
 0110 620093d2 22007390 f23d1704 00000334  b...".s..=.....4
 0120 e403ef00 90727325 40f19715 00009385  .....rs%@.......
 0130 650b0284 01a063e5 a50010c1 1105e5bf  e.....c.........
 0140 82800100 13000000 00000200 00000000  ................
 0150 00000200 00000000 00000080 00000000  ................
 0160 00000080 00000000 130101db 23382123  ............#8!#
 0170 01462e89 81452334 11242330 4123233c  .F...E#4.$#0A##<
 0180 51212a8a 23308124 233c9122 23343123  Q!*.#0.$#<."#41#
 0190 23386121 23347121 ef00e078 13060004  #8a!#4q!...x....
 01a0 8a855285 ef00a07a 835a8103 638b0a0a  ..R....z.Z..c...
 01b0 014ba14b 8969bb87 6a4163ea fb0c1b94  .K.K.i..jAc.....
 01c0 3a003b04 54411b14 34008275 9b173b00  :.;.TA..4..u..;.
 01d0 bb876741 9b973700 bd9d0146 52859394  ..gA..7....FR...
 01e0 3a00ef00 4074b384 54412286 8c005285  :...@t..TA"...R.
 01f0 8e048000 ef00a075 a29429a0 13048403  .......u..).....
 0200 638b8404 1c6cca97 e3ea37ff 0c440146  c....l....7..D.F
 0210 5285ef00 40710c6c 10505285 ca95ef00  R...@q.l.PR.....
 0220 00731070 0874e37b a6fc0c6c 89480948  .s.p.t.{...l.H.H
 0230 b2958547 3b06c540 09478546 bb852501  ...G;..@.G.F..%.
 0240 0145ef00 3005ef00 f0080125 6dfd1304  .E..0......%m...
 0250 8403e399 84fa3b8b 6a01835a 8103e36c  ......;.j..Z...l
 0260 5bf58330 81240334 01246265 83348123  [..0.$.4.$be.4.#
 0270 03390123 83398122 033a0122 833a8121  .9.#.9.".:.".:.!
 0280 033b0121 833b8120 13010125 82801304  .;.!.;. ...%....
 0290 001ca14a 1dbf8145 c1bd1301 01dd2330  ...J...E......#0
 02a0 81228a85 2a840145 23341122 233c9120  ."..*..E#4."#<. 
 02b0 23382121 23343121 ef00b028 01c90359  #8!!#41!...(...Y
 02c0 e11fad67 938757a5 6300f902 83308122  ...g..W.c....0."
 02d0 03340122 83348121 03390121 83398120  .4.".4.!.9.!.9. 
 02e0 01451301 01238280 21469725 00009385  .E...#..!F.%....
 02f0 e5b11305 6103ef00 90499b04 0500cde8  ....a....I......
 0300 8347c100 0347b100 8345d100 a207d98f  .G...G...E......
 0310 0d47230a e4002310 f4008149 03586101  .G#...#....I.Xa.
 0320 03450101 0356e100 83462101 3b070503  .E...V...F!.;...
 0330 3b063601 83471101 42164192 a206dd8e  ;.6..G..B.A.....
 0340 9bd74600 2309b400 23110401 319f4217  ..F.#...#...1.B.
 0350 4193b99f c217a309 a4002312 c4002313  A.........#...#.
 0360 e4002316 d400c193 82562318 f4002317  ..#......V#...#.
 0370 e40099e6 83464101 03473101 a206d98e  .....FA..G1.....
 0380 bb87f440 b59fbbd7 b7027d57 83308122  ...@......}W.0."
 0390 231ce420 83348121 03390121 83398120  #.. .4.!.9.!.9. 
 03a0 05458927 1cc40334 01221301 01238280  .E.'...4."...#..
 03b0 21469725 00009385 65a61305 6103ef00  !F.%....e...a...
 03c0 103d9b04 050085e0 8347c100 0347b100  .=.......G...G..
 03d0 8345d100 a207d98f 1147230a e4002310  .E.......G#...#.
 03e0 f4008149 25bf2146 97250000 938505a4  ...I%.!F.%......
 03f0 13052105 ef00b039 9b040500 bde08347  ..!....9.......G
 0400 c1000347 b1008345 d100a207 d98f1547  ...G...E.......G
 0410 230ae400 2310f400 81490358 41020345  #...#....I.XA..E
 0420 01018356 e1000346 2101bb07 0503bb86  ...V...F!.......
 0430 3601c216 03471101 c1922206 598e2309  6....G....".Y.#.
 0440 b4000357 c1022311 0401b59f c217c193  ...W..#.........
 0450 a309a400 2312d400 2313f400 2316c400  ....#...#...#...
 0460 21b78359 611c8a85 9b840900 2685ef00  !..Ya.......&...
 0470 500de30d 05e48357 e11fe399 27e52146  P......W....'.!F
 0480 97250000 93858598 13056103 ef003030  .%........a...00
 0490 9b070500 99ef8347 c1000347 b1008345  .......G...G...E
 04a0 d100a207 d98f0d47 230ae400 2310f400  .......G#...#...
 04b0 b5b52146 97250000 93854596 13056103  ..!F.%....E...a.
 04c0 ef00f02c 9b070500 99ef8347 c1000347  ...,.......G...G
 04d0 b1008345 d100a207 d98f1147 230ae400  ...E.......G#...
 04e0 2310f400 25bd2146 97250000 93850594  #...%.!F.%......
 04f0 13052105 ef00b029 9b070500 e39807dc  ..!....)........
 0500 8347c100 0347b100 8345d100 a207d98f  .G...G...E......
 0510 1547230a e4002310 f40001b7 011122e8  .G#...#.......".
 0520 0354e500 83568521 26e42d9c 06ec9b57  .T...V.!&.-....W
 0530 7400aa84 6395f602 1374f407 11040a04  t...c....t......
 0540 26940844 b7070010 fd176305 f50483d7  &..D......c.....
 0550 e4001d9d e2604264 a2640561 82800355  .....`Bd.d.a...U
 0560 45001b57 74004217 4193239c f4209385  E..Wt.B.A.#.. ..
 0570 8401399d ef00e07c aa870145 e1df1374  ..9....|...E...t
 0580 f4071104 0a042694 0844b707 0010fd17  ......&..D......
 0590 e31ff5fa e2604264 a2647d55 05618280  .....`Bd.d}U.a..
 05a0 5d7162e0 416c56ec 7d1c9bda 95001c59  ]qb.AlV.}......Y
 05b0 b3fa8a01 5ae85ee4 86e4a2e0 26fc4af8  ....Z.^.....&.J.
 05c0 4ef452f0 812aaa8b 2e8b6388 57135459  N.R..*....c.W.TY
 05d0 b7090010 fd1963f0 560f9397 06028193  ......c.V.......
 05e0 9387c720 8a07de97 98471309 00207d5a  ... .....G... }Z
 05f0 83b40b02 03d4e400 83d68421 93858401  ...........!....
 0600 399c1b55 74009b57 74003375 ac00638a  9..Ut..Wt.3u..c.
 0610 f60003d7 4400239c f420399d ef006072  ....D.#.. 9...`r
 0620 2dc11374 f4071104 0a042694 1c447d39  -..t......&..D}9
 0630 42191359 0903638a 370103d7 e4003b87  B..Y..c.7.....;.
 0640 e7406308 0904e315 47fb03a7 4b030527  .@c.....G...K..'
 0650 93170702 81939387 c7208a07 23aaeb02  ......... ..#...
 0660 be9bfd57 23a4fb00 7d55a660 0664e274  ...W#...}U.`.d.t
 0670 4279a279 027ae26a 426ba26b 026c6161  By.y.z.jBk.k.laa
 0680 82807d39 42191359 09036305 090a0147  ..}9B..Y..c....G
 0690 85b783a6 4b03fd55 85261396 06020192  ....K..U.&......
 06a0 1306c620 0a0623aa db025e96 18c6e30d  ... ..#...^.....
 06b0 b7fae3e4 56f31399 2a005e99 85673307  ....V...*.^..g3.
 06c0 f9008325 87837d57 e380e5fa 93878783  ...%..}W........
 06d0 b384fb00 23acbb02 1384cb03 81478dc7  ....#........G..
 06e0 0cc01104 e39d84fe 23a85b03 fd576398  ........#.[..Wc.
 06f0 f5028567 3e99232e b9829377 fb1fb107  ...g>.#....w....
 0700 8a07de97 884795b7 03b50b02 eff01fe1  .....G..........
 0710 9b050500 93871500 93b71700 d1b703b5  ................
 0720 0b02eff0 bfdf8567 9b050500 3e99232e  .......g....>.#.
 0730 b982e1b7 83a64b03 85269397 06028193  ......K..&......
 0740 9387c720 8a0723aa db02de97 23a40700  ... ..#.....#...
 0750 59b51301 01dc2334 9122233c 11222338  Y.....#4."#<."#8
 0760 81222330 2123233c 3121aa84 34008147  ."#0!##<1!..4..G
 0770 9308e002 214311a0 b28503c7 05001b85  ....!C..........
 0780 17001386 15001378 f7fd6300 0710630e  .......x..c...c.
 0790 170f9317 05032380 0601c193 8506e39d  ......#.........
 07a0 67fc03c7 1500b285 130727fd 13371700  g.........'..7..
 07b0 ba958147 0a870d45 b386f500 83c60600  ...G...E........
 07c0 13f6f6fd 638d060e 2300c700 85070507  ....c...#.......
 07d0 e394a7fe 9c700c08 03d50701 ef006056  .....p........`V
 07e0 59c50008 93090121 1309500e 83470400  Y......!..P..G..
 07f0 21462c00 22856388 2707ef00 4079aa87  !F,.".c.'...@y..
 0800 81270d46 13058400 8a85b1ef ef002078  .'.F.......... x
 0810 012531e9 a2851306 00022685 ef00607a  .%1.......&...`z
 0820 987083d7 440183d5 a4018356 e7007d57  .p..D......V..}W
 0830 13160702 9b970701 019398f8 83308123  .............0.#
 0840 03340123 cd8f0567 90f4959f ba9423ac  .4.#...g......#.
 0850 f4820339 01228334 81228339 81210545  ...9.".4.".9.!.E
 0860 13010124 82801304 0402e311 34f98330  ...$........4..0
 0870 81230334 01238334 81220339 01228339  .#.4.#.4.".9.".9
 0880 81210145 13010124 8280a146 9d9e3000  .!.E...$...F..0.
 0890 c216b297 c1921305 00022380 a7001386  ..........#.....
 08a0 f6ff1148 85076376 06058946 6378d602  ...H..cv...Fcx..
 08b0 e30c06ee 93060002 2380d700 f5b50d47  ........#......G
 08c0 1d9f4217 41938946 8a976373 d704e303  ..B.A..F..cs....
 08d0 07f01307 00022380 e700edbd 93060002  ......#.........
 08e0 2380d700 a380d700 79168907 e30e06ea  #.......y.......
 08f0 d1b72380 a700a380 a7002381 a700a381  ..#.......#.....
 0900 a7001386 b6ff8946 9107e363 d6faf9b7  .......F...c....
 0910 93060002 2380d700 a380d700 79178907  ....#.......y...
 0920 e30a07ea 7db70547 aa876308 e6000947  ....}..G..c....G
 0930 630ae600 014501c6 82801855 b99d8cd7  c....E.....U....
 0940 05458280 584d0545 b99d8cd7 82801c55  .E..XM.E.......U
 0950 63000614 1d714efc 85699389 8903a2e8  c....qN..i......
 0960 a6e4cae0 52f856f4 5eec66e4 86ec5af0  ....R.V.^.f...Z.
 0970 62e86ae0 2a84b28b 2e8993fc f71f8144  b.j.*..........D
 0980 130af01f aa99930a 002089a8 63910c06  ......... ..c...
 0990 6387e60e 18702285 83472701 035b0701  c....p"..G'..[..
 09a0 bb55fc02 bb77fc02 3b0bfb00 eff05fbf  .U...w..;....._.
 09b0 1c70ca85 83c72701 3b85a702 3b056501  .p....'.;...;.e.
 09c0 ef002038 61c51c54 9b840420 13090920  .. 8a..T... ... 
 09d0 9b870720 1cd4814c 63f27409 3b8b9b40  ... ...Lc.t.;..@
 09e0 58541bdc 97009bd6 9700e361 6afb638e  XT.........aj.c.
 09f0 e6021870 22858347 2701035d 0701bb55  ...p"..G'..]...U
 0a00 fc02bb77 fc023b0d fd00eff0 7fb91c70  ...w..;........p
 0a10 ce8583c7 27013b85 a7023b05 a501ef00  ....'.;...;.....
 0a20 40322dc5 1c542326 840393f7 f71fbb87  @2-..T#&........
 0a30 fa40bd9c 63f37405 3e8b4a85 b3859901  .@..c.t.>.J.....
 0a40 5a86ef00 00581c54 13170b02 0193bb87  Z....X.T........
 0a50 67011cd4 3a99814c e3e274f9 0545e660  g...:..L..t..E.`
 0a60 4664a664 0669e279 427aa27a 027be26b  Fd.d.i.yBz.z.{.k
 0a70 426ca26c 026d2561 8280de84 7dbf1306  Bl.l.m%a....}...
 0a80 0020ce85 4a85ef00 c05335bf 0145c1bf  . ..J....S5..E..
 0a90 05458280 9b98a800 9b961600 1b174700  .E............G.
 0aa0 b3e8d800 b3e8e800 9b976700 37270010  ..........g.7'..
 0ab0 b3e8f800 1b188800 2320a780 b3e80801  ........# ......
 0ac0 2322b780 93e81800 2324c780 81282326  #"......#$...(#&
 0ad0 17818280 b7270010 03a5c780 1b55f501  .....'.......U..
 0ae0 8280b727 001023a8 07800547 23ace780  ...'..#....G#...
 0af0 b7170010 23a00700 93074004 01e5c167  ....#.....@....g
 0b00 93874704 1b153500 13758503 5d8db717  ..G...5..u..]...
 0b10 001088c3 05458280 37170010 1c47858b  .....E..7....G..
 0b20 f5df0125 48c73717 00101c47 898bf5df  ...%H.7....G....
 0b30 48471375 f50f8280 95c59396 05028192  HG.u............
 0b40 aa963717 00101306 f00f1c47 858bf5df  ..7........G....
 0b50 50c71c47 898bf5df 5c470505 a30ff5fe  P..G....\G......
 0b60 e315d5fe 05458280 13650504 37170010  .....E...e..7...
 0b70 1c47858b f5df9b07 05005cc7 37170010  .G........\.7...
 0b80 1c47898b f5df5c47 9bd68501 37170010  .G....\G....7...
 0b90 1c47858b f5df54c7 37170010 1c47898b  .G....T.7....G..
 0ba0 f5df5c47 9bd60501 37170010 1c47858b  ..\G....7....G..
 0bb0 f5df93f7 f60f5cc7 37170010 1c47898b  ......\.7....G..
 0bc0 f5df5c47 9bd68500 37170010 1c47858b  ..\G....7....G..
 0bd0 f5df93f7 f60f5cc7 37170010 1c47898b  ......\.7....G..
 0be0 f5df5c47 37170010 1c47858b f5df93f5  ..\G7....G......
 0bf0 f50f4cc7 37170010 1c47898b f5df5c47  ..L.7....G....\G
 0c00 13661600 37170010 1c47858b f5df9b07  .f..7....G......
 0c10 06005cc7 37170010 1c47898b f5df5c47  ..\.7....G....\G
 0c20 37170010 1c47858b f5df9307 f00f5cc7  7....G........\.
 0c30 37170010 1c47898b f5df4847 93778500  7....G....HG.w..
 0c40 1375f50f 9dc78566 93868638 37170010  .u.....f...87...
 0c50 1306f00f 1c47858b f5df50c7 1c47898b  .....G....P..G..
 0c60 f5df4847 93778500 1375f50f 99c3fd36  ..HG.w...u.....6
 0c70 f5f28280 37170010 5c438566 aa8893e7  ....7...\C.f....
 0c80 47005cc3 9386a638 9305f00f 1308e00f  G.\....8........
 0c90 1c47858b f5df4cc7 1c47898b f5df4847  .G....L..G....HG
 0ca0 fd361375 f50fb5ca e31405ff b7270010  .6.u.........'..
 0cb0 7d5723a0 e7801b85 080023a2 a7801307  }W#.......#.....
 0cc0 002023a4 e7800567 130717a6 23a6e780  . #....g....#...
 0cd0 37270010 8327c780 9bd7f701 e5ff3717  7'...'........7.
 0ce0 00101c47 858bf5df 9307f00f 5cc73717  ...G........\.7.
 0cf0 00101c47 898bf5df 5c473717 00101c47  ...G....\G7....G
 0d00 858bf5df 9307f00f 5cc73717 00101c47  ........\.7....G
 0d10 898bf5df 5c4719e2 05458280 5c43b716  ....\G...E..\C..
 0d20 0010ed9b 5cc39c46 858bf5df 9307f00f  ....\..F........
 0d30 dcc63717 00101c47 898bf5df 5c470545  ..7....G....\G.E
 0d40 e9bfb716 0010dc42 411122e0 06e493e7  .......BA.".....
 0d50 47002e84 dcc2aa85 01464545 eff0dfe0  G........FEE....
 0d60 11c5a260 02640145 41018280 22850264  ...`.d.EA..."..d
 0d70 a2600546 93050020 4101edbd 397122f8  .`.F... A...9q".
 0d80 26f406fc 4af04eec b7270010 23a80780  &...J.N..'..#...
 0d90 054723ac e780b714 00109307 c00723a0  .G#...........#.
 0da0 04009cc0 2a840545 ef00c024 dc40a946  ....*..E...$.@.F
 0db0 37170010 ed9bdcc0 1306f00f 1c47858b  7............G..
 0dc0 f5df50c7 1c47898b f5dffd36 5c4793f6  ..P..G.....6\G..
 0dd0 f60fedf6 5c439304 a03e0549 93e74700  ....\C...>.I..G.
 0de0 5cc31306 50098145 0145fd34 eff0dfd7  \...P..E.E.4....
 0df0 c9c8e318 25ff1306 70089305 a01a2145  ....%...p.....!E
 0e00 eff09fd6 95476308 f5046304 2509b727  .....Gc...c.%..'
 0e10 001023a8 07800547 23ace780 b7170010  ..#....G#.......
 0e20 23a00700 13074005 13065009 814598c3  #.....@...P..E..
 0e30 1305b003 eff05fd3 13065009 93050020  ......_...P.... 
 0e40 4145eff0 7fd2e270 4274a274 0279e269  AE.....pBt.t.y.i
 0e50 09452161 82803400 6c003717 00101306  .E!a..4.l.7.....
 0e60 f00f1c47 858bf5df 50c71c47 898bf5df  ...G....P..G....
 0e70 5c478506 a38ff6fe e395d5fe 23000400  \G..........#...
 0e80 79b7e270 4274a274 0279e269 05452161  y..pBt.t.y.i.E!a
 0e90 82802400 1309c100 a6863717 00101306  ..$.......7.....
 0ea0 f00f1c47 858bf5df 50c71c47 898bf5df  ...G....P..G....
 0eb0 5c478506 a38ff6fe e39526ff 9309903e  \G........&....>
 0ec0 01468145 13057003 eff01fca 0146b705  .F.E..p......F..
 0ed0 00401305 9002fd39 eff01fc9 63830900  .@.....9....c...
 0ee0 65f19309 903e0146 81451305 a003fd39  e....>.F.E.....9
 0ef0 eff09fc7 63830900 7df53717 00109306  ....c...}.7.....
 0f00 f00f1c47 858bf5df 54c71c47 898bf5df  ...G....T..G....
 0f10 5c478504 a38ff4fe e39524ff 83478100  \G........$..G..
 0f20 93f70704 b337f000 89072300 f400c5b5  .....7....#.....
 0f30 b7070010 054798c7 d8c723a8 07003707  .....G....#...7.
 0f40 00105c43 e34ff0fe 82803707 0010af27  ..\C.O....7....'
 0f50 a7408127 e3cd07fe 82808346 05002a86  .@.'.......F..*.
 0f60 014589ce 37070010 0506af27 d7408127  .E..7......'.@.'
 0f70 e3cd07fe 83460600 0525fdf6 37070010  .....F...%..7...
 0f80 a946af27 d7408127 e3cd07fe 82809b06  .F.'.@.'........
 0f90 f6ff05c6 82168192 8506aa96 29a063e0  ............).c.
 0fa0 e702630c d5000347 050083c7 05000505  ..c....G........
 0fb0 8505e376 f7fe7d55 82800145 82800545  ...v..}U...E...E
 0fc0 82804111 2e8322e0 9b050500 2a848948  ..A...".....*..H
 0fd0 09488547 05478546 1b050300 06e4eff0  .H.G.G.F........
 0fe0 7fabeff0 3faf0125 6dfda260 22850264  ....?..%m..`"..d
 0ff0 41018280 b7470f00 9b870724 bb87a702  A....G.....$....
 1000 1306803e 37c70008 833687ff 13070008  ...>7....6......
 1010 bbd7c702 82178193 b697b746 00089ce2  ...........F....
 1020 73204730 73005010 73304730 82801307  s G0s.P.s0G0....
 1030 85009bd7 c5010505 9b870703 a30ff5fe  ................
 1040 9b954500 e317e5fe 82801301 01b42338  ..E...........#8
 1050 814a2338 41499717 00009387 a7d8056a  .J#8AI.........j
 1060 7d74fd72 90639467 2330214b 984b1309  }t.r.c.g#0!K.K..
 1070 84ba83c7 47019305 0a49233c 114a2334  ....G....I#<.J#4
 1080 914a233c 3149ca95 16913389 250032e8  .J#<1I....3.%.2.
 1090 36ec3ad0 2302f102 7d57233c 2127b717  6.:.#...}W#<!'..
 10a0 000ca302 01022303 0102a303 01022304  ......#.......#.
 10b0 0102a304 01022305 0102a305 01022306  ......#.......#.
 10c0 0102a306 01022307 0102a307 01022308  ......#.......#.
 10d0 0102a308 01022309 0102a309 010223a0  ......#.......#.
 10e0 e708eff0 ffe41715 00001305 25d5eff0  ............%...
 10f0 dfe6b709 00049304 04b89307 0a49a697  .............I..
 1100 83a58901 b3842700 13853401 eff03ff2  ......'...4...?.
 1110 83a5c901 1385b401 eff07ff1 2685a309  ............&...
 1120 0102eff0 9fe31715 00001305 a5d2eff0  ................
 1130 dfe21305 f4b79307 0a49aa97 33852700  .........I..3.'.
 1140 eff0dfc3 17150000 130545d2 eff0ffe0  ..........E.....
 1150 4a85eff0 8f941715 00001305 a5d2eff0  J...............
 1160 dfdf1304 84dc9307 0a49a297 33842700  .........I..3.'.
 1170 97150000 938585d2 2285eff0 8fdd2285  ........".....".
 1180 eff06f91 17150000 130545d2 eff0ffdc  ..o.......E.....
 1190 97150000 938505d3 2285eff0 8fdb9305  ........".......
 11a0 1040d605 2285efe0 3ffc1715 00001305  .@.."...?.......
 11b0 e5d1eff0 9fda8562 16918330 814b0334  .......b...0.K.4
 11c0 014b8334 814a0339 014a8339 8149033a  .K.4.J.9.J.9.I.:
 11d0 01490145 1301014c 8280               .I.E...L..      
Contents of section .data:
 11e0 d00dfeed 00000bf9 00000038 000009a4  ...........8....
 11f0 00000028 00000011 00000010 00000000  ...(............
 1200 00000255 0000096c 00000000 00000000  ...U...l........
 1210 00000000 00000000 00000001 00000000  ................
 1220 00000003 00000008 00000000 79745f72  ............yt_r
 1230 76363400 00000003 0000000f 00000006  v64.............
 1240 7975746f 6e670079 745f7276 36340000  yutong.yt_rv64..
 1250 00000003 00000004 00000011 00000002  ................
 1260 00000003 00000004 00000020 00000002  ........... ....
 1270 00000003 00000004 0000002c 00000002  ...........,....
 1280 00000001 72746363 6c6b0000 00000003  ....rtcclk......
 1290 0000000c 00000006 66697865 642d636c  ........fixed-cl
 12a0 6f636b00 00000003 00000004 0000003d  ock............=
 12b0 00000001 00000003 00000004 0000004a  ...............J
 12c0 000f4240 00000003 00000007 0000005a  ..B@...........Z
 12d0 72746363 6c6b0000 00000003 00000004  rtcclk..........
 12e0 0000006d 00000005 00000002 00000001  ...m............
 12f0 63707573 00000000 00000003 00000004  cpus............
 1300 00000075 00000001 00000003 00000004  ...u............
 1310 00000011 00000001 00000003 00000004  ................
 1320 00000020 00000000 00000003 00000004  ... ............
 1330 00000083 000f4240 00000001 63707540  ......B@....cpu@
 1340 30000000 00000003 00000004 00000096  0...............
 1350 63707500 00000003 00000004 000000a2  cpu.............
 1360 00000000 00000003 00000005 000000a6  ................
 1370 6f6b6179 00000000 00000003 00000006  okay............
 1380 00000006 72697363 76000000 00000003  ....riscv.......
 1390 00000004 000000ad 00000010 00000003  ................
 13a0 00000004 000000c0 00000040 00000003  ...........@....
 13b0 00000004 000000cd 00000400 00000003  ................
 13c0 00000004 000000da 00000020 00000003  ........... ....
 13d0 00000004 000000e5 00000080 00000003  ................
 13e0 00000004 000000f0 00000010 00000003  ................
 13f0 00000004 00000103 00000040 00000003  ...........@....
 1400 00000004 00000110 00000400 00000003  ................
 1410 00000004 0000011d 00000020 00000003  ........... ....
 1420 00000004 00000128 00000080 00000003  .......(........
 1430 0000000b 00000133 72763634 696d6163  .......3rv64imac
 1440 66640000 00000003 0000000b 0000013d  fd.............=
 1450 72697363 762c7376 34380000 00000003  riscv,sv48......
 1460 00000004 00000146 00000010 00000003  .......F........
 1470 00000004 00000157 00000004 00000003  .......W........
 1480 00000004 0000004a 01f78a40 00000003  .......J...@....
 1490 00000000 0000016c 00000003 00000004  .......l........
 14a0 0000006d 00000003 00000001 696e7465  ...m........inte
 14b0 72727570 742d636f 6e74726f 6c6c6572  rrupt-controller
 14c0 00000000 00000003 00000004 0000017b  ...............{
 14d0 00000001 00000003 00000000 0000018c  ................
 14e0 00000003 0000000f 00000006 72697363  ............risc
 14f0 762c6370 752d696e 74630000 00000003  v,cpu-intc......
 1500 00000004 0000006d 00000004 00000002  .......m........
 1510 00000002 00000001 6370752d 6d617000  ........cpu-map.
 1520 00000001 636c7573 74657230 00000000  ....cluster0....
 1530 00000001 636f7265 30000000 00000003  ....core0.......
 1540 00000004 00000177 00000003 00000002  .......w........
 1550 00000002 00000002 00000002 00000001  ................
 1560 626f6f74 726f6d40 30000000 00000003  bootrom@0.......
 1570 00000008 00000096 626f6f74 726f6d00  ........bootrom.
 1580 00000003 00000010 000000a2 00000000  ................
 1590 00000000 00000000 00002000 00000002  .......... .....
 15a0 00000001 73797372 616d4031 30303030  ....sysram@10000
 15b0 00000000 00000003 00000007 00000096  ................
 15c0 6d656d6f 72790000 00000003 00000010  memory..........
 15d0 000000a2 00000000 00020000 00000000  ................
 15e0 00020000 00000002 00000001 64647240  ............ddr@
 15f0 38303030 30303030 00000000 00000003  80000000........
 1600 00000007 00000096 6d656d6f 72790000  ........memory..
 1610 00000003 00000010 000000a2 00000000  ................
 1620 80000000 00000000 20000000 00000002  ........ .......
 1630 00000001 70657269 62757340 34303030  ....peribus@4000
 1640 30303000 00000003 0000000b 00000006  000.............
 1650 73696d70 6c652d62 75730000 00000003  simple-bus......
 1660 00000004 00000011 00000001 00000003  ................
 1670 00000004 00000020 00000001 00000003  ....... ........
 1680 00000000 000001a1 00000001 63666772  ............cfgr
 1690 65674034 30303030 30300000 00000003  eg@4000000......
 16a0 0000000d 00000006 72697363 762c6366  ........riscv,cf
 16b0 67726567 00000000 00000003 00000008  greg............
 16c0 000000a2 04000000 00001000 00000002  ................
 16d0 00000001 6462676d 6f6e4034 30303230  ....dbgmon@40020
 16e0 30300000 00000003 00000004 000001a8  00..............
 16f0 00000004 00000003 00000004 0000002c  ...............,
 1700 00000002 00000003 0000000d 00000006  ................
 1710 72697363 762c6462 676d6f6e 00000000  riscv,dbgmon....
 1720 00000003 00000008 000000a2 04002000  .............. .
 1730 00002000 00000002 00000001 636c696e  .. .........clin
 1740 74403830 30303030 30000000 00000003  t@8000000.......
 1750 0000000d 00000006 72697363 762c636c  ........riscv,cl
 1760 696e7430 00000000 00000003 00000008  int0............
 1770 000000a2 08000000 00010000 00000003  ................
 1780 00000010 000001b3 00000004 00000007  ................
 1790 00000004 00000003 00000002 00000001  ................
 17a0 696e7465 72727570 742d636f 6e74726f  interrupt-contro
 17b0 6c6c6572 40633030 30303030 00000000  ller@c000000....
 17c0 00000003 00000004 0000017b 00000001  ...........{....
 17d0 00000003 00000000 0000018c 00000003  ................
 17e0 0000000c 00000006 72697363 762c706c  ........riscv,pl
 17f0 69633000 00000003 00000004 000001c7  ic0.............
 1800 00000020 00000003 00000008 000000a2  ... ............
 1810 0c000000 04000000 00000003 00000010  ................
 1820 000001b3 00000004 0000000b 00000004  ................
 1830 00000009 00000003 00000004 0000006d  ...............m
 1840 00000002 00000002 00000001 75617274  ............uart
 1850 40313030 30303030 30000000 00000003  @10000000.......
 1860 00000004 000001a8 00000001 00000003  ................
 1870 00000004 0000002c 00000002 00000003  .......,........
 1880 0000000d 00000006 73696669 76652c75  ........sifive,u
 1890 61727430 00000000 00000003 00000008  art0............
 18a0 000001d2 00000005 00000000 00000003  ................
 18b0 00000008 000000a2 10000000 00001000  ................
 18c0 00000002 00000001 73706940 31303030  ........spi@1000
 18d0 31303030 00000000 00000003 00000004  1000............
 18e0 000001a8 00000002 00000003 00000004  ................
 18f0 0000002c 00000002 00000003 0000000b  ...,............
 1900 00000006 72697363 762c7370 69300000  ....riscv,spi0..
 1910 00000003 00000008 000000a2 10001000  ................
 1920 00001000 00000003 00000004 00000011  ................
 1930 00000001 00000003 00000004 00000020  ............... 
 1940 00000000 00000003 00000005 000000a6  ................
 1950 6f6b6179 00000000 00000001 73706964  okay........spid
 1960 65764030 00000000 00000003 0000000e  ev@0............
 1970 00000006 726f686d 2c646832 32323866  ....rohm,dh2228f
 1980 76000000 00000003 00000004 000000a2  v...............
 1990 00000000 00000003 00000004 000001d9  ................
 19a0 000f4240 00000003 00000008 000001eb  ..B@............
 19b0 00000ce4 00000ce4 00000003 00000000  ................
 19c0 000001fa 00000002 00000001 6d6d6340  ............mmc@
 19d0 31000000 00000003 0000000d 00000006  1...............
 19e0 6d6d632d 7370692d 736c6f74 00000000  mmc-spi-slot....
 19f0 00000003 00000004 000000a2 00000001  ................
 1a00 00000003 00000004 000001d9 000f4240  ..............B@
 1a10 00000003 00000008 000001eb 00000ce4  ................
 1a20 00000ce4 00000003 00000000 000001fa  ................
 1a30 00000002 00000002 00000001 65746840  ............eth@
 1a40 31303030 32303030 00000000 00000003  10002000........
 1a50 00000004 000001a8 00000003 00000003  ................
 1a60 00000004 0000002c 00000002 00000003  .......,........
 1a70 0000000b 00000006 72697363 762c6574  ........riscv,et
 1a80 68300000 00000003 00000008 000000a2  h0..............
 1a90 10002000 00001000 00000002 00000002  .. .............
 1aa0 00000001 63686f73 656e0000 00000003  ....chosen......
 1ab0 00000008 00000205 00000000 80200000  ............. ..
 1ac0 00000003 00000008 00000218 00000000  ................
 1ad0 87000000 00000003 00000030 00000229  ...........0...)
 1ae0 726f6f74 3d2f6465 762f6d6d 63626c6b  root=/dev/mmcblk
 1af0 30703220 72772063 6f6e736f 6c653d74  0p2 rw console=t
 1b00 74795349 46302072 6f6f7477 61697400  tySIF0 rootwait.
 1b10 00000003 0000000f 00000232 75617274  ...........2uart
 1b20 30403130 30303130 30300000 00000003  0@10001000......
 1b30 00000004 0000023e 00000600 00000002  .......>........
 1b40 00000001 616c6961 73657300 00000003  ....aliases.....
 1b50 0000001f 0000024d 2f706572 69627573  .......M/peribus
 1b60 40343030 30303030 2f756172 74403130  @4000000/uart@10
 1b70 30303030 30300000 00000002 00000002  000000..........
 1b80 00000009 6d6f6465 6c00636f 6d706174  ....model.compat
 1b90 69626c65 00236164 64726573 732d6365  ible.#address-ce
 1ba0 6c6c7300 2373697a 652d6365 6c6c7300  lls.#size-cells.
 1bb0 696e7465 72727570 742d7061 72656e74  interrupt-parent
 1bc0 0023636c 6f636b2d 63656c6c 7300636c  .#clock-cells.cl
 1bd0 6f636b2d 66726571 75656e63 7900636c  ock-frequency.cl
 1be0 6f636b2d 6f757470 75742d6e 616d6573  ock-output-names
 1bf0 00706861 6e646c65 006c696e 75782c70  .phandle.linux,p
 1c00 68616e64 6c650074 696d6562 6173652d  handle.timebase-
 1c10 66726571 75656e63 79006465 76696365  frequency.device
 1c20 5f747970 65007265 67007374 61747573  _type.reg.status
 1c30 00692d63 61636865 2d626c6f 636b2d73  .i-cache-block-s
 1c40 697a6500 692d6361 6368652d 73657473  ize.i-cache-sets
 1c50 00692d63 61636865 2d73697a 6500692d  .i-cache-size.i-
 1c60 746c622d 73657473 00692d74 6c622d73  tlb-sets.i-tlb-s
 1c70 697a6500 642d6361 6368652d 626c6f63  ize.d-cache-bloc
 1c80 6b2d7369 7a650064 2d636163 68652d73  k-size.d-cache-s
 1c90 65747300 642d6361 6368652d 73697a65  ets.d-cache-size
 1ca0 00642d74 6c622d73 65747300 642d746c  .d-tlb-sets.d-tl
 1cb0 622d7369 7a650072 69736376 2c697361  b-size.riscv,isa
 1cc0 006d6d75 2d747970 65007269 7363762c  .mmu-type.riscv,
 1cd0 706d7072 6567696f 6e730072 69736376  pmpregions.riscv
 1ce0 2c706d70 6772616e 756c6172 69747900  ,pmpgranularity.
 1cf0 6c696e75 782c626f 6f742d63 70750023  linux,boot-cpu.#
 1d00 696e7465 72727570 742d6365 6c6c7300  interrupt-cells.
 1d10 696e7465 72727570 742d636f 6e74726f  interrupt-contro
 1d20 6c6c6572 0072616e 67657300 696e7465  ller.ranges.inte
 1d30 72727570 74730069 6e746572 72757074  rrupts.interrupt
 1d40 732d6578 74656e64 65640072 69736376  s-extended.riscv
 1d50 2c6e6465 7600636c 6f636b73 00737069  ,ndev.clocks.spi
 1d60 2d6d6178 2d667265 7175656e 63790076  -max-frequency.v
 1d70 6f6c7461 67652d72 616e6765 73006469  oltage-ranges.di
 1d80 7361626c 652d7770 00726973 63762c6b  sable-wp.riscv,k
 1d90 65726e65 6c2d7374 61727400 72697363  ernel-start.risc
 1da0 762c6b65 726e656c 2d656e64 00626f6f  v,kernel-end.boo
 1db0 74617267 73007374 646f7574 2d706174  targs.stdout-pat
 1dc0 68006c69 6e75782c 706c6174 666f726d  h.linux,platform
 1dd0 00736572 69616c30 00                 .serial0.       
Contents of section .rodata:
 1de0 5b42524f 4d5d2048 57207665 7273696f  [BROM] HW versio
 1df0 6e3a2020 00000000 00000000 00000000  n:  ............
 1e00 00000000                             ....            
Contents of section .rodata.str1.8:
 1e08 46415431 32202020 00000000 00000000  FAT12   ........
 1e18 46415431 36202020 00000000 00000000  FAT16   ........
 1e28 46415433 32202020 00000000 00000000  FAT32   ........
 1e38 5b42524f 4d5d2055 41525420 696e6974  [BROM] UART init
 1e48 20646f6e 65000000 5b42524f 4d5d2053   done...[BROM] S
 1e58 44206361 72642069 6e697400 00000000  D card init.....
 1e68 5b42524f 4d5d2046 41542042 50422069  [BROM] FAT BPB i
 1e78 6e697400 00000000 5b42524f 4d5d206c  nit.....[BROM] l
 1e88 6f616420 6f70656e 53424900 00000000  oad openSBI.....
 1e98 66775f70 61796c64 2e656c66 00000000  fw_payld.elf....
 1ea8 5b42524f 4d5d206c 6f616420 766d6c69  [BROM] load vmli
 1eb8 6e757800 00000000 766d6c69 6e757800  nux.....vmlinux.
 1ec8 5b42524f 4d5d2062 6f6f7420 726f6d20  [BROM] boot rom 
 1ed8 696e6974 20646f6e 6500               init done.      
Contents of section .comment:
 0000 4743433a 20286731 65613937 38653330  GCC: (g1ea978e30
 0010 36362920 31322e31 2e3000             66) 12.1.0.     
Contents of section .riscv.attributes:
 0000 412e0000 00726973 63760001 24000000  A....riscv..$...
 0010 04100572 76363469 3270305f 6d327030  ...rv64i2p0_m2p0
 0020 5f613270 305f6332 70300008 010a0b    _a2p0_c2p0..... 

Disassembly of section .text:

0000000000000000 <__text_start>:
       0:	4081                	li	ra,0
       2:	4101                	li	sp,0
       4:	4181                	li	gp,0
       6:	4201                	li	tp,0
       8:	4281                	li	t0,0
       a:	4301                	li	t1,0
       c:	4381                	li	t2,0
       e:	4401                	li	s0,0
      10:	4481                	li	s1,0
      12:	4501                	li	a0,0
      14:	4581                	li	a1,0
      16:	4601                	li	a2,0
      18:	4681                	li	a3,0
      1a:	4701                	li	a4,0
      1c:	4781                	li	a5,0
      1e:	4801                	li	a6,0
      20:	4881                	li	a7,0
      22:	4901                	li	s2,0
      24:	4981                	li	s3,0
      26:	4a01                	li	s4,0
      28:	4a81                	li	s5,0
      2a:	4b01                	li	s6,0
      2c:	4b81                	li	s7,0
      2e:	4c01                	li	s8,0
      30:	4c81                	li	s9,0
      32:	4d01                	li	s10,0
      34:	4d81                	li	s11,0
      36:	4e01                	li	t3,0
      38:	4e81                	li	t4,0
      3a:	4f01                	li	t5,0
      3c:	4f81                	li	t6,0

000000000000003e <fill_stack>:
      3e:	0003f517          	auipc	a0,0x3f
      42:	fc250513          	addi	a0,a0,-62 # 3f000 <_stack_end>
      46:	00040597          	auipc	a1,0x40
      4a:	fb658593          	addi	a1,a1,-74 # 3fffc <_stack_end+0xffc>
      4e:	4601                	li	a2,0
      50:	0e6000ef          	jal	ra,136 <fill_block>

0000000000000054 <init_stack>:
      54:	00040117          	auipc	sp,0x40
      58:	fac10113          	addi	sp,sp,-84 # 40000 <__stack>

000000000000005c <init_system>:
      5c:	301022f3          	csrr	t0,misa
      60:	0602c163          	bltz	t0,c2 <rv64>
      64:	001a02b7          	lui	t0,0x1a0
      68:	3c329073          	csrw	0x3c3,t0
      6c:	00000297          	auipc	t0,0x0
      70:	0dc2a283          	lw	t0,220(t0) # 148 <sysram_base>
      74:	00000317          	auipc	t1,0x0
      78:	0dc32303          	lw	t1,220(t1) # 150 <sysram_size>
      7c:	137d                	addi	t1,t1,-1
      7e:	00135313          	srli	t1,t1,0x1
      82:	0062e2b3          	or	t0,t0,t1
      86:	0022d293          	srli	t0,t0,0x2
      8a:	3de29073          	csrw	0x3de,t0
      8e:	1a0002b7          	lui	t0,0x1a000
      92:	3c32a073          	csrs	0x3c3,t0
      96:	00000297          	auipc	t0,0x0
      9a:	0c22a283          	lw	t0,194(t0) # 158 <ddr_base>
      9e:	00000317          	auipc	t1,0x0
      a2:	0c232303          	lw	t1,194(t1) # 160 <ddr_size>
      a6:	137d                	addi	t1,t1,-1
      a8:	00135313          	srli	t1,t1,0x1
      ac:	0062e2b3          	or	t0,t0,t1
      b0:	0022d293          	srli	t0,t0,0x2
      b4:	3df29073          	csrw	0x3df,t0
      b8:	00000417          	auipc	s0,0x0
      bc:	09042403          	lw	s0,144(s0) # 148 <sysram_base>
      c0:	a08d                	j	122 <goto_main>

00000000000000c2 <rv64>:
      c2:	00d0029b          	addiw	t0,zero,13
      c6:	12c6                	slli	t0,t0,0x31
      c8:	3c229073          	csrw	0x3c2,t0
      cc:	00000297          	auipc	t0,0x0
      d0:	07c2b283          	ld	t0,124(t0) # 148 <sysram_base>
      d4:	00000317          	auipc	t1,0x0
      d8:	07c33303          	ld	t1,124(t1) # 150 <sysram_size>
      dc:	137d                	addi	t1,t1,-1
      de:	00135313          	srli	t1,t1,0x1
      e2:	0062e2b3          	or	t0,t0,t1
      e6:	0022d293          	srli	t0,t0,0x2
      ea:	3de29073          	csrw	0x3de,t0
      ee:	00d0029b          	addiw	t0,zero,13
      f2:	12e6                	slli	t0,t0,0x39
      f4:	3c22a073          	csrs	0x3c2,t0
      f8:	00000297          	auipc	t0,0x0
      fc:	0602b283          	ld	t0,96(t0) # 158 <ddr_base>
     100:	00000317          	auipc	t1,0x0
     104:	06033303          	ld	t1,96(t1) # 160 <ddr_size>
     108:	137d                	addi	t1,t1,-1
     10a:	00135313          	srli	t1,t1,0x1
     10e:	0062e2b3          	or	t0,t0,t1
     112:	0022d293          	srli	t0,t0,0x2
     116:	3df29073          	csrw	0x3df,t0
     11a:	00000417          	auipc	s0,0x0
     11e:	03e43403          	ld	s0,62(s0) # 158 <ddr_base>

0000000000000122 <goto_main>:
     122:	729000ef          	jal	ra,104a <main>
     126:	f1402573          	csrr	a0,mhartid
     12a:	00001597          	auipc	a1,0x1
     12e:	0b658593          	addi	a1,a1,182 # 11e0 <_DTB>
     132:	8402                	jr	s0

0000000000000134 <dead_loop>:
     134:	a001                	j	134 <dead_loop>

0000000000000136 <fill_block>:
     136:	00a5e563          	bltu	a1,a0,140 <fb_end>
     13a:	c110                	sw	a2,0(a0)
     13c:	0511                	addi	a0,a0,4
     13e:	bfe5                	j	136 <fill_block>

0000000000000140 <fb_end>:
     140:	8082                	ret
     142:	0001                	nop
     144:	00000013          	nop

0000000000000148 <sysram_base>:
     148:	00020000          	.word	0x00020000
     14c:	00000000          	.word	0x00000000

0000000000000150 <sysram_size>:
     150:	00020000          	.word	0x00020000
     154:	00000000          	.word	0x00000000

0000000000000158 <ddr_base>:
     158:	0000                	unimp
     15a:	8000                	.2byte	0x8000
     15c:	0000                	unimp
	...

0000000000000160 <ddr_size>:
     160:	0000                	unimp
     162:	8000                	.2byte	0x8000
     164:	0000                	unimp
	...

0000000000000168 <__elf_loader_reloc>:
     168:	db010113          	addi	sp,sp,-592
     16c:	23213823          	sd	s2,560(sp)
     170:	4601                	li	a2,0
     172:	892e                	mv	s2,a1
     174:	4581                	li	a1,0
     176:	24113423          	sd	ra,584(sp)
     17a:	23413023          	sd	s4,544(sp)
     17e:	21513c23          	sd	s5,536(sp)
     182:	8a2a                	mv	s4,a0
     184:	24813023          	sd	s0,576(sp)
     188:	22913c23          	sd	s1,568(sp)
     18c:	23313423          	sd	s3,552(sp)
     190:	21613823          	sd	s6,528(sp)
     194:	21713423          	sd	s7,520(sp)
     198:	78e000ef          	jal	ra,926 <__fseek>
     19c:	04000613          	li	a2,64
     1a0:	858a                	mv	a1,sp
     1a2:	8552                	mv	a0,s4
     1a4:	7aa000ef          	jal	ra,94e <__fread>
     1a8:	03815a83          	lhu	s5,56(sp)
     1ac:	0a0a8b63          	beqz	s5,262 <__elf_loader_reloc+0xfa>
     1b0:	4b01                	li	s6,0
     1b2:	4ba1                	li	s7,8
     1b4:	6989                	lui	s3,0x2
     1b6:	416a87bb          	subw	a5,s5,s6
     1ba:	0cfbea63          	bltu	s7,a5,28e <__elf_loader_reloc+0x126>
     1be:	003a941b          	slliw	s0,s5,0x3
     1c2:	4154043b          	subw	s0,s0,s5
     1c6:	0034141b          	slliw	s0,s0,0x3
     1ca:	7582                	ld	a1,32(sp)
     1cc:	003b179b          	slliw	a5,s6,0x3
     1d0:	416787bb          	subw	a5,a5,s6
     1d4:	0037979b          	slliw	a5,a5,0x3
     1d8:	9dbd                	addw	a1,a1,a5
     1da:	4601                	li	a2,0
     1dc:	8552                	mv	a0,s4
     1de:	003a9493          	slli	s1,s5,0x3
     1e2:	744000ef          	jal	ra,926 <__fseek>
     1e6:	415484b3          	sub	s1,s1,s5
     1ea:	8622                	mv	a2,s0
     1ec:	008c                	addi	a1,sp,64
     1ee:	8552                	mv	a0,s4
     1f0:	048e                	slli	s1,s1,0x3
     1f2:	0080                	addi	s0,sp,64
     1f4:	75a000ef          	jal	ra,94e <__fread>
     1f8:	94a2                	add	s1,s1,s0
     1fa:	a029                	j	204 <__elf_loader_reloc+0x9c>
     1fc:	03840413          	addi	s0,s0,56
     200:	04848b63          	beq	s1,s0,256 <__elf_loader_reloc+0xee>
     204:	6c1c                	ld	a5,24(s0)
     206:	97ca                	add	a5,a5,s2
     208:	ff37eae3          	bltu	a5,s3,1fc <__elf_loader_reloc+0x94>
     20c:	440c                	lw	a1,8(s0)
     20e:	4601                	li	a2,0
     210:	8552                	mv	a0,s4
     212:	714000ef          	jal	ra,926 <__fseek>
     216:	6c0c                	ld	a1,24(s0)
     218:	5010                	lw	a2,32(s0)
     21a:	8552                	mv	a0,s4
     21c:	95ca                	add	a1,a1,s2
     21e:	730000ef          	jal	ra,94e <__fread>
     222:	7010                	ld	a2,32(s0)
     224:	7408                	ld	a0,40(s0)
     226:	fca67be3          	bgeu	a2,a0,1fc <__elf_loader_reloc+0x94>
     22a:	6c0c                	ld	a1,24(s0)
     22c:	4889                	li	a7,2
     22e:	4809                	li	a6,2
     230:	95b2                	add	a1,a1,a2
     232:	4785                	li	a5,1
     234:	40c5063b          	subw	a2,a0,a2
     238:	4709                	li	a4,2
     23a:	4685                	li	a3,1
     23c:	012585bb          	addw	a1,a1,s2
     240:	4501                	li	a0,0
     242:	053000ef          	jal	ra,a94 <__dma_cfg>
     246:	08f000ef          	jal	ra,ad4 <__dma_busy>
     24a:	2501                	sext.w	a0,a0
     24c:	fd6d                	bnez	a0,246 <__elf_loader_reloc+0xde>
     24e:	03840413          	addi	s0,s0,56
     252:	fa8499e3          	bne	s1,s0,204 <__elf_loader_reloc+0x9c>
     256:	016a8b3b          	addw	s6,s5,s6
     25a:	03815a83          	lhu	s5,56(sp)
     25e:	f55b6ce3          	bltu	s6,s5,1b6 <__elf_loader_reloc+0x4e>
     262:	24813083          	ld	ra,584(sp)
     266:	24013403          	ld	s0,576(sp)
     26a:	6562                	ld	a0,24(sp)
     26c:	23813483          	ld	s1,568(sp)
     270:	23013903          	ld	s2,560(sp)
     274:	22813983          	ld	s3,552(sp)
     278:	22013a03          	ld	s4,544(sp)
     27c:	21813a83          	ld	s5,536(sp)
     280:	21013b03          	ld	s6,528(sp)
     284:	20813b83          	ld	s7,520(sp)
     288:	25010113          	addi	sp,sp,592
     28c:	8082                	ret
     28e:	1c000413          	li	s0,448
     292:	4aa1                	li	s5,8
     294:	bf1d                	j	1ca <__elf_loader_reloc+0x62>

0000000000000296 <__elf_loader>:
     296:	4581                	li	a1,0
     298:	bdc1                	j	168 <__elf_loader_reloc>

000000000000029a <__fat_bpb_init>:
     29a:	dd010113          	addi	sp,sp,-560
     29e:	22813023          	sd	s0,544(sp)
     2a2:	858a                	mv	a1,sp
     2a4:	842a                	mv	s0,a0
     2a6:	4501                	li	a0,0
     2a8:	22113423          	sd	ra,552(sp)
     2ac:	20913c23          	sd	s1,536(sp)
     2b0:	21213823          	sd	s2,528(sp)
     2b4:	21313423          	sd	s3,520(sp)
     2b8:	28b000ef          	jal	ra,d42 <__sd_readblk>
     2bc:	c901                	beqz	a0,2cc <__fat_bpb_init+0x32>
     2be:	1fe15903          	lhu	s2,510(sp)
     2c2:	67ad                	lui	a5,0xb
     2c4:	a5578793          	addi	a5,a5,-1451 # aa55 <__data_end+0x8c7c>
     2c8:	02f90063          	beq	s2,a5,2e8 <__fat_bpb_init+0x4e>
     2cc:	22813083          	ld	ra,552(sp)
     2d0:	22013403          	ld	s0,544(sp)
     2d4:	21813483          	ld	s1,536(sp)
     2d8:	21013903          	ld	s2,528(sp)
     2dc:	20813983          	ld	s3,520(sp)
     2e0:	4501                	li	a0,0
     2e2:	23010113          	addi	sp,sp,560
     2e6:	8082                	ret
     2e8:	4621                	li	a2,8
     2ea:	00002597          	auipc	a1,0x2
     2ee:	b1e58593          	addi	a1,a1,-1250 # 1e08 <__data_end+0x2f>
     2f2:	03610513          	addi	a0,sp,54
     2f6:	499000ef          	jal	ra,f8e <__strcmp>
     2fa:	0005049b          	sext.w	s1,a0
     2fe:	e8cd                	bnez	s1,3b0 <__fat_bpb_init+0x116>
     300:	00c14783          	lbu	a5,12(sp)
     304:	00b14703          	lbu	a4,11(sp)
     308:	00d14583          	lbu	a1,13(sp)
     30c:	07a2                	slli	a5,a5,0x8
     30e:	8fd9                	or	a5,a5,a4
     310:	470d                	li	a4,3
     312:	00e40a23          	sb	a4,20(s0)
     316:	00f41023          	sh	a5,0(s0)
     31a:	4981                	li	s3,0
     31c:	01615803          	lhu	a6,22(sp)
     320:	01014503          	lbu	a0,16(sp)
     324:	00e15603          	lhu	a2,14(sp)
     328:	01214683          	lbu	a3,18(sp)
     32c:	0305073b          	mulw	a4,a0,a6
     330:	0136063b          	addw	a2,a2,s3
     334:	01114783          	lbu	a5,17(sp)
     338:	1642                	slli	a2,a2,0x30
     33a:	9241                	srli	a2,a2,0x30
     33c:	06a2                	slli	a3,a3,0x8
     33e:	8edd                	or	a3,a3,a5
     340:	0046d79b          	srliw	a5,a3,0x4
     344:	00b40923          	sb	a1,18(s0)
     348:	01041123          	sh	a6,2(s0)
     34c:	9f31                	addw	a4,a4,a2
     34e:	1742                	slli	a4,a4,0x30
     350:	9341                	srli	a4,a4,0x30
     352:	9fb9                	addw	a5,a5,a4
     354:	17c2                	slli	a5,a5,0x30
     356:	00a409a3          	sb	a0,19(s0)
     35a:	00c41223          	sh	a2,4(s0)
     35e:	00e41323          	sh	a4,6(s0)
     362:	00d41623          	sh	a3,12(s0)
     366:	93c1                	srli	a5,a5,0x30
     368:	5682                	lw	a3,32(sp)
     36a:	00f41823          	sh	a5,16(s0)
     36e:	00e41723          	sh	a4,14(s0)
     372:	e699                	bnez	a3,380 <__fat_bpb_init+0xe6>
     374:	01414683          	lbu	a3,20(sp)
     378:	01314703          	lbu	a4,19(sp)
     37c:	06a2                	slli	a3,a3,0x8
     37e:	8ed9                	or	a3,a3,a4
     380:	40f487bb          	subw	a5,s1,a5
     384:	9fb5                	addw	a5,a5,a3
     386:	02b7d7bb          	divuw	a5,a5,a1
     38a:	577d                	li	a4,-1
     38c:	22813083          	ld	ra,552(sp)
     390:	20e41c23          	sh	a4,536(s0)
     394:	21813483          	ld	s1,536(sp)
     398:	21013903          	ld	s2,528(sp)
     39c:	20813983          	ld	s3,520(sp)
     3a0:	4505                	li	a0,1
     3a2:	2789                	addiw	a5,a5,2
     3a4:	c41c                	sw	a5,8(s0)
     3a6:	22013403          	ld	s0,544(sp)
     3aa:	23010113          	addi	sp,sp,560
     3ae:	8082                	ret
     3b0:	4621                	li	a2,8
     3b2:	00002597          	auipc	a1,0x2
     3b6:	a6658593          	addi	a1,a1,-1434 # 1e18 <__data_end+0x3f>
     3ba:	03610513          	addi	a0,sp,54
     3be:	3d1000ef          	jal	ra,f8e <__strcmp>
     3c2:	0005049b          	sext.w	s1,a0
     3c6:	e085                	bnez	s1,3e6 <__fat_bpb_init+0x14c>
     3c8:	00c14783          	lbu	a5,12(sp)
     3cc:	00b14703          	lbu	a4,11(sp)
     3d0:	00d14583          	lbu	a1,13(sp)
     3d4:	07a2                	slli	a5,a5,0x8
     3d6:	8fd9                	or	a5,a5,a4
     3d8:	4711                	li	a4,4
     3da:	00e40a23          	sb	a4,20(s0)
     3de:	00f41023          	sh	a5,0(s0)
     3e2:	4981                	li	s3,0
     3e4:	bf25                	j	31c <__fat_bpb_init+0x82>
     3e6:	4621                	li	a2,8
     3e8:	00002597          	auipc	a1,0x2
     3ec:	a4058593          	addi	a1,a1,-1472 # 1e28 <__data_end+0x4f>
     3f0:	05210513          	addi	a0,sp,82
     3f4:	39b000ef          	jal	ra,f8e <__strcmp>
     3f8:	0005049b          	sext.w	s1,a0
     3fc:	e0bd                	bnez	s1,462 <__fat_bpb_init+0x1c8>
     3fe:	00c14783          	lbu	a5,12(sp)
     402:	00b14703          	lbu	a4,11(sp)
     406:	00d14583          	lbu	a1,13(sp)
     40a:	07a2                	slli	a5,a5,0x8
     40c:	8fd9                	or	a5,a5,a4
     40e:	4715                	li	a4,5
     410:	00e40a23          	sb	a4,20(s0)
     414:	00f41023          	sh	a5,0(s0)
     418:	4981                	li	s3,0
     41a:	02415803          	lhu	a6,36(sp)
     41e:	01014503          	lbu	a0,16(sp)
     422:	00e15683          	lhu	a3,14(sp)
     426:	01214603          	lbu	a2,18(sp)
     42a:	030507bb          	mulw	a5,a0,a6
     42e:	013686bb          	addw	a3,a3,s3
     432:	16c2                	slli	a3,a3,0x30
     434:	01114703          	lbu	a4,17(sp)
     438:	92c1                	srli	a3,a3,0x30
     43a:	0622                	slli	a2,a2,0x8
     43c:	8e59                	or	a2,a2,a4
     43e:	00b40923          	sb	a1,18(s0)
     442:	02c15703          	lhu	a4,44(sp)
     446:	01041123          	sh	a6,2(s0)
     44a:	9fb5                	addw	a5,a5,a3
     44c:	17c2                	slli	a5,a5,0x30
     44e:	93c1                	srli	a5,a5,0x30
     450:	00a409a3          	sb	a0,19(s0)
     454:	00d41223          	sh	a3,4(s0)
     458:	00f41323          	sh	a5,6(s0)
     45c:	00c41623          	sh	a2,12(s0)
     460:	b721                	j	368 <__fat_bpb_init+0xce>
     462:	1c615983          	lhu	s3,454(sp)
     466:	858a                	mv	a1,sp
     468:	0009849b          	sext.w	s1,s3
     46c:	8526                	mv	a0,s1
     46e:	0d5000ef          	jal	ra,d42 <__sd_readblk>
     472:	e4050de3          	beqz	a0,2cc <__fat_bpb_init+0x32>
     476:	1fe15783          	lhu	a5,510(sp)
     47a:	e52799e3          	bne	a5,s2,2cc <__fat_bpb_init+0x32>
     47e:	4621                	li	a2,8
     480:	00002597          	auipc	a1,0x2
     484:	98858593          	addi	a1,a1,-1656 # 1e08 <__data_end+0x2f>
     488:	03610513          	addi	a0,sp,54
     48c:	303000ef          	jal	ra,f8e <__strcmp>
     490:	0005079b          	sext.w	a5,a0
     494:	ef99                	bnez	a5,4b2 <__fat_bpb_init+0x218>
     496:	00c14783          	lbu	a5,12(sp)
     49a:	00b14703          	lbu	a4,11(sp)
     49e:	00d14583          	lbu	a1,13(sp)
     4a2:	07a2                	slli	a5,a5,0x8
     4a4:	8fd9                	or	a5,a5,a4
     4a6:	470d                	li	a4,3
     4a8:	00e40a23          	sb	a4,20(s0)
     4ac:	00f41023          	sh	a5,0(s0)
     4b0:	b5b5                	j	31c <__fat_bpb_init+0x82>
     4b2:	4621                	li	a2,8
     4b4:	00002597          	auipc	a1,0x2
     4b8:	96458593          	addi	a1,a1,-1692 # 1e18 <__data_end+0x3f>
     4bc:	03610513          	addi	a0,sp,54
     4c0:	2cf000ef          	jal	ra,f8e <__strcmp>
     4c4:	0005079b          	sext.w	a5,a0
     4c8:	ef99                	bnez	a5,4e6 <__fat_bpb_init+0x24c>
     4ca:	00c14783          	lbu	a5,12(sp)
     4ce:	00b14703          	lbu	a4,11(sp)
     4d2:	00d14583          	lbu	a1,13(sp)
     4d6:	07a2                	slli	a5,a5,0x8
     4d8:	8fd9                	or	a5,a5,a4
     4da:	4711                	li	a4,4
     4dc:	00e40a23          	sb	a4,20(s0)
     4e0:	00f41023          	sh	a5,0(s0)
     4e4:	bd25                	j	31c <__fat_bpb_init+0x82>
     4e6:	4621                	li	a2,8
     4e8:	00002597          	auipc	a1,0x2
     4ec:	94058593          	addi	a1,a1,-1728 # 1e28 <__data_end+0x4f>
     4f0:	05210513          	addi	a0,sp,82
     4f4:	29b000ef          	jal	ra,f8e <__strcmp>
     4f8:	0005079b          	sext.w	a5,a0
     4fc:	dc0798e3          	bnez	a5,2cc <__fat_bpb_init+0x32>
     500:	00c14783          	lbu	a5,12(sp)
     504:	00b14703          	lbu	a4,11(sp)
     508:	00d14583          	lbu	a1,13(sp)
     50c:	07a2                	slli	a5,a5,0x8
     50e:	8fd9                	or	a5,a5,a4
     510:	4715                	li	a4,5
     512:	00e40a23          	sb	a4,20(s0)
     516:	00f41023          	sh	a5,0(s0)
     51a:	b701                	j	41a <__fat_bpb_init+0x180>

000000000000051c <__nxt_clst>:
     51c:	1101                	addi	sp,sp,-32
     51e:	e822                	sd	s0,16(sp)
     520:	00e55403          	lhu	s0,14(a0)
     524:	21855683          	lhu	a3,536(a0)
     528:	e426                	sd	s1,8(sp)
     52a:	9c2d                	addw	s0,s0,a1
     52c:	ec06                	sd	ra,24(sp)
     52e:	0074579b          	srliw	a5,s0,0x7
     532:	84aa                	mv	s1,a0
     534:	02f69563          	bne	a3,a5,55e <__nxt_clst+0x42>
     538:	07f47413          	andi	s0,s0,127
     53c:	0411                	addi	s0,s0,4
     53e:	040a                	slli	s0,s0,0x2
     540:	9426                	add	s0,s0,s1
     542:	4408                	lw	a0,8(s0)
     544:	100007b7          	lui	a5,0x10000
     548:	17fd                	addi	a5,a5,-1 # fffffff <__stack+0xffbffff>
     54a:	04f50563          	beq	a0,a5,594 <__nxt_clst+0x78>
     54e:	00e4d783          	lhu	a5,14(s1)
     552:	9d1d                	subw	a0,a0,a5
     554:	60e2                	ld	ra,24(sp)
     556:	6442                	ld	s0,16(sp)
     558:	64a2                	ld	s1,8(sp)
     55a:	6105                	addi	sp,sp,32
     55c:	8082                	ret
     55e:	00455503          	lhu	a0,4(a0)
     562:	0074571b          	srliw	a4,s0,0x7
     566:	1742                	slli	a4,a4,0x30
     568:	9341                	srli	a4,a4,0x30
     56a:	20f49c23          	sh	a5,536(s1)
     56e:	01848593          	addi	a1,s1,24
     572:	9d39                	addw	a0,a0,a4
     574:	7ce000ef          	jal	ra,d42 <__sd_readblk>
     578:	87aa                	mv	a5,a0
     57a:	4501                	li	a0,0
     57c:	dfe1                	beqz	a5,554 <__nxt_clst+0x38>
     57e:	07f47413          	andi	s0,s0,127
     582:	0411                	addi	s0,s0,4
     584:	040a                	slli	s0,s0,0x2
     586:	9426                	add	s0,s0,s1
     588:	4408                	lw	a0,8(s0)
     58a:	100007b7          	lui	a5,0x10000
     58e:	17fd                	addi	a5,a5,-1 # fffffff <__stack+0xffbffff>
     590:	faf51fe3          	bne	a0,a5,54e <__nxt_clst+0x32>
     594:	60e2                	ld	ra,24(sp)
     596:	6442                	ld	s0,16(sp)
     598:	64a2                	ld	s1,8(sp)
     59a:	557d                	li	a0,-1
     59c:	6105                	addi	sp,sp,32
     59e:	8082                	ret

00000000000005a0 <__get_clst>:
     5a0:	715d                	addi	sp,sp,-80
     5a2:	e062                	sd	s8,0(sp)
     5a4:	6c41                	lui	s8,0x10
     5a6:	ec56                	sd	s5,24(sp)
     5a8:	1c7d                	addi	s8,s8,-1 # ffff <__data_end+0xe226>
     5aa:	0095da9b          	srliw	s5,a1,0x9
     5ae:	591c                	lw	a5,48(a0)
     5b0:	018afab3          	and	s5,s5,s8
     5b4:	e85a                	sd	s6,16(sp)
     5b6:	e45e                	sd	s7,8(sp)
     5b8:	e486                	sd	ra,72(sp)
     5ba:	e0a2                	sd	s0,64(sp)
     5bc:	fc26                	sd	s1,56(sp)
     5be:	f84a                	sd	s2,48(sp)
     5c0:	f44e                	sd	s3,40(sp)
     5c2:	f052                	sd	s4,32(sp)
     5c4:	2a81                	sext.w	s5,s5
     5c6:	8baa                	mv	s7,a0
     5c8:	8b2e                	mv	s6,a1
     5ca:	13578863          	beq	a5,s5,6fa <__get_clst+0x15a>
     5ce:	5954                	lw	a3,52(a0)
     5d0:	100009b7          	lui	s3,0x10000
     5d4:	19fd                	addi	s3,s3,-1 # fffffff <__stack+0xffbffff>
     5d6:	0f56f063          	bgeu	a3,s5,6b6 <__get_clst+0x116>
     5da:	02069793          	slli	a5,a3,0x20
     5de:	9381                	srli	a5,a5,0x20
     5e0:	20c78793          	addi	a5,a5,524
     5e4:	078a                	slli	a5,a5,0x2
     5e6:	97de                	add	a5,a5,s7
     5e8:	4798                	lw	a4,8(a5)
     5ea:	20000913          	li	s2,512
     5ee:	5a7d                	li	s4,-1
     5f0:	020bb483          	ld	s1,32(s7)
     5f4:	00e4d403          	lhu	s0,14(s1)
     5f8:	2184d683          	lhu	a3,536(s1)
     5fc:	01848593          	addi	a1,s1,24
     600:	9c39                	addw	s0,s0,a4
     602:	0074551b          	srliw	a0,s0,0x7
     606:	0074579b          	srliw	a5,s0,0x7
     60a:	00ac7533          	and	a0,s8,a0
     60e:	00f68a63          	beq	a3,a5,622 <__get_clst+0x82>
     612:	0044d703          	lhu	a4,4(s1)
     616:	20f49c23          	sh	a5,536(s1)
     61a:	9d39                	addw	a0,a0,a4
     61c:	726000ef          	jal	ra,d42 <__sd_readblk>
     620:	c12d                	beqz	a0,682 <__get_clst+0xe2>
     622:	07f47413          	andi	s0,s0,127
     626:	0411                	addi	s0,s0,4
     628:	040a                	slli	s0,s0,0x2
     62a:	9426                	add	s0,s0,s1
     62c:	441c                	lw	a5,8(s0)
     62e:	397d                	addiw	s2,s2,-1
     630:	1942                	slli	s2,s2,0x30
     632:	03095913          	srli	s2,s2,0x30
     636:	01378a63          	beq	a5,s3,64a <__get_clst+0xaa>
     63a:	00e4d703          	lhu	a4,14(s1)
     63e:	40e7873b          	subw	a4,a5,a4
     642:	04090863          	beqz	s2,692 <__get_clst+0xf2>
     646:	fb4715e3          	bne	a4,s4,5f0 <__get_clst+0x50>
     64a:	034ba703          	lw	a4,52(s7)
     64e:	2705                	addiw	a4,a4,1
     650:	02071793          	slli	a5,a4,0x20
     654:	9381                	srli	a5,a5,0x20
     656:	20c78793          	addi	a5,a5,524
     65a:	078a                	slli	a5,a5,0x2
     65c:	02ebaa23          	sw	a4,52(s7)
     660:	9bbe                	add	s7,s7,a5
     662:	57fd                	li	a5,-1
     664:	00fba423          	sw	a5,8(s7)
     668:	557d                	li	a0,-1
     66a:	60a6                	ld	ra,72(sp)
     66c:	6406                	ld	s0,64(sp)
     66e:	74e2                	ld	s1,56(sp)
     670:	7942                	ld	s2,48(sp)
     672:	79a2                	ld	s3,40(sp)
     674:	7a02                	ld	s4,32(sp)
     676:	6ae2                	ld	s5,24(sp)
     678:	6b42                	ld	s6,16(sp)
     67a:	6ba2                	ld	s7,8(sp)
     67c:	6c02                	ld	s8,0(sp)
     67e:	6161                	addi	sp,sp,80
     680:	8082                	ret
     682:	397d                	addiw	s2,s2,-1
     684:	1942                	slli	s2,s2,0x30
     686:	03095913          	srli	s2,s2,0x30
     68a:	0a090563          	beqz	s2,734 <__get_clst+0x194>
     68e:	4701                	li	a4,0
     690:	b785                	j	5f0 <__get_clst+0x50>
     692:	034ba683          	lw	a3,52(s7)
     696:	55fd                	li	a1,-1
     698:	2685                	addiw	a3,a3,1
     69a:	02069613          	slli	a2,a3,0x20
     69e:	9201                	srli	a2,a2,0x20
     6a0:	20c60613          	addi	a2,a2,524
     6a4:	060a                	slli	a2,a2,0x2
     6a6:	02dbaa23          	sw	a3,52(s7)
     6aa:	965e                	add	a2,a2,s7
     6ac:	c618                	sw	a4,8(a2)
     6ae:	fab70de3          	beq	a4,a1,668 <__get_clst+0xc8>
     6b2:	f356e4e3          	bltu	a3,s5,5da <__get_clst+0x3a>
     6b6:	002a9913          	slli	s2,s5,0x2
     6ba:	995e                	add	s2,s2,s7
     6bc:	6785                	lui	a5,0x1
     6be:	00f90733          	add	a4,s2,a5
     6c2:	83872583          	lw	a1,-1992(a4)
     6c6:	577d                	li	a4,-1
     6c8:	fae580e3          	beq	a1,a4,668 <__get_clst+0xc8>
     6cc:	83878793          	addi	a5,a5,-1992 # 838 <__fopen+0xe6>
     6d0:	00fb84b3          	add	s1,s7,a5
     6d4:	02bbac23          	sw	a1,56(s7)
     6d8:	03cb8413          	addi	s0,s7,60
     6dc:	4781                	li	a5,0
     6de:	c78d                	beqz	a5,708 <__get_clst+0x168>
     6e0:	c00c                	sw	a1,0(s0)
     6e2:	0411                	addi	s0,s0,4
     6e4:	fe849de3          	bne	s1,s0,6de <__get_clst+0x13e>
     6e8:	035ba823          	sw	s5,48(s7)
     6ec:	57fd                	li	a5,-1
     6ee:	02f59863          	bne	a1,a5,71e <__get_clst+0x17e>
     6f2:	6785                	lui	a5,0x1
     6f4:	993e                	add	s2,s2,a5
     6f6:	82b92e23          	sw	a1,-1988(s2)
     6fa:	1ffb7793          	andi	a5,s6,511
     6fe:	07b1                	addi	a5,a5,12 # 100c <__delay+0x18>
     700:	078a                	slli	a5,a5,0x2
     702:	97de                	add	a5,a5,s7
     704:	4788                	lw	a0,8(a5)
     706:	b795                	j	66a <__get_clst+0xca>
     708:	020bb503          	ld	a0,32(s7)
     70c:	e11ff0ef          	jal	ra,51c <__nxt_clst>
     710:	0005059b          	sext.w	a1,a0
     714:	00158793          	addi	a5,a1,1
     718:	0017b793          	seqz	a5,a5
     71c:	b7d1                	j	6e0 <__get_clst+0x140>
     71e:	020bb503          	ld	a0,32(s7)
     722:	dfbff0ef          	jal	ra,51c <__nxt_clst>
     726:	6785                	lui	a5,0x1
     728:	0005059b          	sext.w	a1,a0
     72c:	993e                	add	s2,s2,a5
     72e:	82b92e23          	sw	a1,-1988(s2)
     732:	b7e1                	j	6fa <__get_clst+0x15a>
     734:	034ba683          	lw	a3,52(s7)
     738:	2685                	addiw	a3,a3,1
     73a:	02069793          	slli	a5,a3,0x20
     73e:	9381                	srli	a5,a5,0x20
     740:	20c78793          	addi	a5,a5,524 # 120c <_DTB+0x2c>
     744:	078a                	slli	a5,a5,0x2
     746:	02dbaa23          	sw	a3,52(s7)
     74a:	97de                	add	a5,a5,s7
     74c:	0007a423          	sw	zero,8(a5)
     750:	b559                	j	5d6 <__get_clst+0x36>

0000000000000752 <__fopen>:
     752:	dc010113          	addi	sp,sp,-576
     756:	22913423          	sd	s1,552(sp)
     75a:	22113c23          	sd	ra,568(sp)
     75e:	22813823          	sd	s0,560(sp)
     762:	23213023          	sd	s2,544(sp)
     766:	21313c23          	sd	s3,536(sp)
     76a:	84aa                	mv	s1,a0
     76c:	0034                	addi	a3,sp,8
     76e:	4781                	li	a5,0
     770:	02e00893          	li	a7,46
     774:	4321                	li	t1,8
     776:	a011                	j	77a <__fopen+0x28>
     778:	85b2                	mv	a1,a2
     77a:	0005c703          	lbu	a4,0(a1)
     77e:	0017851b          	addiw	a0,a5,1
     782:	00158613          	addi	a2,a1,1
     786:	fdf77813          	andi	a6,a4,-33
     78a:	10070063          	beqz	a4,88a <__fopen+0x138>
     78e:	0f170e63          	beq	a4,a7,88a <__fopen+0x138>
     792:	03051793          	slli	a5,a0,0x30
     796:	01068023          	sb	a6,0(a3)
     79a:	93c1                	srli	a5,a5,0x30
     79c:	0685                	addi	a3,a3,1
     79e:	fc679de3          	bne	a5,t1,778 <__fopen+0x26>
     7a2:	0015c703          	lbu	a4,1(a1)
     7a6:	85b2                	mv	a1,a2
     7a8:	fd270713          	addi	a4,a4,-46
     7ac:	00173713          	seqz	a4,a4
     7b0:	95ba                	add	a1,a1,a4
     7b2:	4781                	li	a5,0
     7b4:	870a                	mv	a4,sp
     7b6:	450d                	li	a0,3
     7b8:	00f586b3          	add	a3,a1,a5
     7bc:	0006c683          	lbu	a3,0(a3)
     7c0:	fdf6f613          	andi	a2,a3,-33
     7c4:	0e068d63          	beqz	a3,8be <__fopen+0x16c>
     7c8:	00c70023          	sb	a2,0(a4)
     7cc:	0785                	addi	a5,a5,1
     7ce:	0705                	addi	a4,a4,1
     7d0:	fea794e3          	bne	a5,a0,7b8 <__fopen+0x66>
     7d4:	709c                	ld	a5,32(s1)
     7d6:	080c                	addi	a1,sp,16
     7d8:	0107d503          	lhu	a0,16(a5)
     7dc:	566000ef          	jal	ra,d42 <__sd_readblk>
     7e0:	c559                	beqz	a0,86e <__fopen+0x11c>
     7e2:	0800                	addi	s0,sp,16
     7e4:	21010993          	addi	s3,sp,528
     7e8:	0e500913          	li	s2,229
     7ec:	00044783          	lbu	a5,0(s0)
     7f0:	4621                	li	a2,8
     7f2:	002c                	addi	a1,sp,8
     7f4:	8522                	mv	a0,s0
     7f6:	07278863          	beq	a5,s2,866 <__fopen+0x114>
     7fa:	794000ef          	jal	ra,f8e <__strcmp>
     7fe:	87aa                	mv	a5,a0
     800:	2781                	sext.w	a5,a5
     802:	460d                	li	a2,3
     804:	00840513          	addi	a0,s0,8
     808:	858a                	mv	a1,sp
     80a:	efb1                	bnez	a5,866 <__fopen+0x114>
     80c:	782000ef          	jal	ra,f8e <__strcmp>
     810:	2501                	sext.w	a0,a0
     812:	e931                	bnez	a0,866 <__fopen+0x114>
     814:	85a2                	mv	a1,s0
     816:	02000613          	li	a2,32
     81a:	8526                	mv	a0,s1
     81c:	7a6000ef          	jal	ra,fc2 <__memcpy>
     820:	7098                	ld	a4,32(s1)
     822:	0144d783          	lhu	a5,20(s1)
     826:	01a4d583          	lhu	a1,26(s1)
     82a:	00e75683          	lhu	a3,14(a4)
     82e:	577d                	li	a4,-1
     830:	02071613          	slli	a2,a4,0x20
     834:	0107979b          	slliw	a5,a5,0x10
     838:	9301                	srli	a4,a4,0x20
     83a:	f898                	sd	a4,48(s1)
     83c:	23813083          	ld	ra,568(sp)
     840:	23013403          	ld	s0,560(sp)
     844:	8fcd                	or	a5,a5,a1
     846:	6705                	lui	a4,0x1
     848:	f490                	sd	a2,40(s1)
     84a:	9f95                	subw	a5,a5,a3
     84c:	94ba                	add	s1,s1,a4
     84e:	82f4ac23          	sw	a5,-1992(s1)
     852:	22013903          	ld	s2,544(sp)
     856:	22813483          	ld	s1,552(sp)
     85a:	21813983          	ld	s3,536(sp)
     85e:	4505                	li	a0,1
     860:	24010113          	addi	sp,sp,576
     864:	8082                	ret
     866:	02040413          	addi	s0,s0,32
     86a:	f93411e3          	bne	s0,s3,7ec <__fopen+0x9a>
     86e:	23813083          	ld	ra,568(sp)
     872:	23013403          	ld	s0,560(sp)
     876:	22813483          	ld	s1,552(sp)
     87a:	22013903          	ld	s2,544(sp)
     87e:	21813983          	ld	s3,536(sp)
     882:	4501                	li	a0,0
     884:	24010113          	addi	sp,sp,576
     888:	8082                	ret
     88a:	46a1                	li	a3,8
     88c:	9e9d                	subw	a3,a3,a5
     88e:	0030                	addi	a2,sp,8
     890:	16c2                	slli	a3,a3,0x30
     892:	97b2                	add	a5,a5,a2
     894:	92c1                	srli	a3,a3,0x30
     896:	02000513          	li	a0,32
     89a:	00a78023          	sb	a0,0(a5)
     89e:	fff68613          	addi	a2,a3,-1
     8a2:	4811                	li	a6,4
     8a4:	0785                	addi	a5,a5,1
     8a6:	05067663          	bgeu	a2,a6,8f2 <__fopen+0x1a0>
     8aa:	4689                	li	a3,2
     8ac:	02d67863          	bgeu	a2,a3,8dc <__fopen+0x18a>
     8b0:	ee060ce3          	beqz	a2,7a8 <__fopen+0x56>
     8b4:	02000693          	li	a3,32
     8b8:	00d78023          	sb	a3,0(a5)
     8bc:	b5f5                	j	7a8 <__fopen+0x56>
     8be:	470d                	li	a4,3
     8c0:	9f1d                	subw	a4,a4,a5
     8c2:	1742                	slli	a4,a4,0x30
     8c4:	9341                	srli	a4,a4,0x30
     8c6:	4689                	li	a3,2
     8c8:	978a                	add	a5,a5,sp
     8ca:	04d77363          	bgeu	a4,a3,910 <__fopen+0x1be>
     8ce:	f00703e3          	beqz	a4,7d4 <__fopen+0x82>
     8d2:	02000713          	li	a4,32
     8d6:	00e78023          	sb	a4,0(a5)
     8da:	bded                	j	7d4 <__fopen+0x82>
     8dc:	02000693          	li	a3,32
     8e0:	00d78023          	sb	a3,0(a5)
     8e4:	00d780a3          	sb	a3,1(a5)
     8e8:	1679                	addi	a2,a2,-2
     8ea:	0789                	addi	a5,a5,2
     8ec:	ea060ee3          	beqz	a2,7a8 <__fopen+0x56>
     8f0:	b7d1                	j	8b4 <__fopen+0x162>
     8f2:	00a78023          	sb	a0,0(a5)
     8f6:	00a780a3          	sb	a0,1(a5)
     8fa:	00a78123          	sb	a0,2(a5)
     8fe:	00a781a3          	sb	a0,3(a5)
     902:	ffb68613          	addi	a2,a3,-5
     906:	4689                	li	a3,2
     908:	0791                	addi	a5,a5,4
     90a:	fad663e3          	bltu	a2,a3,8b0 <__fopen+0x15e>
     90e:	b7f9                	j	8dc <__fopen+0x18a>
     910:	02000693          	li	a3,32
     914:	00d78023          	sb	a3,0(a5)
     918:	00d780a3          	sb	a3,1(a5)
     91c:	1779                	addi	a4,a4,-2 # ffe <__delay+0xa>
     91e:	0789                	addi	a5,a5,2
     920:	ea070ae3          	beqz	a4,7d4 <__fopen+0x82>
     924:	b77d                	j	8d2 <__fopen+0x180>

0000000000000926 <__fseek>:
     926:	4705                	li	a4,1
     928:	87aa                	mv	a5,a0
     92a:	00e60863          	beq	a2,a4,93a <__fseek+0x14>
     92e:	4709                	li	a4,2
     930:	00e60a63          	beq	a2,a4,944 <__fseek+0x1e>
     934:	4501                	li	a0,0
     936:	c601                	beqz	a2,93e <__fseek+0x18>
     938:	8082                	ret
     93a:	5518                	lw	a4,40(a0)
     93c:	9db9                	addw	a1,a1,a4
     93e:	d78c                	sw	a1,40(a5)
     940:	4505                	li	a0,1
     942:	8082                	ret
     944:	4d58                	lw	a4,28(a0)
     946:	4505                	li	a0,1
     948:	9db9                	addw	a1,a1,a4
     94a:	d78c                	sw	a1,40(a5)
     94c:	8082                	ret

000000000000094e <__fread>:
     94e:	551c                	lw	a5,40(a0)
     950:	14060063          	beqz	a2,a90 <__fread+0x142>
     954:	711d                	addi	sp,sp,-96
     956:	fc4e                	sd	s3,56(sp)
     958:	6985                	lui	s3,0x1
     95a:	03898993          	addi	s3,s3,56 # 1038 <__dec2hex+0xa>
     95e:	e8a2                	sd	s0,80(sp)
     960:	e4a6                	sd	s1,72(sp)
     962:	e0ca                	sd	s2,64(sp)
     964:	f852                	sd	s4,48(sp)
     966:	f456                	sd	s5,40(sp)
     968:	ec5e                	sd	s7,24(sp)
     96a:	e466                	sd	s9,8(sp)
     96c:	ec86                	sd	ra,88(sp)
     96e:	f05a                	sd	s6,32(sp)
     970:	e862                	sd	s8,16(sp)
     972:	e06a                	sd	s10,0(sp)
     974:	842a                	mv	s0,a0
     976:	8bb2                	mv	s7,a2
     978:	892e                	mv	s2,a1
     97a:	1ff7fc93          	andi	s9,a5,511
     97e:	4481                	li	s1,0
     980:	1ff00a13          	li	s4,511
     984:	99aa                	add	s3,s3,a0
     986:	20000a93          	li	s5,512
     98a:	a889                	j	9dc <__fread+0x8e>
     98c:	060c9163          	bnez	s9,9ee <__fread+0xa0>
     990:	0ee68763          	beq	a3,a4,a7e <__fread+0x130>
     994:	7018                	ld	a4,32(s0)
     996:	8522                	mv	a0,s0
     998:	01274783          	lbu	a5,18(a4)
     99c:	01075b03          	lhu	s6,16(a4)
     9a0:	02fc55bb          	divuw	a1,s8,a5
     9a4:	02fc77bb          	remuw	a5,s8,a5
     9a8:	00fb0b3b          	addw	s6,s6,a5
     9ac:	bf5ff0ef          	jal	ra,5a0 <__get_clst>
     9b0:	701c                	ld	a5,32(s0)
     9b2:	85ca                	mv	a1,s2
     9b4:	0127c783          	lbu	a5,18(a5)
     9b8:	02a7853b          	mulw	a0,a5,a0
     9bc:	0165053b          	addw	a0,a0,s6
     9c0:	382000ef          	jal	ra,d42 <__sd_readblk>
     9c4:	c561                	beqz	a0,a8c <__fread+0x13e>
     9c6:	541c                	lw	a5,40(s0)
     9c8:	2004849b          	addiw	s1,s1,512
     9cc:	20090913          	addi	s2,s2,512
     9d0:	2007879b          	addiw	a5,a5,512
     9d4:	d41c                	sw	a5,40(s0)
     9d6:	4c81                	li	s9,0
     9d8:	0974f263          	bgeu	s1,s7,a5c <__fread+0x10e>
     9dc:	409b8b3b          	subw	s6,s7,s1
     9e0:	5458                	lw	a4,44(s0)
     9e2:	0097dc1b          	srliw	s8,a5,0x9
     9e6:	0097d69b          	srliw	a3,a5,0x9
     9ea:	fb6a61e3          	bltu	s4,s6,98c <__fread+0x3e>
     9ee:	02e68e63          	beq	a3,a4,a2a <__fread+0xdc>
     9f2:	7018                	ld	a4,32(s0)
     9f4:	8522                	mv	a0,s0
     9f6:	01274783          	lbu	a5,18(a4)
     9fa:	01075d03          	lhu	s10,16(a4)
     9fe:	02fc55bb          	divuw	a1,s8,a5
     a02:	02fc77bb          	remuw	a5,s8,a5
     a06:	00fd0d3b          	addw	s10,s10,a5
     a0a:	b97ff0ef          	jal	ra,5a0 <__get_clst>
     a0e:	701c                	ld	a5,32(s0)
     a10:	85ce                	mv	a1,s3
     a12:	0127c783          	lbu	a5,18(a5)
     a16:	02a7853b          	mulw	a0,a5,a0
     a1a:	01a5053b          	addw	a0,a0,s10
     a1e:	324000ef          	jal	ra,d42 <__sd_readblk>
     a22:	c52d                	beqz	a0,a8c <__fread+0x13e>
     a24:	541c                	lw	a5,40(s0)
     a26:	03842623          	sw	s8,44(s0)
     a2a:	1ff7f793          	andi	a5,a5,511
     a2e:	40fa87bb          	subw	a5,s5,a5
     a32:	9cbd                	addw	s1,s1,a5
     a34:	0574f363          	bgeu	s1,s7,a7a <__fread+0x12c>
     a38:	8b3e                	mv	s6,a5
     a3a:	854a                	mv	a0,s2
     a3c:	019985b3          	add	a1,s3,s9
     a40:	865a                	mv	a2,s6
     a42:	580000ef          	jal	ra,fc2 <__memcpy>
     a46:	541c                	lw	a5,40(s0)
     a48:	020b1713          	slli	a4,s6,0x20
     a4c:	9301                	srli	a4,a4,0x20
     a4e:	016787bb          	addw	a5,a5,s6
     a52:	d41c                	sw	a5,40(s0)
     a54:	993a                	add	s2,s2,a4
     a56:	4c81                	li	s9,0
     a58:	f974e2e3          	bltu	s1,s7,9dc <__fread+0x8e>
     a5c:	4505                	li	a0,1
     a5e:	60e6                	ld	ra,88(sp)
     a60:	6446                	ld	s0,80(sp)
     a62:	64a6                	ld	s1,72(sp)
     a64:	6906                	ld	s2,64(sp)
     a66:	79e2                	ld	s3,56(sp)
     a68:	7a42                	ld	s4,48(sp)
     a6a:	7aa2                	ld	s5,40(sp)
     a6c:	7b02                	ld	s6,32(sp)
     a6e:	6be2                	ld	s7,24(sp)
     a70:	6c42                	ld	s8,16(sp)
     a72:	6ca2                	ld	s9,8(sp)
     a74:	6d02                	ld	s10,0(sp)
     a76:	6125                	addi	sp,sp,96
     a78:	8082                	ret
     a7a:	84de                	mv	s1,s7
     a7c:	bf7d                	j	a3a <__fread+0xec>
     a7e:	20000613          	li	a2,512
     a82:	85ce                	mv	a1,s3
     a84:	854a                	mv	a0,s2
     a86:	53c000ef          	jal	ra,fc2 <__memcpy>
     a8a:	bf35                	j	9c6 <__fread+0x78>
     a8c:	4501                	li	a0,0
     a8e:	bfc1                	j	a5e <__fread+0x110>
     a90:	4505                	li	a0,1
     a92:	8082                	ret

0000000000000a94 <__dma_cfg>:
     a94:	00a8989b          	slliw	a7,a7,0xa
     a98:	0016969b          	slliw	a3,a3,0x1
     a9c:	0047171b          	slliw	a4,a4,0x4
     aa0:	00d8e8b3          	or	a7,a7,a3
     aa4:	00e8e8b3          	or	a7,a7,a4
     aa8:	0067979b          	slliw	a5,a5,0x6
     aac:	10002737          	lui	a4,0x10002
     ab0:	00f8e8b3          	or	a7,a7,a5
     ab4:	0088181b          	slliw	a6,a6,0x8
     ab8:	80a72023          	sw	a0,-2048(a4) # 10001800 <__stack+0xffc1800>
     abc:	0108e8b3          	or	a7,a7,a6
     ac0:	80b72223          	sw	a1,-2044(a4)
     ac4:	0018e893          	ori	a7,a7,1
     ac8:	80c72423          	sw	a2,-2040(a4)
     acc:	2881                	sext.w	a7,a7
     ace:	81172623          	sw	a7,-2036(a4)
     ad2:	8082                	ret

0000000000000ad4 <__dma_busy>:
     ad4:	100027b7          	lui	a5,0x10002
     ad8:	80c7a503          	lw	a0,-2036(a5) # 1000180c <__stack+0xffc180c>
     adc:	01f5551b          	srliw	a0,a0,0x1f
     ae0:	8082                	ret

0000000000000ae2 <__spi_init>:
     ae2:	100027b7          	lui	a5,0x10002
     ae6:	8007a823          	sw	zero,-2032(a5) # 10001810 <__stack+0xffc1810>
     aea:	4705                	li	a4,1
     aec:	80e7ac23          	sw	a4,-2024(a5)
     af0:	100017b7          	lui	a5,0x10001
     af4:	0007a023          	sw	zero,0(a5) # 10001000 <__stack+0xffc1000>
     af8:	04400793          	li	a5,68
     afc:	e501                	bnez	a0,b04 <__spi_init+0x22>
     afe:	67c1                	lui	a5,0x10
     b00:	04478793          	addi	a5,a5,68 # 10044 <__data_end+0xe26b>
     b04:	0035151b          	slliw	a0,a0,0x3
     b08:	03857513          	andi	a0,a0,56
     b0c:	8d5d                	or	a0,a0,a5
     b0e:	100017b7          	lui	a5,0x10001
     b12:	c388                	sw	a0,0(a5)
     b14:	4505                	li	a0,1
     b16:	8082                	ret

0000000000000b18 <__spi_rwbyte>:
     b18:	10001737          	lui	a4,0x10001
     b1c:	471c                	lw	a5,8(a4)
     b1e:	8b85                	andi	a5,a5,1
     b20:	dff5                	beqz	a5,b1c <__spi_rwbyte+0x4>
     b22:	2501                	sext.w	a0,a0
     b24:	c748                	sw	a0,12(a4)
     b26:	10001737          	lui	a4,0x10001
     b2a:	471c                	lw	a5,8(a4)
     b2c:	8b89                	andi	a5,a5,2
     b2e:	dff5                	beqz	a5,b2a <__spi_rwbyte+0x12>
     b30:	4748                	lw	a0,12(a4)
     b32:	0ff57513          	zext.b	a0,a0
     b36:	8082                	ret

0000000000000b38 <__sd_getresp>:
     b38:	c595                	beqz	a1,b64 <__sd_getresp+0x2c>
     b3a:	02059693          	slli	a3,a1,0x20
     b3e:	9281                	srli	a3,a3,0x20
     b40:	96aa                	add	a3,a3,a0
     b42:	10001737          	lui	a4,0x10001
     b46:	0ff00613          	li	a2,255
     b4a:	471c                	lw	a5,8(a4)
     b4c:	8b85                	andi	a5,a5,1
     b4e:	dff5                	beqz	a5,b4a <__sd_getresp+0x12>
     b50:	c750                	sw	a2,12(a4)
     b52:	471c                	lw	a5,8(a4)
     b54:	8b89                	andi	a5,a5,2
     b56:	dff5                	beqz	a5,b52 <__sd_getresp+0x1a>
     b58:	475c                	lw	a5,12(a4)
     b5a:	0505                	addi	a0,a0,1
     b5c:	fef50fa3          	sb	a5,-1(a0)
     b60:	fed515e3          	bne	a0,a3,b4a <__sd_getresp+0x12>
     b64:	4505                	li	a0,1
     b66:	8082                	ret

0000000000000b68 <__sd_sendcmd>:
     b68:	04056513          	ori	a0,a0,64
     b6c:	10001737          	lui	a4,0x10001
     b70:	471c                	lw	a5,8(a4)
     b72:	8b85                	andi	a5,a5,1
     b74:	dff5                	beqz	a5,b70 <__sd_sendcmd+0x8>
     b76:	0005079b          	sext.w	a5,a0
     b7a:	c75c                	sw	a5,12(a4)
     b7c:	10001737          	lui	a4,0x10001
     b80:	471c                	lw	a5,8(a4)
     b82:	8b89                	andi	a5,a5,2
     b84:	dff5                	beqz	a5,b80 <__sd_sendcmd+0x18>
     b86:	475c                	lw	a5,12(a4)
     b88:	0185d69b          	srliw	a3,a1,0x18
     b8c:	10001737          	lui	a4,0x10001
     b90:	471c                	lw	a5,8(a4)
     b92:	8b85                	andi	a5,a5,1
     b94:	dff5                	beqz	a5,b90 <__sd_sendcmd+0x28>
     b96:	c754                	sw	a3,12(a4)
     b98:	10001737          	lui	a4,0x10001
     b9c:	471c                	lw	a5,8(a4)
     b9e:	8b89                	andi	a5,a5,2
     ba0:	dff5                	beqz	a5,b9c <__sd_sendcmd+0x34>
     ba2:	475c                	lw	a5,12(a4)
     ba4:	0105d69b          	srliw	a3,a1,0x10
     ba8:	10001737          	lui	a4,0x10001
     bac:	471c                	lw	a5,8(a4)
     bae:	8b85                	andi	a5,a5,1
     bb0:	dff5                	beqz	a5,bac <__sd_sendcmd+0x44>
     bb2:	0ff6f793          	zext.b	a5,a3
     bb6:	c75c                	sw	a5,12(a4)
     bb8:	10001737          	lui	a4,0x10001
     bbc:	471c                	lw	a5,8(a4)
     bbe:	8b89                	andi	a5,a5,2
     bc0:	dff5                	beqz	a5,bbc <__sd_sendcmd+0x54>
     bc2:	475c                	lw	a5,12(a4)
     bc4:	0085d69b          	srliw	a3,a1,0x8
     bc8:	10001737          	lui	a4,0x10001
     bcc:	471c                	lw	a5,8(a4)
     bce:	8b85                	andi	a5,a5,1
     bd0:	dff5                	beqz	a5,bcc <__sd_sendcmd+0x64>
     bd2:	0ff6f793          	zext.b	a5,a3
     bd6:	c75c                	sw	a5,12(a4)
     bd8:	10001737          	lui	a4,0x10001
     bdc:	471c                	lw	a5,8(a4)
     bde:	8b89                	andi	a5,a5,2
     be0:	dff5                	beqz	a5,bdc <__sd_sendcmd+0x74>
     be2:	475c                	lw	a5,12(a4)
     be4:	10001737          	lui	a4,0x10001
     be8:	471c                	lw	a5,8(a4)
     bea:	8b85                	andi	a5,a5,1
     bec:	dff5                	beqz	a5,be8 <__sd_sendcmd+0x80>
     bee:	0ff5f593          	zext.b	a1,a1
     bf2:	c74c                	sw	a1,12(a4)
     bf4:	10001737          	lui	a4,0x10001
     bf8:	471c                	lw	a5,8(a4)
     bfa:	8b89                	andi	a5,a5,2
     bfc:	dff5                	beqz	a5,bf8 <__sd_sendcmd+0x90>
     bfe:	475c                	lw	a5,12(a4)
     c00:	00166613          	ori	a2,a2,1
     c04:	10001737          	lui	a4,0x10001
     c08:	471c                	lw	a5,8(a4)
     c0a:	8b85                	andi	a5,a5,1
     c0c:	dff5                	beqz	a5,c08 <_binary_tmp_size+0xf>
     c0e:	0006079b          	sext.w	a5,a2
     c12:	c75c                	sw	a5,12(a4)
     c14:	10001737          	lui	a4,0x10001
     c18:	471c                	lw	a5,8(a4)
     c1a:	8b89                	andi	a5,a5,2
     c1c:	dff5                	beqz	a5,c18 <_binary_tmp_size+0x1f>
     c1e:	475c                	lw	a5,12(a4)
     c20:	10001737          	lui	a4,0x10001
     c24:	471c                	lw	a5,8(a4)
     c26:	8b85                	andi	a5,a5,1
     c28:	dff5                	beqz	a5,c24 <_binary_tmp_size+0x2b>
     c2a:	0ff00793          	li	a5,255
     c2e:	c75c                	sw	a5,12(a4)
     c30:	10001737          	lui	a4,0x10001
     c34:	471c                	lw	a5,8(a4)
     c36:	8b89                	andi	a5,a5,2
     c38:	dff5                	beqz	a5,c34 <_binary_tmp_size+0x3b>
     c3a:	4748                	lw	a0,12(a4)
     c3c:	00857793          	andi	a5,a0,8
     c40:	0ff57513          	zext.b	a0,a0
     c44:	c79d                	beqz	a5,c72 <_binary_tmp_size+0x79>
     c46:	6685                	lui	a3,0x1
     c48:	38868693          	addi	a3,a3,904 # 1388 <_DTB+0x1a8>
     c4c:	10001737          	lui	a4,0x10001
     c50:	0ff00613          	li	a2,255
     c54:	471c                	lw	a5,8(a4)
     c56:	8b85                	andi	a5,a5,1
     c58:	dff5                	beqz	a5,c54 <_binary_tmp_size+0x5b>
     c5a:	c750                	sw	a2,12(a4)
     c5c:	471c                	lw	a5,8(a4)
     c5e:	8b89                	andi	a5,a5,2
     c60:	dff5                	beqz	a5,c5c <_binary_tmp_size+0x63>
     c62:	4748                	lw	a0,12(a4)
     c64:	00857793          	andi	a5,a0,8
     c68:	0ff57513          	zext.b	a0,a0
     c6c:	c399                	beqz	a5,c72 <_binary_tmp_size+0x79>
     c6e:	36fd                	addiw	a3,a3,-1
     c70:	f2f5                	bnez	a3,c54 <_binary_tmp_size+0x5b>
     c72:	8082                	ret

0000000000000c74 <__sd_rcvdata>:
     c74:	10001737          	lui	a4,0x10001
     c78:	435c                	lw	a5,4(a4)
     c7a:	6685                	lui	a3,0x1
     c7c:	88aa                	mv	a7,a0
     c7e:	0047e793          	ori	a5,a5,4
     c82:	c35c                	sw	a5,4(a4)
     c84:	38a68693          	addi	a3,a3,906 # 138a <_DTB+0x1aa>
     c88:	0ff00593          	li	a1,255
     c8c:	0fe00813          	li	a6,254
     c90:	471c                	lw	a5,8(a4)
     c92:	8b85                	andi	a5,a5,1
     c94:	dff5                	beqz	a5,c90 <__sd_rcvdata+0x1c>
     c96:	c74c                	sw	a1,12(a4)
     c98:	471c                	lw	a5,8(a4)
     c9a:	8b89                	andi	a5,a5,2
     c9c:	dff5                	beqz	a5,c98 <__sd_rcvdata+0x24>
     c9e:	4748                	lw	a0,12(a4)
     ca0:	36fd                	addiw	a3,a3,-1
     ca2:	0ff57513          	zext.b	a0,a0
     ca6:	cab5                	beqz	a3,d1a <__sd_rcvdata+0xa6>
     ca8:	ff0514e3          	bne	a0,a6,c90 <__sd_rcvdata+0x1c>
     cac:	100027b7          	lui	a5,0x10002
     cb0:	577d                	li	a4,-1
     cb2:	80e7a023          	sw	a4,-2048(a5) # 10001800 <__stack+0xffc1800>
     cb6:	0008851b          	sext.w	a0,a7
     cba:	80a7a223          	sw	a0,-2044(a5)
     cbe:	20000713          	li	a4,512
     cc2:	80e7a423          	sw	a4,-2040(a5)
     cc6:	6705                	lui	a4,0x1
     cc8:	a6170713          	addi	a4,a4,-1439 # a61 <__fread+0x113>
     ccc:	80e7a623          	sw	a4,-2036(a5)
     cd0:	10002737          	lui	a4,0x10002
     cd4:	80c72783          	lw	a5,-2036(a4) # 1000180c <__stack+0xffc180c>
     cd8:	01f7d79b          	srliw	a5,a5,0x1f
     cdc:	ffe5                	bnez	a5,cd4 <__sd_rcvdata+0x60>
     cde:	10001737          	lui	a4,0x10001
     ce2:	471c                	lw	a5,8(a4)
     ce4:	8b85                	andi	a5,a5,1
     ce6:	dff5                	beqz	a5,ce2 <__sd_rcvdata+0x6e>
     ce8:	0ff00793          	li	a5,255
     cec:	c75c                	sw	a5,12(a4)
     cee:	10001737          	lui	a4,0x10001
     cf2:	471c                	lw	a5,8(a4)
     cf4:	8b89                	andi	a5,a5,2
     cf6:	dff5                	beqz	a5,cf2 <__sd_rcvdata+0x7e>
     cf8:	475c                	lw	a5,12(a4)
     cfa:	10001737          	lui	a4,0x10001
     cfe:	471c                	lw	a5,8(a4)
     d00:	8b85                	andi	a5,a5,1
     d02:	dff5                	beqz	a5,cfe <__sd_rcvdata+0x8a>
     d04:	0ff00793          	li	a5,255
     d08:	c75c                	sw	a5,12(a4)
     d0a:	10001737          	lui	a4,0x10001
     d0e:	471c                	lw	a5,8(a4)
     d10:	8b89                	andi	a5,a5,2
     d12:	dff5                	beqz	a5,d0e <__sd_rcvdata+0x9a>
     d14:	475c                	lw	a5,12(a4)
     d16:	e219                	bnez	a2,d1c <__sd_rcvdata+0xa8>
     d18:	4505                	li	a0,1
     d1a:	8082                	ret
     d1c:	435c                	lw	a5,4(a4)
     d1e:	100016b7          	lui	a3,0x10001
     d22:	9bed                	andi	a5,a5,-5
     d24:	c35c                	sw	a5,4(a4)
     d26:	469c                	lw	a5,8(a3)
     d28:	8b85                	andi	a5,a5,1
     d2a:	dff5                	beqz	a5,d26 <__sd_rcvdata+0xb2>
     d2c:	0ff00793          	li	a5,255
     d30:	c6dc                	sw	a5,12(a3)
     d32:	10001737          	lui	a4,0x10001
     d36:	471c                	lw	a5,8(a4)
     d38:	8b89                	andi	a5,a5,2
     d3a:	dff5                	beqz	a5,d36 <__sd_rcvdata+0xc2>
     d3c:	475c                	lw	a5,12(a4)
     d3e:	4505                	li	a0,1
     d40:	bfe9                	j	d1a <__sd_rcvdata+0xa6>

0000000000000d42 <__sd_readblk>:
     d42:	100016b7          	lui	a3,0x10001
     d46:	42dc                	lw	a5,4(a3)
     d48:	1141                	addi	sp,sp,-16
     d4a:	e022                	sd	s0,0(sp)
     d4c:	e406                	sd	ra,8(sp)
     d4e:	0047e793          	ori	a5,a5,4
     d52:	842e                	mv	s0,a1
     d54:	c2dc                	sw	a5,4(a3)
     d56:	85aa                	mv	a1,a0
     d58:	4601                	li	a2,0
     d5a:	4545                	li	a0,17
     d5c:	e0dff0ef          	jal	ra,b68 <__sd_sendcmd>
     d60:	c511                	beqz	a0,d6c <__sd_readblk+0x2a>
     d62:	60a2                	ld	ra,8(sp)
     d64:	6402                	ld	s0,0(sp)
     d66:	4501                	li	a0,0
     d68:	0141                	addi	sp,sp,16
     d6a:	8082                	ret
     d6c:	8522                	mv	a0,s0
     d6e:	6402                	ld	s0,0(sp)
     d70:	60a2                	ld	ra,8(sp)
     d72:	4605                	li	a2,1
     d74:	20000593          	li	a1,512
     d78:	0141                	addi	sp,sp,16
     d7a:	bded                	j	c74 <__sd_rcvdata>

0000000000000d7c <__sd_init>:
     d7c:	7139                	addi	sp,sp,-64
     d7e:	f822                	sd	s0,48(sp)
     d80:	f426                	sd	s1,40(sp)
     d82:	fc06                	sd	ra,56(sp)
     d84:	f04a                	sd	s2,32(sp)
     d86:	ec4e                	sd	s3,24(sp)
     d88:	100027b7          	lui	a5,0x10002
     d8c:	8007a823          	sw	zero,-2032(a5) # 10001810 <__stack+0xffc1810>
     d90:	4705                	li	a4,1
     d92:	80e7ac23          	sw	a4,-2024(a5)
     d96:	100014b7          	lui	s1,0x10001
     d9a:	07c00793          	li	a5,124
     d9e:	0004a023          	sw	zero,0(s1) # 10001000 <__stack+0xffc1000>
     da2:	c09c                	sw	a5,0(s1)
     da4:	842a                	mv	s0,a0
     da6:	4505                	li	a0,1
     da8:	24c000ef          	jal	ra,ff4 <__delay>
     dac:	40dc                	lw	a5,4(s1)
     dae:	46a9                	li	a3,10
     db0:	10001737          	lui	a4,0x10001
     db4:	9bed                	andi	a5,a5,-5
     db6:	c0dc                	sw	a5,4(s1)
     db8:	0ff00613          	li	a2,255
     dbc:	471c                	lw	a5,8(a4)
     dbe:	8b85                	andi	a5,a5,1
     dc0:	dff5                	beqz	a5,dbc <__sd_init+0x40>
     dc2:	c750                	sw	a2,12(a4)
     dc4:	471c                	lw	a5,8(a4)
     dc6:	8b89                	andi	a5,a5,2
     dc8:	dff5                	beqz	a5,dc4 <__sd_init+0x48>
     dca:	36fd                	addiw	a3,a3,-1 # 10000fff <__stack+0xffc0fff>
     dcc:	475c                	lw	a5,12(a4)
     dce:	0ff6f693          	zext.b	a3,a3
     dd2:	f6ed                	bnez	a3,dbc <__sd_init+0x40>
     dd4:	435c                	lw	a5,4(a4)
     dd6:	3ea00493          	li	s1,1002
     dda:	4905                	li	s2,1
     ddc:	0047e793          	ori	a5,a5,4
     de0:	c35c                	sw	a5,4(a4)
     de2:	09500613          	li	a2,149
     de6:	4581                	li	a1,0
     de8:	4501                	li	a0,0
     dea:	34fd                	addiw	s1,s1,-1
     dec:	d7dff0ef          	jal	ra,b68 <__sd_sendcmd>
     df0:	c8c9                	beqz	s1,e82 <__sd_init+0x106>
     df2:	ff2518e3          	bne	a0,s2,de2 <__sd_init+0x66>
     df6:	08700613          	li	a2,135
     dfa:	1aa00593          	li	a1,426
     dfe:	4521                	li	a0,8
     e00:	d69ff0ef          	jal	ra,b68 <__sd_sendcmd>
     e04:	4795                	li	a5,5
     e06:	04f50863          	beq	a0,a5,e56 <__sd_init+0xda>
     e0a:	09250463          	beq	a0,s2,e92 <__sd_init+0x116>
     e0e:	100027b7          	lui	a5,0x10002
     e12:	8007a823          	sw	zero,-2032(a5) # 10001810 <__stack+0xffc1810>
     e16:	4705                	li	a4,1
     e18:	80e7ac23          	sw	a4,-2024(a5)
     e1c:	100017b7          	lui	a5,0x10001
     e20:	0007a023          	sw	zero,0(a5) # 10001000 <__stack+0xffc1000>
     e24:	05400713          	li	a4,84
     e28:	09500613          	li	a2,149
     e2c:	4581                	li	a1,0
     e2e:	c398                	sw	a4,0(a5)
     e30:	03b00513          	li	a0,59
     e34:	d35ff0ef          	jal	ra,b68 <__sd_sendcmd>
     e38:	09500613          	li	a2,149
     e3c:	20000593          	li	a1,512
     e40:	4541                	li	a0,16
     e42:	d27ff0ef          	jal	ra,b68 <__sd_sendcmd>
     e46:	70e2                	ld	ra,56(sp)
     e48:	7442                	ld	s0,48(sp)
     e4a:	74a2                	ld	s1,40(sp)
     e4c:	7902                	ld	s2,32(sp)
     e4e:	69e2                	ld	s3,24(sp)
     e50:	4509                	li	a0,2
     e52:	6121                	addi	sp,sp,64
     e54:	8082                	ret
     e56:	0034                	addi	a3,sp,8
     e58:	006c                	addi	a1,sp,12
     e5a:	10001737          	lui	a4,0x10001
     e5e:	0ff00613          	li	a2,255
     e62:	471c                	lw	a5,8(a4)
     e64:	8b85                	andi	a5,a5,1
     e66:	dff5                	beqz	a5,e62 <__sd_init+0xe6>
     e68:	c750                	sw	a2,12(a4)
     e6a:	471c                	lw	a5,8(a4)
     e6c:	8b89                	andi	a5,a5,2
     e6e:	dff5                	beqz	a5,e6a <__sd_init+0xee>
     e70:	475c                	lw	a5,12(a4)
     e72:	0685                	addi	a3,a3,1
     e74:	fef68fa3          	sb	a5,-1(a3)
     e78:	fed595e3          	bne	a1,a3,e62 <__sd_init+0xe6>
     e7c:	00040023          	sb	zero,0(s0)
     e80:	b779                	j	e0e <__sd_init+0x92>
     e82:	70e2                	ld	ra,56(sp)
     e84:	7442                	ld	s0,48(sp)
     e86:	74a2                	ld	s1,40(sp)
     e88:	7902                	ld	s2,32(sp)
     e8a:	69e2                	ld	s3,24(sp)
     e8c:	4505                	li	a0,1
     e8e:	6121                	addi	sp,sp,64
     e90:	8082                	ret
     e92:	0024                	addi	s1,sp,8
     e94:	00c10913          	addi	s2,sp,12
     e98:	86a6                	mv	a3,s1
     e9a:	10001737          	lui	a4,0x10001
     e9e:	0ff00613          	li	a2,255
     ea2:	471c                	lw	a5,8(a4)
     ea4:	8b85                	andi	a5,a5,1
     ea6:	dff5                	beqz	a5,ea2 <__sd_init+0x126>
     ea8:	c750                	sw	a2,12(a4)
     eaa:	471c                	lw	a5,8(a4)
     eac:	8b89                	andi	a5,a5,2
     eae:	dff5                	beqz	a5,eaa <__sd_init+0x12e>
     eb0:	475c                	lw	a5,12(a4)
     eb2:	0685                	addi	a3,a3,1
     eb4:	fef68fa3          	sb	a5,-1(a3)
     eb8:	ff2695e3          	bne	a3,s2,ea2 <__sd_init+0x126>
     ebc:	3e900993          	li	s3,1001
     ec0:	4601                	li	a2,0
     ec2:	4581                	li	a1,0
     ec4:	03700513          	li	a0,55
     ec8:	ca1ff0ef          	jal	ra,b68 <__sd_sendcmd>
     ecc:	4601                	li	a2,0
     ece:	400005b7          	lui	a1,0x40000
     ed2:	02900513          	li	a0,41
     ed6:	39fd                	addiw	s3,s3,-1
     ed8:	c91ff0ef          	jal	ra,b68 <__sd_sendcmd>
     edc:	00098363          	beqz	s3,ee2 <__sd_init+0x166>
     ee0:	f165                	bnez	a0,ec0 <__sd_init+0x144>
     ee2:	3e900993          	li	s3,1001
     ee6:	4601                	li	a2,0
     ee8:	4581                	li	a1,0
     eea:	03a00513          	li	a0,58
     eee:	39fd                	addiw	s3,s3,-1
     ef0:	c79ff0ef          	jal	ra,b68 <__sd_sendcmd>
     ef4:	00098363          	beqz	s3,efa <__sd_init+0x17e>
     ef8:	f57d                	bnez	a0,ee6 <__sd_init+0x16a>
     efa:	10001737          	lui	a4,0x10001
     efe:	0ff00693          	li	a3,255
     f02:	471c                	lw	a5,8(a4)
     f04:	8b85                	andi	a5,a5,1
     f06:	dff5                	beqz	a5,f02 <__sd_init+0x186>
     f08:	c754                	sw	a3,12(a4)
     f0a:	471c                	lw	a5,8(a4)
     f0c:	8b89                	andi	a5,a5,2
     f0e:	dff5                	beqz	a5,f0a <__sd_init+0x18e>
     f10:	475c                	lw	a5,12(a4)
     f12:	0485                	addi	s1,s1,1
     f14:	fef48fa3          	sb	a5,-1(s1)
     f18:	ff2495e3          	bne	s1,s2,f02 <__sd_init+0x186>
     f1c:	00814783          	lbu	a5,8(sp)
     f20:	0407f793          	andi	a5,a5,64
     f24:	00f037b3          	snez	a5,a5
     f28:	0789                	addi	a5,a5,2
     f2a:	00f40023          	sb	a5,0(s0)
     f2e:	b5c5                	j	e0e <__sd_init+0x92>

0000000000000f30 <__uart_init>:
     f30:	100007b7          	lui	a5,0x10000
     f34:	4705                	li	a4,1
     f36:	c798                	sw	a4,8(a5)
     f38:	c7d8                	sw	a4,12(a5)
     f3a:	0007a823          	sw	zero,16(a5) # 10000010 <__stack+0xffc0010>
     f3e:	10000737          	lui	a4,0x10000
     f42:	435c                	lw	a5,4(a4)
     f44:	fef04fe3          	bgtz	a5,f42 <__uart_init+0x12>
     f48:	8082                	ret

0000000000000f4a <__putch>:
     f4a:	10000737          	lui	a4,0x10000
     f4e:	40a727af          	amoor.w	a5,a0,(a4)
     f52:	2781                	sext.w	a5,a5
     f54:	fe07cde3          	bltz	a5,f4e <__putch+0x4>
     f58:	8082                	ret

0000000000000f5a <__puts>:
     f5a:	00054683          	lbu	a3,0(a0)
     f5e:	862a                	mv	a2,a0
     f60:	4501                	li	a0,0
     f62:	ce89                	beqz	a3,f7c <__puts+0x22>
     f64:	10000737          	lui	a4,0x10000
     f68:	0605                	addi	a2,a2,1
     f6a:	40d727af          	amoor.w	a5,a3,(a4)
     f6e:	2781                	sext.w	a5,a5
     f70:	fe07cde3          	bltz	a5,f6a <__puts+0x10>
     f74:	00064683          	lbu	a3,0(a2)
     f78:	2505                	addiw	a0,a0,1
     f7a:	f6fd                	bnez	a3,f68 <__puts+0xe>
     f7c:	10000737          	lui	a4,0x10000
     f80:	46a9                	li	a3,10
     f82:	40d727af          	amoor.w	a5,a3,(a4)
     f86:	2781                	sext.w	a5,a5
     f88:	fe07cde3          	bltz	a5,f82 <__puts+0x28>
     f8c:	8082                	ret

0000000000000f8e <__strcmp>:
     f8e:	fff6069b          	addiw	a3,a2,-1
     f92:	c605                	beqz	a2,fba <__strcmp+0x2c>
     f94:	1682                	slli	a3,a3,0x20
     f96:	9281                	srli	a3,a3,0x20
     f98:	0685                	addi	a3,a3,1
     f9a:	96aa                	add	a3,a3,a0
     f9c:	a029                	j	fa6 <__strcmp+0x18>
     f9e:	02e7e063          	bltu	a5,a4,fbe <__strcmp+0x30>
     fa2:	00d50c63          	beq	a0,a3,fba <__strcmp+0x2c>
     fa6:	00054703          	lbu	a4,0(a0)
     faa:	0005c783          	lbu	a5,0(a1) # 40000000 <__stack+0x3ffc0000>
     fae:	0505                	addi	a0,a0,1
     fb0:	0585                	addi	a1,a1,1
     fb2:	fef776e3          	bgeu	a4,a5,f9e <__strcmp+0x10>
     fb6:	557d                	li	a0,-1
     fb8:	8082                	ret
     fba:	4501                	li	a0,0
     fbc:	8082                	ret
     fbe:	4505                	li	a0,1
     fc0:	8082                	ret

0000000000000fc2 <__memcpy>:
     fc2:	1141                	addi	sp,sp,-16
     fc4:	832e                	mv	t1,a1
     fc6:	e022                	sd	s0,0(sp)
     fc8:	0005059b          	sext.w	a1,a0
     fcc:	842a                	mv	s0,a0
     fce:	4889                	li	a7,2
     fd0:	4809                	li	a6,2
     fd2:	4785                	li	a5,1
     fd4:	4705                	li	a4,1
     fd6:	4685                	li	a3,1
     fd8:	0003051b          	sext.w	a0,t1
     fdc:	e406                	sd	ra,8(sp)
     fde:	ab7ff0ef          	jal	ra,a94 <__dma_cfg>
     fe2:	af3ff0ef          	jal	ra,ad4 <__dma_busy>
     fe6:	2501                	sext.w	a0,a0
     fe8:	fd6d                	bnez	a0,fe2 <__memcpy+0x20>
     fea:	60a2                	ld	ra,8(sp)
     fec:	8522                	mv	a0,s0
     fee:	6402                	ld	s0,0(sp)
     ff0:	0141                	addi	sp,sp,16
     ff2:	8082                	ret

0000000000000ff4 <__delay>:
     ff4:	000f47b7          	lui	a5,0xf4
     ff8:	2407879b          	addiw	a5,a5,576 # f4240 <__stack+0xb4240>
     ffc:	02a787bb          	mulw	a5,a5,a0
    1000:	3e800613          	li	a2,1000
    1004:	0800c737          	lui	a4,0x800c
    1008:	ff873683          	ld	a3,-8(a4) # 800bff8 <__stack+0x7fcbff8>
    100c:	08000713          	li	a4,128
    1010:	02c7d7bb          	divuw	a5,a5,a2
    1014:	1782                	slli	a5,a5,0x20
    1016:	9381                	srli	a5,a5,0x20
    1018:	97b6                	add	a5,a5,a3
    101a:	080046b7          	lui	a3,0x8004
    101e:	e29c                	sd	a5,0(a3)
    1020:	30472073          	csrs	mie,a4
    1024:	10500073          	wfi
    1028:	30473073          	csrc	mie,a4
    102c:	8082                	ret

000000000000102e <__dec2hex>:
    102e:	00850713          	addi	a4,a0,8
    1032:	01c5d79b          	srliw	a5,a1,0x1c
    1036:	0505                	addi	a0,a0,1
    1038:	0307879b          	addiw	a5,a5,48
    103c:	fef50fa3          	sb	a5,-1(a0)
    1040:	0045959b          	slliw	a1,a1,0x4
    1044:	fee517e3          	bne	a0,a4,1032 <__dec2hex+0x4>
    1048:	8082                	ret

000000000000104a <main>:
    104a:	b4010113          	addi	sp,sp,-1216
    104e:	4a813823          	sd	s0,1200(sp)
    1052:	49413823          	sd	s4,1168(sp)
    1056:	00001797          	auipc	a5,0x1
    105a:	d8a78793          	addi	a5,a5,-630 # 1de0 <__data_end+0x7>
    105e:	6a05                	lui	s4,0x1
    1060:	747d                	lui	s0,0xfffff
    1062:	72fd                	lui	t0,0xfffff
    1064:	6390                	ld	a2,0(a5)
    1066:	6794                	ld	a3,8(a5)
    1068:	4b213023          	sd	s2,1184(sp)
    106c:	4b98                	lw	a4,16(a5)
    106e:	ba840913          	addi	s2,s0,-1112 # ffffffffffffeba8 <__stack+0xfffffffffffbeba8>
    1072:	0147c783          	lbu	a5,20(a5)
    1076:	490a0593          	addi	a1,s4,1168 # 1490 <_DTB+0x2b0>
    107a:	4a113c23          	sd	ra,1208(sp)
    107e:	4a913423          	sd	s1,1192(sp)
    1082:	49313c23          	sd	s3,1176(sp)
    1086:	95ca                	add	a1,a1,s2
    1088:	9116                	add	sp,sp,t0
    108a:	00258933          	add	s2,a1,sp
    108e:	e832                	sd	a2,16(sp)
    1090:	ec36                	sd	a3,24(sp)
    1092:	d03a                	sw	a4,32(sp)
    1094:	02f10223          	sb	a5,36(sp)
    1098:	577d                	li	a4,-1
    109a:	27213c23          	sd	s2,632(sp)
    109e:	0c0017b7          	lui	a5,0xc001
    10a2:	020102a3          	sb	zero,37(sp)
    10a6:	02010323          	sb	zero,38(sp)
    10aa:	020103a3          	sb	zero,39(sp)
    10ae:	02010423          	sb	zero,40(sp)
    10b2:	020104a3          	sb	zero,41(sp)
    10b6:	02010523          	sb	zero,42(sp)
    10ba:	020105a3          	sb	zero,43(sp)
    10be:	02010623          	sb	zero,44(sp)
    10c2:	020106a3          	sb	zero,45(sp)
    10c6:	02010723          	sb	zero,46(sp)
    10ca:	020107a3          	sb	zero,47(sp)
    10ce:	02010823          	sb	zero,48(sp)
    10d2:	020108a3          	sb	zero,49(sp)
    10d6:	02010923          	sb	zero,50(sp)
    10da:	020109a3          	sb	zero,51(sp)
    10de:	08e7a023          	sw	a4,128(a5) # c001080 <__stack+0xbfc1080>
    10e2:	e4fff0ef          	jal	ra,f30 <__uart_init>
    10e6:	00001517          	auipc	a0,0x1
    10ea:	d5250513          	addi	a0,a0,-686 # 1e38 <__data_end+0x5f>
    10ee:	e6dff0ef          	jal	ra,f5a <__puts>
    10f2:	040009b7          	lui	s3,0x4000
    10f6:	b8040493          	addi	s1,s0,-1152
    10fa:	490a0793          	addi	a5,s4,1168
    10fe:	97a6                	add	a5,a5,s1
    1100:	0189a583          	lw	a1,24(s3) # 4000018 <__stack+0x3fc0018>
    1104:	002784b3          	add	s1,a5,sp
    1108:	01348513          	addi	a0,s1,19
    110c:	f23ff0ef          	jal	ra,102e <__dec2hex>
    1110:	01c9a583          	lw	a1,28(s3)
    1114:	01b48513          	addi	a0,s1,27
    1118:	f17ff0ef          	jal	ra,102e <__dec2hex>
    111c:	8526                	mv	a0,s1
    111e:	020109a3          	sb	zero,51(sp)
    1122:	e39ff0ef          	jal	ra,f5a <__puts>
    1126:	00001517          	auipc	a0,0x1
    112a:	d2a50513          	addi	a0,a0,-726 # 1e50 <__data_end+0x77>
    112e:	e2dff0ef          	jal	ra,f5a <__puts>
    1132:	b7f40513          	addi	a0,s0,-1153
    1136:	490a0793          	addi	a5,s4,1168
    113a:	97aa                	add	a5,a5,a0
    113c:	00278533          	add	a0,a5,sp
    1140:	c3dff0ef          	jal	ra,d7c <__sd_init>
    1144:	00001517          	auipc	a0,0x1
    1148:	d2450513          	addi	a0,a0,-732 # 1e68 <__data_end+0x8f>
    114c:	e0fff0ef          	jal	ra,f5a <__puts>
    1150:	854a                	mv	a0,s2
    1152:	948ff0ef          	jal	ra,29a <__fat_bpb_init>
    1156:	00001517          	auipc	a0,0x1
    115a:	d2a50513          	addi	a0,a0,-726 # 1e80 <__data_end+0xa7>
    115e:	dfdff0ef          	jal	ra,f5a <__puts>
    1162:	dc840413          	addi	s0,s0,-568
    1166:	490a0793          	addi	a5,s4,1168
    116a:	97a2                	add	a5,a5,s0
    116c:	00278433          	add	s0,a5,sp
    1170:	00001597          	auipc	a1,0x1
    1174:	d2858593          	addi	a1,a1,-728 # 1e98 <__data_end+0xbf>
    1178:	8522                	mv	a0,s0
    117a:	dd8ff0ef          	jal	ra,752 <__fopen>
    117e:	8522                	mv	a0,s0
    1180:	916ff0ef          	jal	ra,296 <__elf_loader>
    1184:	00001517          	auipc	a0,0x1
    1188:	d2450513          	addi	a0,a0,-732 # 1ea8 <__data_end+0xcf>
    118c:	dcfff0ef          	jal	ra,f5a <__puts>
    1190:	00001597          	auipc	a1,0x1
    1194:	d3058593          	addi	a1,a1,-720 # 1ec0 <__data_end+0xe7>
    1198:	8522                	mv	a0,s0
    119a:	db8ff0ef          	jal	ra,752 <__fopen>
    119e:	40100593          	li	a1,1025
    11a2:	05d6                	slli	a1,a1,0x15
    11a4:	8522                	mv	a0,s0
    11a6:	fc3fe0ef          	jal	ra,168 <__elf_loader_reloc>
    11aa:	00001517          	auipc	a0,0x1
    11ae:	d1e50513          	addi	a0,a0,-738 # 1ec8 <__data_end+0xef>
    11b2:	da9ff0ef          	jal	ra,f5a <__puts>
    11b6:	6285                	lui	t0,0x1
    11b8:	9116                	add	sp,sp,t0
    11ba:	4b813083          	ld	ra,1208(sp)
    11be:	4b013403          	ld	s0,1200(sp)
    11c2:	4a813483          	ld	s1,1192(sp)
    11c6:	4a013903          	ld	s2,1184(sp)
    11ca:	49813983          	ld	s3,1176(sp)
    11ce:	49013a03          	ld	s4,1168(sp)
    11d2:	4501                	li	a0,0
    11d4:	4c010113          	addi	sp,sp,1216
    11d8:	8082                	ret
