
main:     file format elf64-littleriscv
main
architecture: riscv:rv64, flags 0x00000112:
EXEC_P, HAS_SYMS, D_PAGED
start address 0x0000000000000000

Program Header:
0x70000003 off    0x0000000000002f15 vaddr 0x0000000000000000 paddr 0x0000000000000000 align 2**0
         filesz 0x000000000000002f memsz 0x0000000000000000 flags r--
    LOAD off    0x0000000000001000 vaddr 0x0000000000000000 paddr 0x0000000000000000 align 2**12
         filesz 0x0000000000001efa memsz 0x0000000000001efa flags rwx
    LOAD off    0x0000000000000000 vaddr 0x0000000000020000 paddr 0x0000000000020000 align 2**12
         filesz 0x0000000000000000 memsz 0x0000000000020000 flags rw-

Sections:
Idx Name          Size      VMA               LMA               File off  Algn
  0 .text         000011f4  0000000000000000  0000000000000000  00001000  2**3
                  CONTENTS, ALLOC, LOAD, READONLY, CODE
  1 .data         00000be5  00000000000011f8  00000000000011f8  000021f8  2**3
                  CONTENTS, ALLOC, LOAD, DATA
  2 .rodata       00000024  0000000000001de0  0000000000001de0  00002de0  2**3
                  CONTENTS, ALLOC, LOAD, READONLY, DATA
  3 .rodata.str1.8 000000f2  0000000000001e08  0000000000001e08  00002e08  2**3
                  CONTENTS, ALLOC, LOAD, READONLY, DATA
  4 .stack        00020000  0000000000020000  0000000000020000  00003000  2**0
                  ALLOC
  5 .comment      0000001b  0000000000000000  0000000000000000  00002efa  2**0
                  CONTENTS, READONLY
  6 .riscv.attributes 0000002f  0000000000000000  0000000000000000  00002f15  2**0
                  CONTENTS, READONLY
SYMBOL TABLE:
0000000000000000 l    d  .text	0000000000000000 .text
00000000000011f8 l    d  .data	0000000000000000 .data
0000000000001de0 l    d  .rodata	0000000000000000 .rodata
0000000000001e08 l    d  .rodata.str1.8	0000000000000000 .rodata.str1.8
0000000000020000 l    d  .stack	0000000000000000 .stack
0000000000000000 l    d  .comment	0000000000000000 .comment
0000000000000000 l    d  .riscv.attributes	0000000000000000 .riscv.attributes
0000000000000000 l    df *ABS*	0000000000000000 setup.o
000000000000003e l       .text	0000000000000000 fill_stack
0000000000000136 l       .text	0000000000000000 fill_block
0000000000000054 l       .text	0000000000000000 init_stack
000000000000005c l       .text	0000000000000000 init_system
00000000000000c2 l       .text	0000000000000000 rv64
0000000000000148 l       .text	0000000000000000 sysram_base
0000000000000150 l       .text	0000000000000000 sysram_size
0000000000000158 l       .text	0000000000000000 ddr_base
0000000000000160 l       .text	0000000000000000 ddr_size
0000000000000122 l       .text	0000000000000000 goto_main
0000000000000134 l       .text	0000000000000000 dead_loop
0000000000000140 l       .text	0000000000000000 fb_end
0000000000000000 l    df *ABS*	0000000000000000 main.c
0000000000000000 l    df *ABS*	0000000000000000 elf_loader.c
0000000000000000 l    df *ABS*	0000000000000000 iolib.c
0000000000000000 l    df *ABS*	0000000000000000 spi.c
0000000000000000 l    df *ABS*	0000000000000000 uart.c
0000000000000000 l    df *ABS*	0000000000000000 util.c
0000000000000f58 g     F .text	0000000000000034 .hidden __puts
0000000000000be5 g       *ABS*	0000000000000000 _binary_tmp_size
0000000000000ad2 g     F .text	000000000000000e .hidden __dma_busy
0000000000000ae0 g     F .text	0000000000000036 .hidden __spi_init
00000000000011f8 g       *ABS*	0000000000000000 __data_paddr_start
0000000000000ff2 g     F .text	000000000000003a .hidden __delay
0000000000000000 g       .text	0000000000000000 __text_start
000000000000094c g     F .text	0000000000000146 .hidden __fread
0000000000000d7a g     F .text	00000000000001b4 .hidden __sd_init
00000000000005a0 g     F .text	00000000000001b2 .hidden __get_clst
000000000000102c g     F .text	000000000000001c .hidden __dec2hex
0000000000000d40 g     F .text	000000000000003a .hidden __sd_readblk
0000000000000f8c g     F .text	0000000000000034 .hidden __strcmp
000000000000051c g     F .text	0000000000000084 .hidden __nxt_clst
0000000000000000 g       .text	0000000000000000 _start
0000000000000296 g     F .text	0000000000000004 .hidden __elf_loader
00000000000011f8 g       .data	0000000000000000 _binary_tmp_start
000000000000029a g     F .text	0000000000000282 .hidden __fat_bpb_init
00000000000011f8 g       .data	0000000000000000 _DTB
0000000000001ddd g       .data	0000000000000000 __data_end
0000000000000168 g     F .text	000000000000012e .hidden __elf_loader_reloc
0000000000000a92 g     F .text	0000000000000040 .hidden __dma_cfg
0000000000000b66 g     F .text	000000000000010c .hidden __sd_sendcmd
0000000000000fc0 g     F .text	0000000000000032 .hidden __memcpy
00000000000011f4 g       .text	0000000000000000 __text_end
0000000000001048 g     F .text	00000000000001ac .hidden main
0000000000000f2e g     F .text	000000000000001a .hidden __uart_init
000000000003f000 g       .stack	0000000000000000 _stack_end
0000000000000f48 g     F .text	0000000000000010 .hidden __putch
0000000000000b16 g     F .text	0000000000000020 .hidden __spi_rwbyte
0000000000040000 g       .stack	0000000000000000 __stack
0000000000001ddd g       .data	0000000000000000 _binary_tmp_end
0000000000000752 g     F .text	00000000000001d2 .hidden __fopen
0000000000000c72 g     F .text	00000000000000ce .hidden __sd_rcvdata
0000000000040000 g       .stack	0000000000000000 _stack
00000000000011f8 g       .data	0000000000000000 __data_start
0000000000000b36 g     F .text	0000000000000030 .hidden __sd_getresp
0000000000000924 g     F .text	0000000000000028 .hidden __fseek


Contents of section .text:
 0000 81400141 81410142 81420143 81430144  .@.A.A.B.B.C.C.D
 0010 81440145 81450146 81460147 81470148  .D.E.E.F.F.G.G.H
 0020 81480149 8149014a 814a014b 814b014c  .H.I.I.J.J.K.K.L
 0030 814c014d 814d014e 814e014f 814f17f5  .L.M.M.N.N.O.O..
 0040 03001305 25fc9705 04009385 65fb0146  ....%.......e..F
 0050 ef00600e 17010400 1301c1fa f3221030  ..`..........".0
 0060 63c10206 b7021a00 7390323c 97020000  c.......s.2<....
 0070 83a2c20d 17030000 0323c30d 7d131353  .........#..}..S
 0080 1300b3e2 620093d2 22007390 e23db702  ....b...".s..=..
 0090 001a73a0 323c9702 000083a2 220c1703  ..s.2<......"...
 00a0 00000323 230c7d13 13531300 b3e26200  ...##.}..S....b.
 00b0 93d22200 7390f23d 17040000 03240409  ..".s..=.....$..
 00c0 8da09b02 d000c612 7390223c 97020000  ........s."<....
 00d0 83b2c207 17030000 0333c307 7d131353  .........3..}..S
 00e0 1300b3e2 620093d2 22007390 e23d9b02  ....b...".s..=..
 00f0 d000e612 73a0223c 97020000 83b20206  ....s."<........
 0100 17030000 03330306 7d131353 1300b3e2  .....3..}..S....
 0110 620093d2 22007390 f23d1704 00000334  b...".s..=.....4
 0120 e402ef00 70727325 40f19715 00009385  ....prs%@.......
 0130 e50c0284 01a063e5 a50010c1 1105e5bf  ......c.........
 0140 82800100 13000000 00000200 00000000  ................
 0150 00000200 00000000 00000080 00000000  ................
 0160 00000080 00000000 130101db 23382123  ............#8!#
 0170 01462e89 81452334 11242330 4123233c  .F...E#4.$#0A##<
 0180 51212a8a 23308124 233c9122 23343123  Q!*.#0.$#<."#41#
 0190 23386121 23347121 ef00c078 13060004  #8a!#4q!...x....
 01a0 8a855285 ef00807a 835a8103 638b0a0a  ..R....z.Z..c...
 01b0 014ba14b 8969bb87 6a4163ea fb0c1b94  .K.K.i..jAc.....
 01c0 3a003b04 54411b14 34008275 9b173b00  :.;.TA..4..u..;.
 01d0 bb876741 9b973700 bd9d0146 52859394  ..gA..7....FR...
 01e0 3a00ef00 2074b384 54412286 8c005285  :... t..TA"...R.
 01f0 8e048000 ef008075 a29429a0 13048403  .......u..).....
 0200 638b8404 1c6cca97 e3ea37ff 0c440146  c....l....7..D.F
 0210 5285ef00 20710c6c 10505285 ca95ef00  R... q.l.PR.....
 0220 e0721070 0874e37b a6fc0c6c 89480948  .r.p.t.{...l.H.H
 0230 b2958547 3b06c540 09478546 bb852501  ...G;..@.G.F..%.
 0240 0145ef00 1005ef00 d0080125 6dfd1304  .E.........%m...
 0250 8403e399 84fa3b8b 6a01835a 8103e36c  ......;.j..Z...l
 0260 5bf58330 81240334 01246265 83348123  [..0.$.4.$be.4.#
 0270 03390123 83398122 033a0122 833a8121  .9.#.9.".:.".:.!
 0280 033b0121 833b8120 13010125 82801304  .;.!.;. ...%....
 0290 001ca14a 1dbf8145 c1bd1301 01dd2330  ...J...E......#0
 02a0 81228a85 2a840145 23341122 233c9120  ."..*..E#4."#<. 
 02b0 23382121 23343121 ef009028 01c90359  #8!!#41!...(...Y
 02c0 e11fad67 938757a5 6300f902 83308122  ...g..W.c....0."
 02d0 03340122 83348121 03390121 83398120  .4.".4.!.9.!.9. 
 02e0 01451301 01238280 21469725 00009385  .E...#..!F.%....
 02f0 e5b11305 6103ef00 70499b04 0500cde8  ....a...pI......
 0300 8347c100 0347b100 8345d100 a207d98f  .G...G...E......
 0310 0d47230a e4002310 f4008149 03586101  .G#...#....I.Xa.
 0320 03450101 0356e100 83462101 3b070503  .E...V...F!.;...
 0330 3b063601 83471101 42164192 a206dd8e  ;.6..G..B.A.....
 0340 9bd74600 2309b400 23110401 319f4217  ..F.#...#...1.B.
 0350 4193b99f c217a309 a4002312 c4002313  A.........#...#.
 0360 e4002316 d400c193 82562318 f4002317  ..#......V#...#.
 0370 e40099e6 83464101 03473101 a206d98e  .....FA..G1.....
 0380 bb87f440 b59fbbd7 b7027d57 83308122  ...@......}W.0."
 0390 231ce420 83348121 03390121 83398120  #.. .4.!.9.!.9. 
 03a0 05458927 1cc40334 01221301 01238280  .E.'...4."...#..
 03b0 21469725 00009385 65a61305 6103ef00  !F.%....e...a...
 03c0 f03c9b04 050085e0 8347c100 0347b100  .<.......G...G..
 03d0 8345d100 a207d98f 1147230a e4002310  .E.......G#...#.
 03e0 f4008149 25bf2146 97250000 938505a4  ...I%.!F.%......
 03f0 13052105 ef009039 9b040500 bde08347  ..!....9.......G
 0400 c1000347 b1008345 d100a207 d98f1547  ...G...E.......G
 0410 230ae400 2310f400 81490358 41020345  #...#....I.XA..E
 0420 01018356 e1000346 2101bb07 0503bb86  ...V...F!.......
 0430 3601c216 03471101 c1922206 598e2309  6....G....".Y.#.
 0440 b4000357 c1022311 0401b59f c217c193  ...W..#.........
 0450 a309a400 2312d400 2313f400 2316c400  ....#...#...#...
 0460 21b78359 611c8a85 9b840900 2685ef00  !..Ya.......&...
 0470 300de30d 05e48357 e11fe399 27e52146  0......W....'.!F
 0480 97250000 93858598 13056103 ef001030  .%........a....0
 0490 9b070500 99ef8347 c1000347 b1008345  .......G...G...E
 04a0 d100a207 d98f0d47 230ae400 2310f400  .......G#...#...
 04b0 b5b52146 97250000 93854596 13056103  ..!F.%....E...a.
 04c0 ef00d02c 9b070500 99ef8347 c1000347  ...,.......G...G
 04d0 b1008345 d100a207 d98f1147 230ae400  ...E.......G#...
 04e0 2310f400 25bd2146 97250000 93850594  #...%.!F.%......
 04f0 13052105 ef009029 9b070500 e39807dc  ..!....)........
 0500 8347c100 0347b100 8345d100 a207d98f  .G...G...E......
 0510 1547230a e4002310 f40001b7 011122e8  .G#...#.......".
 0520 0354e500 83568521 26e42d9c 06ec9b57  .T...V.!&.-....W
 0530 7400aa84 6395f602 1374f407 11040a04  t...c....t......
 0540 26940844 b7070010 fd176305 f50483d7  &..D......c.....
 0550 e4001d9d e2604264 a2640561 82800355  .....`Bd.d.a...U
 0560 45001b57 74004217 4193239c f4209385  E..Wt.B.A.#.. ..
 0570 8401399d ef00c07c aa870145 e1df1374  ..9....|...E...t
 0580 f4071104 0a042694 0844b707 0010fd17  ......&..D......
 0590 e31ff5fa e2604264 a2647d55 05618280  .....`Bd.d}U.a..
 05a0 5d7162e0 416c56ec 7d1c9bda 95001c59  ]qb.AlV.}......Y
 05b0 b3fa8a01 5ae85ee4 86e4a2e0 26fc4af8  ....Z.^.....&.J.
 05c0 4ef452f0 812aaa8b 2e8b6388 57135459  N.R..*....c.W.TY
 05d0 b7090010 fd1963f0 560f9397 06028193  ......c.V.......
 05e0 9387c720 8a07de97 98471309 00207d5a  ... .....G... }Z
 05f0 83b40b02 03d4e400 83d68421 93858401  ...........!....
 0600 399c1b55 74009b57 74003375 ac00638a  9..Ut..Wt.3u..c.
 0610 f60003d7 4400239c f420399d ef004072  ....D.#.. 9...@r
 0620 2dc11374 f4071104 0a042694 1c447d39  -..t......&..D}9
 0630 42191359 0903638a 370103d7 e4003b87  B..Y..c.7.....;.
 0640 e7406308 0904e315 47fb03a7 4b030527  .@c.....G...K..'
 0650 93170702 81939387 c7208a07 23aaeb02  ......... ..#...
 0660 be9bfd57 23a4fb00 7d55a660 0664e274  ...W#...}U.`.d.t
 0670 4279a279 027ae26a 426ba26b 026c6161  By.y.z.jBk.k.laa
 0680 82807d39 42191359 09036305 090a0147  ..}9B..Y..c....G
 0690 85b783a6 4b03fd55 85261396 06020192  ....K..U.&......
 06a0 1306c620 0a0623aa db025e96 18c6e30d  ... ..#...^.....
 06b0 b7fae3e4 56f31399 2a005e99 85673307  ....V...*.^..g3.
 06c0 f9008325 87837d57 e380e5fa 93878783  ...%..}W........
 06d0 b384fb00 23acbb02 1384cb03 81478dc7  ....#........G..
 06e0 0cc01104 e39d84fe 23a85b03 fd576398  ........#.[..Wc.
 06f0 f5028567 3e99232e b9829377 fb1fb107  ...g>.#....w....
 0700 8a07de97 884795b7 03b50b02 eff01fe1  .....G..........
 0710 9b050500 93871500 93b71700 d1b703b5  ................
 0720 0b02eff0 bfdf8567 9b050500 3e99232e  .......g....>.#.
 0730 b982e1b7 83a64b03 85269397 06028193  ......K..&......
 0740 9387c720 8a0723aa db02de97 23a40700  ... ..#.....#...
 0750 59b51301 01dc2334 9122233c 11222338  Y.....#4."#<."#8
 0760 81222330 2123233c 31212338 4121aa84  ."#0!##<1!#8A!..
 0770 34008147 9308e002 214311a0 b28503c7  4..G....!C......
 0780 05001b85 17001386 15001378 f7fd630d  ...........x..c.
 0790 070e630b 170f9317 05032380 0601c193  ..c.......#.....
 07a0 8506e39d 67fc03c7 1500b285 130727fd  ....g.........'.
 07b0 13371700 ba958147 0a870d45 b386f500  .7.....G...E....
 07c0 83c60600 13f6f6fd 638a060e 2300c700  ........c...#...
 07d0 85070507 e394a7fe 014a9c70 0c0803d5  .........J.p....
 07e0 07013b05 4501ef00 a05549cd 00089309  ..;.E....UI.....
 07f0 01211309 500e8347 04002146 2c002285  .!..P..G..!F,.".
 0800 638a2707 ef008078 aa878127 0d461305  c.'....x...'.F..
 0810 84008a85 a5e3ef00 60770125 21ed1306  ........`w.%!...
 0820 0002a285 2685ef00 a0799870 83d74401  ....&....y.p..D.
 0830 83d5a401 8356e700 7d571316 07029b97  .....V..}W......
 0840 07010193 98f8cd8f 056790f4 959fba94  .........g......
 0850 23acf482 05458330 81230334 01238334  #....E.0.#.4.#.4
 0860 81220339 01228339 8121033a 01211301  .".9.".9.!.:.!..
 0870 01248280 13040402 e31f34f7 052a9147  .$........4..*.G
 0880 e31dfaf4 0145c1bf a1469d9e 3000c216  .....E...F..0...
 0890 b297c192 13050002 2380a700 1386f6ff  ........#.......
 08a0 11488507 63760605 89466378 d602e30f  .H..cv...Fcx....
 08b0 06ee9306 00022380 d700cdbd 0d471d9f  ......#......G..
 08c0 42174193 89468a97 6373d704 e30607f0  B.A..F..cs......
 08d0 13070002 2380e700 01b79306 00022380  ....#.........#.
 08e0 d700a380 d7007916 8907e301 06ecd1b7  ......y.........
 08f0 2380a700 a380a700 2381a700 a381a700  #.......#.......
 0900 1386b6ff 89469107 e363d6fa f9b79306  .....F...c......
 0910 00022380 d700a380 d7007917 8907e30d  ..#.......y.....
 0920 07ea7db7 0547aa87 6308e600 0947630a  ..}..G..c....Gc.
 0930 e6000145 01c68280 1855b99d 8cd70545  ...E.....U.....E
 0940 8280584d 0545b99d 8cd78280 1c556300  ..XM.E.......Uc.
 0950 06141d71 4efc8569 93898903 a2e8a6e4  ...qN..i........
 0960 cae052f8 56f45eec 66e486ec 5af062e8  ..R.V.^.f...Z.b.
 0970 6ae02a84 b28b2e89 93fcf71f 8144130a  j.*..........D..
 0980 f01faa99 930a0020 89a86391 0c066387  ....... ..c...c.
 0990 e60e1870 22858347 2701035b 0701bb55  ...p"..G'..[...U
 09a0 fc02bb77 fc023b0b fb00eff0 7fbf1c70  ...w..;........p
 09b0 ca8583c7 27013b85 a7023b05 6501ef00  ....'.;...;.e...
 09c0 203861c5 1c549b84 04201309 09209b87   8a..T... ... ..
 09d0 07201cd4 814c63f2 74093b8b 9b405854  . ...Lc.t.;..@XT
 09e0 1bdc9700 9bd69700 e3616afb 638ee602  .........aj.c...
 09f0 18702285 83472701 035d0701 bb55fc02  .p"..G'..]...U..
 0a00 bb77fc02 3b0dfd00 eff09fb9 1c70ce85  .w..;........p..
 0a10 83c72701 3b85a702 3b05a501 ef004032  ..'.;...;.....@2
 0a20 2dc51c54 23268403 93f7f71f bb87fa40  -..T#&.........@
 0a30 bd9c63f3 74053e8b 4a85b385 99015a86  ..c.t.>.J.....Z.
 0a40 ef000058 1c541317 0b020193 bb876701  ...X.T........g.
 0a50 1cd43a99 814ce3e2 74f90545 e6604664  ..:..L..t..E.`Fd
 0a60 a6640669 e279427a a27a027b e26b426c  .d.i.yBz.z.{.kBl
 0a70 a26c026d 25618280 de847dbf 13060020  .l.m%a....}.... 
 0a80 ce854a85 ef00c053 35bf0145 c1bf0545  ..J....S5..E...E
 0a90 82809b98 a8009b96 16001b17 4700b3e8  ............G...
 0aa0 d800b3e8 e8009b97 67003727 0010b3e8  ........g.7'....
 0ab0 f8001b18 88002320 a780b3e8 08012322  ......# ......#"
 0ac0 b78093e8 18002324 c7808128 23261781  ......#$...(#&..
 0ad0 8280b727 001003a5 c7801b55 f5018280  ...'.......U....
 0ae0 b7270010 23a80780 054723ac e780b717  .'..#....G#.....
 0af0 001023a0 07009307 400401e5 c1679387  ..#.....@....g..
 0b00 47041b15 35001375 85035d8d b7170010  G...5..u..].....
 0b10 88c30545 82803717 00101c47 858bf5df  ...E..7....G....
 0b20 012548c7 37170010 1c47898b f5df4847  .%H.7....G....HG
 0b30 1375f50f 828095c5 93960502 8192aa96  .u..............
 0b40 37170010 1306f00f 1c47858b f5df50c7  7........G....P.
 0b50 1c47898b f5df5c47 0505a30f f5fee315  .G....\G........
 0b60 d5fe0545 82801365 05043717 00101c47  ...E...e..7....G
 0b70 858bf5df 9b070500 5cc73717 00101c47  ........\.7....G
 0b80 898bf5df 5c479bd6 85013717 00101c47  ....\G....7....G
 0b90 858bf5df 54c73717 00101c47 898bf5df  ....T.7....G....
 0ba0 5c479bd6 05013717 00101c47 858bf5df  \G....7....G....
 0bb0 93f7f60f 5cc73717 00101c47 898bf5df  ....\.7....G....
 0bc0 5c479bd6 85003717 00101c47 858bf5df  \G....7....G....
 0bd0 93f7f60f 5cc73717 00101c47 898bf5df  ....\.7....G....
 0be0 5c473717 00101c47 858bf5df 93f5f50f  \G7....G........
 0bf0 4cc73717 00101c47 898bf5df 5c471366  L.7....G....\G.f
 0c00 16003717 00101c47 858bf5df 9b070600  ..7....G........
 0c10 5cc73717 00101c47 898bf5df 5c473717  \.7....G....\G7.
 0c20 00101c47 858bf5df 9307f00f 5cc73717  ...G........\.7.
 0c30 00101c47 898bf5df 48479377 85001375  ...G....HG.w...u
 0c40 f50f9dc7 85669386 86383717 00101306  .....f...87.....
 0c50 f00f1c47 858bf5df 50c71c47 898bf5df  ...G....P..G....
 0c60 48479377 85001375 f50f99c3 fd36f5f2  HG.w...u.....6..
 0c70 82803717 00105c43 8566aa88 93e74700  ..7...\C.f....G.
 0c80 5cc39386 a6389305 f00f1308 e00f1c47  \....8.........G
 0c90 858bf5df 4cc71c47 898bf5df 4847fd36  ....L..G....HG.6
 0ca0 1375f50f b5cae314 05ffb727 00107d57  .u.........'..}W
 0cb0 23a0e780 1b850800 23a2a780 13070020  #.......#...... 
 0cc0 23a4e780 05671307 17a623a6 e7803727  #....g....#...7'
 0cd0 00108327 c7809bd7 f701e5ff 37170010  ...'........7...
 0ce0 1c47858b f5df9307 f00f5cc7 37170010  .G........\.7...
 0cf0 1c47898b f5df5c47 37170010 1c47858b  .G....\G7....G..
 0d00 f5df9307 f00f5cc7 37170010 1c47898b  ......\.7....G..
 0d10 f5df5c47 19e20545 82805c43 b7160010  ..\G...E..\C....
 0d20 ed9b5cc3 9c46858b f5df9307 f00fdcc6  ..\..F..........
 0d30 37170010 1c47898b f5df5c47 0545e9bf  7....G....\G.E..
 0d40 b7160010 dc424111 22e006e4 93e74700  .....BA.".....G.
 0d50 2e84dcc2 aa850146 4545eff0 dfe011c5  .......FEE......
 0d60 a2600264 01454101 82802285 0264a260  .`.d.EA..."..d.`
 0d70 05469305 00204101 edbd3971 22f826f4  .F... A...9q".&.
 0d80 06fc4af0 4eecb727 001023a8 07800547  ..J.N..'..#....G
 0d90 23ace780 b7140010 9307c007 23a00400  #...........#...
 0da0 9cc02a84 0545ef00 c024dc40 a9463717  ..*..E...$.@.F7.
 0db0 0010ed9b dcc01306 f00f1c47 858bf5df  ...........G....
 0dc0 50c71c47 898bf5df fd365c47 93f6f60f  P..G.....6\G....
 0dd0 edf65c43 9304a03e 054993e7 47005cc3  ..\C...>.I..G.\.
 0de0 13065009 81450145 fd34eff0 dfd7c9c8  ..P..E.E.4......
 0df0 e31825ff 13067008 9305a01a 2145eff0  ..%...p.....!E..
 0e00 9fd69547 6308f504 63042509 b7270010  ...Gc...c.%..'..
 0e10 23a80780 054723ac e780b717 001023a0  #....G#.......#.
 0e20 07001307 40051306 50098145 98c31305  ....@...P..E....
 0e30 b003eff0 5fd31306 50099305 00204145  ...._...P.... AE
 0e40 eff07fd2 e2704274 a2740279 e2690945  .....pBt.t.y.i.E
 0e50 21618280 34006c00 37170010 1306f00f  !a..4.l.7.......
 0e60 1c47858b f5df50c7 1c47898b f5df5c47  .G....P..G....\G
 0e70 8506a38f f6fee395 d5fe2300 040079b7  ..........#...y.
 0e80 e2704274 a2740279 e2690545 21618280  .pBt.t.y.i.E!a..
 0e90 24001309 c100a686 37170010 1306f00f  $.......7.......
 0ea0 1c47858b f5df50c7 1c47898b f5df5c47  .G....P..G....\G
 0eb0 8506a38f f6fee395 26ff9309 903e0146  ........&....>.F
 0ec0 81451305 7003eff0 1fca0146 b7050040  .E..p......F...@
 0ed0 13059002 fd39eff0 1fc96383 090065f1  .....9....c...e.
 0ee0 9309903e 01468145 1305a003 fd39eff0  ...>.F.E.....9..
 0ef0 9fc76383 09007df5 37170010 9306f00f  ..c...}.7.......
 0f00 1c47858b f5df54c7 1c47898b f5df5c47  .G....T..G....\G
 0f10 8504a38f f4fee395 24ff8347 810093f7  ........$..G....
 0f20 0704b337 f0008907 2300f400 c5b5b707  ...7....#.......
 0f30 00100547 98c7d8c7 23a80700 37070010  ...G....#...7...
 0f40 5c43e34f f0fe8280 37070010 af27a740  \C.O....7....'.@
 0f50 8127e3cd 07fe8280 83460500 2a860145  .'.......F..*..E
 0f60 89ce3707 00100506 af27d740 8127e3cd  ..7......'.@.'..
 0f70 07fe8346 06000525 fdf63707 0010a946  ...F...%..7....F
 0f80 af27d740 8127e3cd 07fe8280 9b06f6ff  .'.@.'..........
 0f90 05c68216 81928506 aa9629a0 63e0e702  ..........).c...
 0fa0 630cd500 03470500 83c70500 05058505  c....G..........
 0fb0 e376f7fe 7d558280 01458280 05458280  .v..}U...E...E..
 0fc0 41112e83 22e09b05 05002a84 89480948  A...".....*..H.H
 0fd0 85470547 85461b05 030006e4 eff07fab  .G.G.F..........
 0fe0 eff03faf 01256dfd a2602285 02644101  ..?..%m..`"..dA.
 0ff0 8280b747 0f009b87 0724bb87 a7021306  ...G.....$......
 1000 803e37c7 00088336 87ff1307 0008bbd7  .>7....6........
 1010 c7028217 8193b697 b7460008 9ce27320  .........F....s 
 1020 47307300 50107330 47308280 13078500  G0s.P.s0G0......
 1030 9bd7c501 05059b87 0703a30f f5fe9b95  ................
 1040 4500e317 e5fe8280 130101b4 2338814a  E...........#8.J
 1050 23384149 97170000 9387c7d8 7d74056a  #8AI........}t.j
 1060 90639467 fd72984b 2330214b 83c74701  .c.g.r.K#0!K..G.
 1070 130984ba 93050a49 233c114a 2334914a  .......I#<.J#4.J
 1080 233c3149 ca951691 33892500 32e836ec  #<1I....3.%.2.6.
 1090 3ad02302 f1027d57 b717000c a3020102  :.#...}W........
 10a0 23030102 a3030102 23040102 a3040102  #.......#.......
 10b0 23050102 a3050102 23060102 a3060102  #.......#.......
 10c0 23070102 a3070102 23080102 a3080102  #.......#.......
 10d0 23090102 a3090102 233c2127 23a0e708  #.......#<!'#...
 10e0 eff0ffe4 17150000 130545d5 eff0dfe6  ..........E.....
 10f0 b7090004 930404b8 93070a49 a69783a5  ...........I....
 1100 8901b384 27001385 3401eff0 3ff283a5  ....'...4...?...
 1110 c9011385 b401eff0 7ff12685 a3090102  ..........&.....
 1120 eff09fe3 17150000 1305c5d2 eff0dfe2  ................
 1130 1305f4b7 93070a49 aa973385 2700eff0  .......I..3.'...
 1140 dfc31715 00001305 65d2eff0 ffe04a85  ........e.....J.
 1150 eff0af94 17150000 1305c5d2 eff0dfdf  ................
 1160 130484dc 93070a49 a2973384 27009715  .......I..3.'...
 1170 00009385 25d22285 eff0afdd 2285eff0  ....%."....."...
 1180 8f9183a7 0901a1ef 17150000 130505d1  ................
 1190 eff09fdc 97150000 9385c5d1 2285eff0  ............"...
 11a0 4fdb9305 1040d605 2285efe0 fffb1715  O....@..".......
 11b0 00001305 25d3eff0 3fda8562 16918330  ....%...?..b...0
 11c0 814b0334 014b8334 814a0339 014a8339  .K.4.K.4.J.9.J.9
 11d0 8149033a 01490145 1301014c 82801715  .I.:.I.E...L....
 11e0 00001305 a5cdeff0 3fd79715 00009385  ........?.......
 11f0 65ce6db7                             e.m.            
Contents of section .data:
 11f8 d00dfeed 00000be5 00000038 00000990  ...........8....
 1208 00000028 00000011 00000010 00000000  ...(............
 1218 00000255 00000958 00000000 00000000  ...U...X........
 1228 00000000 00000000 00000001 00000000  ................
 1238 00000003 00000008 00000000 79745f72  ............yt_r
 1248 76363400 00000003 0000000f 00000006  v64.............
 1258 7975746f 6e670079 745f7276 36340000  yutong.yt_rv64..
 1268 00000003 00000004 00000011 00000002  ................
 1278 00000003 00000004 00000020 00000002  ........... ....
 1288 00000001 72746363 6c6b0000 00000003  ....rtcclk......
 1298 0000000c 00000006 66697865 642d636c  ........fixed-cl
 12a8 6f636b00 00000003 00000004 0000002c  ock............,
 12b8 00000001 00000003 00000004 00000039  ...............9
 12c8 000f4240 00000003 00000007 00000049  ..B@...........I
 12d8 72746363 6c6b0000 00000003 00000004  rtcclk..........
 12e8 0000005c 00000005 00000002 00000001  ...\............
 12f8 63707573 00000000 00000003 00000004  cpus............
 1308 00000064 00000001 00000003 00000004  ...d............
 1318 00000011 00000001 00000003 00000004  ................
 1328 00000020 00000000 00000003 00000004  ... ............
 1338 00000072 000f4240 00000001 63707540  ...r..B@....cpu@
 1348 30000000 00000003 00000004 00000085  0...............
 1358 63707500 00000003 00000004 00000091  cpu.............
 1368 00000000 00000003 00000005 00000095  ................
 1378 6f6b6179 00000000 00000003 00000006  okay............
 1388 00000006 72697363 76000000 00000003  ....riscv.......
 1398 00000004 0000009c 00000010 00000003  ................
 13a8 00000004 000000af 00000040 00000003  ...........@....
 13b8 00000004 000000bc 00000400 00000003  ................
 13c8 00000004 000000c9 00000020 00000003  ........... ....
 13d8 00000004 000000d4 00000080 00000003  ................
 13e8 00000004 000000df 00000010 00000003  ................
 13f8 00000004 000000f2 00000040 00000003  ...........@....
 1408 00000004 000000ff 00000400 00000003  ................
 1418 00000004 0000010c 00000020 00000003  ........... ....
 1428 00000004 00000117 00000080 00000003  ................
 1438 0000000b 00000122 72763634 696d6163  ......."rv64imac
 1448 66640000 00000003 0000000b 0000012c  fd.............,
 1458 72697363 762c7376 34380000 00000003  riscv,sv48......
 1468 00000004 00000135 00000010 00000003  .......5........
 1478 00000004 00000146 00000004 00000003  .......F........
 1488 00000004 00000039 01f78a40 00000003  .......9...@....
 1498 00000000 0000015b 00000003 00000004  .......[........
 14a8 0000005c 00000002 00000001 696e7465  ...\........inte
 14b8 72727570 742d636f 6e74726f 6c6c6572  rrupt-controller
 14c8 00000000 00000003 00000004 0000016a  ...............j
 14d8 00000001 00000003 00000000 0000017b  ...............{
 14e8 00000003 0000000f 00000006 72697363  ............risc
 14f8 762c6370 752d696e 74630000 00000003  v,cpu-intc......
 1508 00000004 0000005c 00000004 00000002  .......\........
 1518 00000002 00000001 6370752d 6d617000  ........cpu-map.
 1528 00000001 636c7573 74657230 00000000  ....cluster0....
 1538 00000001 636f7265 30000000 00000003  ....core0.......
 1548 00000004 00000166 00000002 00000002  .......f........
 1558 00000002 00000002 00000002 00000001  ................
 1568 626f6f74 726f6d40 30000000 00000003  bootrom@0.......
 1578 00000008 00000085 626f6f74 726f6d00  ........bootrom.
 1588 00000003 00000010 00000091 00000000  ................
 1598 00000000 00000000 00002000 00000002  .......... .....
 15a8 00000001 73797372 616d4031 30303030  ....sysram@10000
 15b8 00000000 00000003 00000007 00000085  ................
 15c8 6d656d6f 72790000 00000003 00000010  memory..........
 15d8 00000091 00000000 00020000 00000000  ................
 15e8 00020000 00000002 00000001 64647240  ............ddr@
 15f8 38303030 30303030 00000000 00000003  80000000........
 1608 00000007 00000085 6d656d6f 72790000  ........memory..
 1618 00000003 00000010 00000091 00000000  ................
 1628 80000000 00000000 20000000 00000002  ........ .......
 1638 00000001 70657269 40343030 30303030  ....peri@4000000
 1648 00000000 00000003 0000000b 00000006  ................
 1658 73696d70 6c652d62 75730000 00000003  simple-bus......
 1668 00000004 00000011 00000001 00000003  ................
 1678 00000004 00000020 00000001 00000003  ....... ........
 1688 00000000 00000190 00000001 63666772  ............cfgr
 1698 65674034 30303030 30300000 00000003  eg@4000000......
 16a8 0000000d 00000006 72697363 762c6366  ........riscv,cf
 16b8 67726567 00000000 00000003 00000008  greg............
 16c8 00000091 04000000 00001000 00000002  ................
 16d8 00000001 6462676d 6f6e4034 30303230  ....dbgmon@40020
 16e8 30300000 00000003 00000004 00000197  00..............
 16f8 00000004 00000003 00000004 000001a2  ................
 1708 00000003 00000003 0000000d 00000006  ................
 1718 72697363 762c6462 676d6f6e 00000000  riscv,dbgmon....
 1728 00000003 00000008 00000091 04002000  .............. .
 1738 00002000 00000002 00000001 636c696e  .. .........clin
 1748 74403830 30303030 30000000 00000003  t@8000000.......
 1758 0000000d 00000006 72697363 762c636c  ........riscv,cl
 1768 696e7430 00000000 00000003 00000008  int0............
 1778 00000091 08000000 00010000 00000003  ................
 1788 00000010 000001b3 00000004 00000007  ................
 1798 00000004 00000003 00000002 00000001  ................
 17a8 696e7465 72727570 742d636f 6e74726f  interrupt-contro
 17b8 6c6c6572 40633030 30303030 00000000  ller@c000000....
 17c8 00000003 00000004 0000016a 00000001  ...........j....
 17d8 00000003 00000000 0000017b 00000003  ...........{....
 17e8 0000000c 00000006 72697363 762c706c  ........riscv,pl
 17f8 69633000 00000003 00000004 000001c7  ic0.............
 1808 00000020 00000003 00000008 00000091  ... ............
 1818 0c000000 04000000 00000003 00000010  ................
 1828 000001b3 00000004 0000000b 00000004  ................
 1838 00000009 00000003 00000004 0000005c  ...............\
 1848 00000003 00000002 00000001 75617274  ............uart
 1858 40313030 30303030 30000000 00000003  @10000000.......
 1868 00000004 00000197 00000001 00000003  ................
 1878 00000004 000001a2 00000003 00000003  ................
 1888 0000000d 00000006 73696669 76652c75  ........sifive,u
 1898 61727430 00000000 00000003 00000008  art0............
 18a8 000001d2 00000005 00000000 00000003  ................
 18b8 00000008 00000091 10000000 00001000  ................
 18c8 00000002 00000001 73706940 31303030  ........spi@1000
 18d8 31303030 00000000 00000003 00000004  1000............
 18e8 00000197 00000002 00000003 00000004  ................
 18f8 000001a2 00000003 00000003 0000000b  ................
 1908 00000006 72697363 762c7370 69300000  ....riscv,spi0..
 1918 00000003 00000008 00000091 10001000  ................
 1928 00001000 00000003 00000004 00000011  ................
 1938 00000001 00000003 00000004 00000020  ............... 
 1948 00000000 00000003 00000005 00000095  ................
 1958 6f6b6179 00000000 00000001 73706964  okay........spid
 1968 65764030 00000000 00000003 0000000e  ev@0............
 1978 00000006 726f686d 2c646832 32323866  ....rohm,dh2228f
 1988 76000000 00000003 00000004 00000091  v...............
 1998 00000000 00000003 00000004 000001d9  ................
 19a8 000f4240 00000003 00000008 000001eb  ..B@............
 19b8 00000ce4 00000ce4 00000003 00000000  ................
 19c8 000001fa 00000002 00000001 6d6d6340  ............mmc@
 19d8 31000000 00000003 0000000d 00000006  1...............
 19e8 6d6d632d 7370692d 736c6f74 00000000  mmc-spi-slot....
 19f8 00000003 00000004 00000091 00000001  ................
 1a08 00000003 00000004 000001d9 000f4240  ..............B@
 1a18 00000003 00000008 000001eb 00000ce4  ................
 1a28 00000ce4 00000003 00000000 000001fa  ................
 1a38 00000002 00000002 00000001 65746840  ............eth@
 1a48 31303030 32303030 00000000 00000003  10002000........
 1a58 00000004 00000197 00000003 00000003  ................
 1a68 00000004 000001a2 00000003 00000003  ................
 1a78 0000000b 00000006 72697363 762c6574  ........riscv,et
 1a88 68300000 00000003 00000008 00000091  h0..............
 1a98 10002000 00001000 00000002 00000002  .. .............
 1aa8 00000001 63686f73 656e0000 00000003  ....chosen......
 1ab8 00000008 00000205 00000000 80200000  ............. ..
 1ac8 00000003 00000008 00000218 00000000  ................
 1ad8 87000000 00000003 00000030 00000229  ...........0...)
 1ae8 726f6f74 3d2f6465 762f6d6d 63626c6b  root=/dev/mmcblk
 1af8 30703220 72772063 6f6e736f 6c653d74  0p2 rw console=t
 1b08 74795349 46302072 6f6f7477 61697400  tySIF0 rootwait.
 1b18 00000003 0000000f 00000232 75617274  ...........2uart
 1b28 30403130 30303130 30300000 00000003  0@10001000......
 1b38 00000004 0000023e 00000600 00000002  .......>........
 1b48 00000001 616c6961 73657300 00000003  ....aliases.....
 1b58 0000001c 0000024d 2f706572 69403430  .......M/peri@40
 1b68 30303030 302f7561 72744031 30303030  00000/uart@10000
 1b78 30303000 00000002 00000002 00000009  000.............
 1b88 6d6f6465 6c00636f 6d706174 69626c65  model.compatible
 1b98 00236164 64726573 732d6365 6c6c7300  .#address-cells.
 1ba8 2373697a 652d6365 6c6c7300 23636c6f  #size-cells.#clo
 1bb8 636b2d63 656c6c73 00636c6f 636b2d66  ck-cells.clock-f
 1bc8 72657175 656e6379 00636c6f 636b2d6f  requency.clock-o
 1bd8 75747075 742d6e61 6d657300 7068616e  utput-names.phan
 1be8 646c6500 6c696e75 782c7068 616e646c  dle.linux,phandl
 1bf8 65007469 6d656261 73652d66 72657175  e.timebase-frequ
 1c08 656e6379 00646576 6963655f 74797065  ency.device_type
 1c18 00726567 00737461 74757300 692d6361  .reg.status.i-ca
 1c28 6368652d 626c6f63 6b2d7369 7a650069  che-block-size.i
 1c38 2d636163 68652d73 65747300 692d6361  -cache-sets.i-ca
 1c48 6368652d 73697a65 00692d74 6c622d73  che-size.i-tlb-s
 1c58 65747300 692d746c 622d7369 7a650064  ets.i-tlb-size.d
 1c68 2d636163 68652d62 6c6f636b 2d73697a  -cache-block-siz
 1c78 6500642d 63616368 652d7365 74730064  e.d-cache-sets.d
 1c88 2d636163 68652d73 697a6500 642d746c  -cache-size.d-tl
 1c98 622d7365 74730064 2d746c62 2d73697a  b-sets.d-tlb-siz
 1ca8 65007269 7363762c 69736100 6d6d752d  e.riscv,isa.mmu-
 1cb8 74797065 00726973 63762c70 6d707265  type.riscv,pmpre
 1cc8 67696f6e 73007269 7363762c 706d7067  gions.riscv,pmpg
 1cd8 72616e75 6c617269 7479006c 696e7578  ranularity.linux
 1ce8 2c626f6f 742d6370 75002369 6e746572  ,boot-cpu.#inter
 1cf8 72757074 2d63656c 6c730069 6e746572  rupt-cells.inter
 1d08 72757074 2d636f6e 74726f6c 6c657200  rupt-controller.
 1d18 72616e67 65730069 6e746572 72757074  ranges.interrupt
 1d28 7300696e 74657272 7570742d 70617265  s.interrupt-pare
 1d38 6e740069 6e746572 72757074 732d6578  nt.interrupts-ex
 1d48 74656e64 65640072 69736376 2c6e6465  tended.riscv,nde
 1d58 7600636c 6f636b73 00737069 2d6d6178  v.clocks.spi-max
 1d68 2d667265 7175656e 63790076 6f6c7461  -frequency.volta
 1d78 67652d72 616e6765 73006469 7361626c  ge-ranges.disabl
 1d88 652d7770 00726973 63762c6b 65726e65  e-wp.riscv,kerne
 1d98 6c2d7374 61727400 72697363 762c6b65  l-start.riscv,ke
 1da8 726e656c 2d656e64 00626f6f 74617267  rnel-end.bootarg
 1db8 73007374 646f7574 2d706174 68006c69  s.stdout-path.li
 1dc8 6e75782c 706c6174 666f726d 00736572  nux,platform.ser
 1dd8 69616c30 00                          ial0.           
Contents of section .rodata:
 1de0 5b42524f 4d5d2048 57207665 7273696f  [BROM] HW versio
 1df0 6e3a2020 00000000 00000000 00000000  n:  ............
 1e00 00000000                             ....            
Contents of section .rodata.str1.8:
 1e08 46415431 32202020 00000000 00000000  FAT12   ........
 1e18 46415431 36202020 00000000 00000000  FAT16   ........
 1e28 46415433 32202020 00000000 00000000  FAT32   ........
 1e38 5b42524f 4d5d2055 41525420 696e6974  [BROM] UART init
 1e48 20646f6e 65000000 5b42524f 4d5d2053   done...[BROM] S
 1e58 44206361 72642069 6e697400 00000000  D card init.....
 1e68 5b42524f 4d5d2046 41542042 50422069  [BROM] FAT BPB i
 1e78 6e697400 00000000 5b42524f 4d5d206c  nit.....[BROM] l
 1e88 6f616420 62626c00 62626c00 00000000  oad bbl.bbl.....
 1e98 5b42524f 4d5d206c 6f616420 766d6c69  [BROM] load vmli
 1ea8 6e757800 00000000 766d6c69 6e757800  nux.....vmlinux.
 1eb8 5b42524f 4d5d206c 6f616420 766d6c69  [BROM] load vmli
 1ec8 6e75782e 74737400 766d6c69 6e75782e  nux.tst.vmlinux.
 1ed8 74737400 00000000 5b42524f 4d5d2062  tst.....[BROM] b
 1ee8 6f6f7420 726f6d20 696e6974 20646f6e  oot rom init don
 1ef8 6500                                 e.              
Contents of section .comment:
 0000 4743433a 20286731 65613937 38653330  GCC: (g1ea978e30
 0010 36362920 31322e31 2e3000             66) 12.1.0.     
Contents of section .riscv.attributes:
 0000 412e0000 00726973 63760001 24000000  A....riscv..$...
 0010 04100572 76363469 3270305f 6d327030  ...rv64i2p0_m2p0
 0020 5f613270 305f6332 70300008 010a0b    _a2p0_c2p0..... 

Disassembly of section .text:

0000000000000000 <__text_start>:
       0:	4081                	li	ra,0
       2:	4101                	li	sp,0
       4:	4181                	li	gp,0
       6:	4201                	li	tp,0
       8:	4281                	li	t0,0
       a:	4301                	li	t1,0
       c:	4381                	li	t2,0
       e:	4401                	li	s0,0
      10:	4481                	li	s1,0
      12:	4501                	li	a0,0
      14:	4581                	li	a1,0
      16:	4601                	li	a2,0
      18:	4681                	li	a3,0
      1a:	4701                	li	a4,0
      1c:	4781                	li	a5,0
      1e:	4801                	li	a6,0
      20:	4881                	li	a7,0
      22:	4901                	li	s2,0
      24:	4981                	li	s3,0
      26:	4a01                	li	s4,0
      28:	4a81                	li	s5,0
      2a:	4b01                	li	s6,0
      2c:	4b81                	li	s7,0
      2e:	4c01                	li	s8,0
      30:	4c81                	li	s9,0
      32:	4d01                	li	s10,0
      34:	4d81                	li	s11,0
      36:	4e01                	li	t3,0
      38:	4e81                	li	t4,0
      3a:	4f01                	li	t5,0
      3c:	4f81                	li	t6,0

000000000000003e <fill_stack>:
      3e:	0003f517          	auipc	a0,0x3f
      42:	fc250513          	addi	a0,a0,-62 # 3f000 <_stack_end>
      46:	00040597          	auipc	a1,0x40
      4a:	fb658593          	addi	a1,a1,-74 # 3fffc <_stack_end+0xffc>
      4e:	4601                	li	a2,0
      50:	0e6000ef          	jal	ra,136 <fill_block>

0000000000000054 <init_stack>:
      54:	00040117          	auipc	sp,0x40
      58:	fac10113          	addi	sp,sp,-84 # 40000 <__stack>

000000000000005c <init_system>:
      5c:	301022f3          	csrr	t0,misa
      60:	0602c163          	bltz	t0,c2 <rv64>
      64:	001a02b7          	lui	t0,0x1a0
      68:	3c329073          	csrw	0x3c3,t0
      6c:	00000297          	auipc	t0,0x0
      70:	0dc2a283          	lw	t0,220(t0) # 148 <sysram_base>
      74:	00000317          	auipc	t1,0x0
      78:	0dc32303          	lw	t1,220(t1) # 150 <sysram_size>
      7c:	137d                	addi	t1,t1,-1
      7e:	00135313          	srli	t1,t1,0x1
      82:	0062e2b3          	or	t0,t0,t1
      86:	0022d293          	srli	t0,t0,0x2
      8a:	3de29073          	csrw	0x3de,t0
      8e:	1a0002b7          	lui	t0,0x1a000
      92:	3c32a073          	csrs	0x3c3,t0
      96:	00000297          	auipc	t0,0x0
      9a:	0c22a283          	lw	t0,194(t0) # 158 <ddr_base>
      9e:	00000317          	auipc	t1,0x0
      a2:	0c232303          	lw	t1,194(t1) # 160 <ddr_size>
      a6:	137d                	addi	t1,t1,-1
      a8:	00135313          	srli	t1,t1,0x1
      ac:	0062e2b3          	or	t0,t0,t1
      b0:	0022d293          	srli	t0,t0,0x2
      b4:	3df29073          	csrw	0x3df,t0
      b8:	00000417          	auipc	s0,0x0
      bc:	09042403          	lw	s0,144(s0) # 148 <sysram_base>
      c0:	a08d                	j	122 <goto_main>

00000000000000c2 <rv64>:
      c2:	00d0029b          	addiw	t0,zero,13
      c6:	12c6                	slli	t0,t0,0x31
      c8:	3c229073          	csrw	0x3c2,t0
      cc:	00000297          	auipc	t0,0x0
      d0:	07c2b283          	ld	t0,124(t0) # 148 <sysram_base>
      d4:	00000317          	auipc	t1,0x0
      d8:	07c33303          	ld	t1,124(t1) # 150 <sysram_size>
      dc:	137d                	addi	t1,t1,-1
      de:	00135313          	srli	t1,t1,0x1
      e2:	0062e2b3          	or	t0,t0,t1
      e6:	0022d293          	srli	t0,t0,0x2
      ea:	3de29073          	csrw	0x3de,t0
      ee:	00d0029b          	addiw	t0,zero,13
      f2:	12e6                	slli	t0,t0,0x39
      f4:	3c22a073          	csrs	0x3c2,t0
      f8:	00000297          	auipc	t0,0x0
      fc:	0602b283          	ld	t0,96(t0) # 158 <ddr_base>
     100:	00000317          	auipc	t1,0x0
     104:	06033303          	ld	t1,96(t1) # 160 <ddr_size>
     108:	137d                	addi	t1,t1,-1
     10a:	00135313          	srli	t1,t1,0x1
     10e:	0062e2b3          	or	t0,t0,t1
     112:	0022d293          	srli	t0,t0,0x2
     116:	3df29073          	csrw	0x3df,t0
     11a:	00000417          	auipc	s0,0x0
     11e:	02e43403          	ld	s0,46(s0) # 148 <sysram_base>

0000000000000122 <goto_main>:
     122:	727000ef          	jal	ra,1048 <main>
     126:	f1402573          	csrr	a0,mhartid
     12a:	00001597          	auipc	a1,0x1
     12e:	0ce58593          	addi	a1,a1,206 # 11f8 <_DTB>
     132:	8402                	jr	s0

0000000000000134 <dead_loop>:
     134:	a001                	j	134 <dead_loop>

0000000000000136 <fill_block>:
     136:	00a5e563          	bltu	a1,a0,140 <fb_end>
     13a:	c110                	sw	a2,0(a0)
     13c:	0511                	addi	a0,a0,4
     13e:	bfe5                	j	136 <fill_block>

0000000000000140 <fb_end>:
     140:	8082                	ret
     142:	0001                	nop
     144:	00000013          	nop

0000000000000148 <sysram_base>:
     148:	00020000          	.word	0x00020000
     14c:	00000000          	.word	0x00000000

0000000000000150 <sysram_size>:
     150:	00020000          	.word	0x00020000
     154:	00000000          	.word	0x00000000

0000000000000158 <ddr_base>:
     158:	0000                	unimp
     15a:	8000                	.2byte	0x8000
     15c:	0000                	unimp
	...

0000000000000160 <ddr_size>:
     160:	0000                	unimp
     162:	8000                	.2byte	0x8000
     164:	0000                	unimp
	...

0000000000000168 <__elf_loader_reloc>:
     168:	db010113          	addi	sp,sp,-592
     16c:	23213823          	sd	s2,560(sp)
     170:	4601                	li	a2,0
     172:	892e                	mv	s2,a1
     174:	4581                	li	a1,0
     176:	24113423          	sd	ra,584(sp)
     17a:	23413023          	sd	s4,544(sp)
     17e:	21513c23          	sd	s5,536(sp)
     182:	8a2a                	mv	s4,a0
     184:	24813023          	sd	s0,576(sp)
     188:	22913c23          	sd	s1,568(sp)
     18c:	23313423          	sd	s3,552(sp)
     190:	21613823          	sd	s6,528(sp)
     194:	21713423          	sd	s7,520(sp)
     198:	78c000ef          	jal	ra,924 <__fseek>
     19c:	04000613          	li	a2,64
     1a0:	858a                	mv	a1,sp
     1a2:	8552                	mv	a0,s4
     1a4:	7a8000ef          	jal	ra,94c <__fread>
     1a8:	03815a83          	lhu	s5,56(sp)
     1ac:	0a0a8b63          	beqz	s5,262 <__elf_loader_reloc+0xfa>
     1b0:	4b01                	li	s6,0
     1b2:	4ba1                	li	s7,8
     1b4:	6989                	lui	s3,0x2
     1b6:	416a87bb          	subw	a5,s5,s6
     1ba:	0cfbea63          	bltu	s7,a5,28e <__elf_loader_reloc+0x126>
     1be:	003a941b          	slliw	s0,s5,0x3
     1c2:	4154043b          	subw	s0,s0,s5
     1c6:	0034141b          	slliw	s0,s0,0x3
     1ca:	7582                	ld	a1,32(sp)
     1cc:	003b179b          	slliw	a5,s6,0x3
     1d0:	416787bb          	subw	a5,a5,s6
     1d4:	0037979b          	slliw	a5,a5,0x3
     1d8:	9dbd                	addw	a1,a1,a5
     1da:	4601                	li	a2,0
     1dc:	8552                	mv	a0,s4
     1de:	003a9493          	slli	s1,s5,0x3
     1e2:	742000ef          	jal	ra,924 <__fseek>
     1e6:	415484b3          	sub	s1,s1,s5
     1ea:	8622                	mv	a2,s0
     1ec:	008c                	addi	a1,sp,64
     1ee:	8552                	mv	a0,s4
     1f0:	048e                	slli	s1,s1,0x3
     1f2:	0080                	addi	s0,sp,64
     1f4:	758000ef          	jal	ra,94c <__fread>
     1f8:	94a2                	add	s1,s1,s0
     1fa:	a029                	j	204 <__elf_loader_reloc+0x9c>
     1fc:	03840413          	addi	s0,s0,56
     200:	04848b63          	beq	s1,s0,256 <__elf_loader_reloc+0xee>
     204:	6c1c                	ld	a5,24(s0)
     206:	97ca                	add	a5,a5,s2
     208:	ff37eae3          	bltu	a5,s3,1fc <__elf_loader_reloc+0x94>
     20c:	440c                	lw	a1,8(s0)
     20e:	4601                	li	a2,0
     210:	8552                	mv	a0,s4
     212:	712000ef          	jal	ra,924 <__fseek>
     216:	6c0c                	ld	a1,24(s0)
     218:	5010                	lw	a2,32(s0)
     21a:	8552                	mv	a0,s4
     21c:	95ca                	add	a1,a1,s2
     21e:	72e000ef          	jal	ra,94c <__fread>
     222:	7010                	ld	a2,32(s0)
     224:	7408                	ld	a0,40(s0)
     226:	fca67be3          	bgeu	a2,a0,1fc <__elf_loader_reloc+0x94>
     22a:	6c0c                	ld	a1,24(s0)
     22c:	4889                	li	a7,2
     22e:	4809                	li	a6,2
     230:	95b2                	add	a1,a1,a2
     232:	4785                	li	a5,1
     234:	40c5063b          	subw	a2,a0,a2
     238:	4709                	li	a4,2
     23a:	4685                	li	a3,1
     23c:	012585bb          	addw	a1,a1,s2
     240:	4501                	li	a0,0
     242:	051000ef          	jal	ra,a92 <__dma_cfg>
     246:	08d000ef          	jal	ra,ad2 <__dma_busy>
     24a:	2501                	sext.w	a0,a0
     24c:	fd6d                	bnez	a0,246 <__elf_loader_reloc+0xde>
     24e:	03840413          	addi	s0,s0,56
     252:	fa8499e3          	bne	s1,s0,204 <__elf_loader_reloc+0x9c>
     256:	016a8b3b          	addw	s6,s5,s6
     25a:	03815a83          	lhu	s5,56(sp)
     25e:	f55b6ce3          	bltu	s6,s5,1b6 <__elf_loader_reloc+0x4e>
     262:	24813083          	ld	ra,584(sp)
     266:	24013403          	ld	s0,576(sp)
     26a:	6562                	ld	a0,24(sp)
     26c:	23813483          	ld	s1,568(sp)
     270:	23013903          	ld	s2,560(sp)
     274:	22813983          	ld	s3,552(sp)
     278:	22013a03          	ld	s4,544(sp)
     27c:	21813a83          	ld	s5,536(sp)
     280:	21013b03          	ld	s6,528(sp)
     284:	20813b83          	ld	s7,520(sp)
     288:	25010113          	addi	sp,sp,592
     28c:	8082                	ret
     28e:	1c000413          	li	s0,448
     292:	4aa1                	li	s5,8
     294:	bf1d                	j	1ca <__elf_loader_reloc+0x62>

0000000000000296 <__elf_loader>:
     296:	4581                	li	a1,0
     298:	bdc1                	j	168 <__elf_loader_reloc>

000000000000029a <__fat_bpb_init>:
     29a:	dd010113          	addi	sp,sp,-560
     29e:	22813023          	sd	s0,544(sp)
     2a2:	858a                	mv	a1,sp
     2a4:	842a                	mv	s0,a0
     2a6:	4501                	li	a0,0
     2a8:	22113423          	sd	ra,552(sp)
     2ac:	20913c23          	sd	s1,536(sp)
     2b0:	21213823          	sd	s2,528(sp)
     2b4:	21313423          	sd	s3,520(sp)
     2b8:	289000ef          	jal	ra,d40 <__sd_readblk>
     2bc:	c901                	beqz	a0,2cc <__fat_bpb_init+0x32>
     2be:	1fe15903          	lhu	s2,510(sp)
     2c2:	67ad                	lui	a5,0xb
     2c4:	a5578793          	addi	a5,a5,-1451 # aa55 <__data_end+0x8c78>
     2c8:	02f90063          	beq	s2,a5,2e8 <__fat_bpb_init+0x4e>
     2cc:	22813083          	ld	ra,552(sp)
     2d0:	22013403          	ld	s0,544(sp)
     2d4:	21813483          	ld	s1,536(sp)
     2d8:	21013903          	ld	s2,528(sp)
     2dc:	20813983          	ld	s3,520(sp)
     2e0:	4501                	li	a0,0
     2e2:	23010113          	addi	sp,sp,560
     2e6:	8082                	ret
     2e8:	4621                	li	a2,8
     2ea:	00002597          	auipc	a1,0x2
     2ee:	b1e58593          	addi	a1,a1,-1250 # 1e08 <__data_end+0x2b>
     2f2:	03610513          	addi	a0,sp,54
     2f6:	497000ef          	jal	ra,f8c <__strcmp>
     2fa:	0005049b          	sext.w	s1,a0
     2fe:	e8cd                	bnez	s1,3b0 <__fat_bpb_init+0x116>
     300:	00c14783          	lbu	a5,12(sp)
     304:	00b14703          	lbu	a4,11(sp)
     308:	00d14583          	lbu	a1,13(sp)
     30c:	07a2                	slli	a5,a5,0x8
     30e:	8fd9                	or	a5,a5,a4
     310:	470d                	li	a4,3
     312:	00e40a23          	sb	a4,20(s0)
     316:	00f41023          	sh	a5,0(s0)
     31a:	4981                	li	s3,0
     31c:	01615803          	lhu	a6,22(sp)
     320:	01014503          	lbu	a0,16(sp)
     324:	00e15603          	lhu	a2,14(sp)
     328:	01214683          	lbu	a3,18(sp)
     32c:	0305073b          	mulw	a4,a0,a6
     330:	0136063b          	addw	a2,a2,s3
     334:	01114783          	lbu	a5,17(sp)
     338:	1642                	slli	a2,a2,0x30
     33a:	9241                	srli	a2,a2,0x30
     33c:	06a2                	slli	a3,a3,0x8
     33e:	8edd                	or	a3,a3,a5
     340:	0046d79b          	srliw	a5,a3,0x4
     344:	00b40923          	sb	a1,18(s0)
     348:	01041123          	sh	a6,2(s0)
     34c:	9f31                	addw	a4,a4,a2
     34e:	1742                	slli	a4,a4,0x30
     350:	9341                	srli	a4,a4,0x30
     352:	9fb9                	addw	a5,a5,a4
     354:	17c2                	slli	a5,a5,0x30
     356:	00a409a3          	sb	a0,19(s0)
     35a:	00c41223          	sh	a2,4(s0)
     35e:	00e41323          	sh	a4,6(s0)
     362:	00d41623          	sh	a3,12(s0)
     366:	93c1                	srli	a5,a5,0x30
     368:	5682                	lw	a3,32(sp)
     36a:	00f41823          	sh	a5,16(s0)
     36e:	00e41723          	sh	a4,14(s0)
     372:	e699                	bnez	a3,380 <__fat_bpb_init+0xe6>
     374:	01414683          	lbu	a3,20(sp)
     378:	01314703          	lbu	a4,19(sp)
     37c:	06a2                	slli	a3,a3,0x8
     37e:	8ed9                	or	a3,a3,a4
     380:	40f487bb          	subw	a5,s1,a5
     384:	9fb5                	addw	a5,a5,a3
     386:	02b7d7bb          	divuw	a5,a5,a1
     38a:	577d                	li	a4,-1
     38c:	22813083          	ld	ra,552(sp)
     390:	20e41c23          	sh	a4,536(s0)
     394:	21813483          	ld	s1,536(sp)
     398:	21013903          	ld	s2,528(sp)
     39c:	20813983          	ld	s3,520(sp)
     3a0:	4505                	li	a0,1
     3a2:	2789                	addiw	a5,a5,2
     3a4:	c41c                	sw	a5,8(s0)
     3a6:	22013403          	ld	s0,544(sp)
     3aa:	23010113          	addi	sp,sp,560
     3ae:	8082                	ret
     3b0:	4621                	li	a2,8
     3b2:	00002597          	auipc	a1,0x2
     3b6:	a6658593          	addi	a1,a1,-1434 # 1e18 <__data_end+0x3b>
     3ba:	03610513          	addi	a0,sp,54
     3be:	3cf000ef          	jal	ra,f8c <__strcmp>
     3c2:	0005049b          	sext.w	s1,a0
     3c6:	e085                	bnez	s1,3e6 <__fat_bpb_init+0x14c>
     3c8:	00c14783          	lbu	a5,12(sp)
     3cc:	00b14703          	lbu	a4,11(sp)
     3d0:	00d14583          	lbu	a1,13(sp)
     3d4:	07a2                	slli	a5,a5,0x8
     3d6:	8fd9                	or	a5,a5,a4
     3d8:	4711                	li	a4,4
     3da:	00e40a23          	sb	a4,20(s0)
     3de:	00f41023          	sh	a5,0(s0)
     3e2:	4981                	li	s3,0
     3e4:	bf25                	j	31c <__fat_bpb_init+0x82>
     3e6:	4621                	li	a2,8
     3e8:	00002597          	auipc	a1,0x2
     3ec:	a4058593          	addi	a1,a1,-1472 # 1e28 <__data_end+0x4b>
     3f0:	05210513          	addi	a0,sp,82
     3f4:	399000ef          	jal	ra,f8c <__strcmp>
     3f8:	0005049b          	sext.w	s1,a0
     3fc:	e0bd                	bnez	s1,462 <__fat_bpb_init+0x1c8>
     3fe:	00c14783          	lbu	a5,12(sp)
     402:	00b14703          	lbu	a4,11(sp)
     406:	00d14583          	lbu	a1,13(sp)
     40a:	07a2                	slli	a5,a5,0x8
     40c:	8fd9                	or	a5,a5,a4
     40e:	4715                	li	a4,5
     410:	00e40a23          	sb	a4,20(s0)
     414:	00f41023          	sh	a5,0(s0)
     418:	4981                	li	s3,0
     41a:	02415803          	lhu	a6,36(sp)
     41e:	01014503          	lbu	a0,16(sp)
     422:	00e15683          	lhu	a3,14(sp)
     426:	01214603          	lbu	a2,18(sp)
     42a:	030507bb          	mulw	a5,a0,a6
     42e:	013686bb          	addw	a3,a3,s3
     432:	16c2                	slli	a3,a3,0x30
     434:	01114703          	lbu	a4,17(sp)
     438:	92c1                	srli	a3,a3,0x30
     43a:	0622                	slli	a2,a2,0x8
     43c:	8e59                	or	a2,a2,a4
     43e:	00b40923          	sb	a1,18(s0)
     442:	02c15703          	lhu	a4,44(sp)
     446:	01041123          	sh	a6,2(s0)
     44a:	9fb5                	addw	a5,a5,a3
     44c:	17c2                	slli	a5,a5,0x30
     44e:	93c1                	srli	a5,a5,0x30
     450:	00a409a3          	sb	a0,19(s0)
     454:	00d41223          	sh	a3,4(s0)
     458:	00f41323          	sh	a5,6(s0)
     45c:	00c41623          	sh	a2,12(s0)
     460:	b721                	j	368 <__fat_bpb_init+0xce>
     462:	1c615983          	lhu	s3,454(sp)
     466:	858a                	mv	a1,sp
     468:	0009849b          	sext.w	s1,s3
     46c:	8526                	mv	a0,s1
     46e:	0d3000ef          	jal	ra,d40 <__sd_readblk>
     472:	e4050de3          	beqz	a0,2cc <__fat_bpb_init+0x32>
     476:	1fe15783          	lhu	a5,510(sp)
     47a:	e52799e3          	bne	a5,s2,2cc <__fat_bpb_init+0x32>
     47e:	4621                	li	a2,8
     480:	00002597          	auipc	a1,0x2
     484:	98858593          	addi	a1,a1,-1656 # 1e08 <__data_end+0x2b>
     488:	03610513          	addi	a0,sp,54
     48c:	301000ef          	jal	ra,f8c <__strcmp>
     490:	0005079b          	sext.w	a5,a0
     494:	ef99                	bnez	a5,4b2 <__fat_bpb_init+0x218>
     496:	00c14783          	lbu	a5,12(sp)
     49a:	00b14703          	lbu	a4,11(sp)
     49e:	00d14583          	lbu	a1,13(sp)
     4a2:	07a2                	slli	a5,a5,0x8
     4a4:	8fd9                	or	a5,a5,a4
     4a6:	470d                	li	a4,3
     4a8:	00e40a23          	sb	a4,20(s0)
     4ac:	00f41023          	sh	a5,0(s0)
     4b0:	b5b5                	j	31c <__fat_bpb_init+0x82>
     4b2:	4621                	li	a2,8
     4b4:	00002597          	auipc	a1,0x2
     4b8:	96458593          	addi	a1,a1,-1692 # 1e18 <__data_end+0x3b>
     4bc:	03610513          	addi	a0,sp,54
     4c0:	2cd000ef          	jal	ra,f8c <__strcmp>
     4c4:	0005079b          	sext.w	a5,a0
     4c8:	ef99                	bnez	a5,4e6 <__fat_bpb_init+0x24c>
     4ca:	00c14783          	lbu	a5,12(sp)
     4ce:	00b14703          	lbu	a4,11(sp)
     4d2:	00d14583          	lbu	a1,13(sp)
     4d6:	07a2                	slli	a5,a5,0x8
     4d8:	8fd9                	or	a5,a5,a4
     4da:	4711                	li	a4,4
     4dc:	00e40a23          	sb	a4,20(s0)
     4e0:	00f41023          	sh	a5,0(s0)
     4e4:	bd25                	j	31c <__fat_bpb_init+0x82>
     4e6:	4621                	li	a2,8
     4e8:	00002597          	auipc	a1,0x2
     4ec:	94058593          	addi	a1,a1,-1728 # 1e28 <__data_end+0x4b>
     4f0:	05210513          	addi	a0,sp,82
     4f4:	299000ef          	jal	ra,f8c <__strcmp>
     4f8:	0005079b          	sext.w	a5,a0
     4fc:	dc0798e3          	bnez	a5,2cc <__fat_bpb_init+0x32>
     500:	00c14783          	lbu	a5,12(sp)
     504:	00b14703          	lbu	a4,11(sp)
     508:	00d14583          	lbu	a1,13(sp)
     50c:	07a2                	slli	a5,a5,0x8
     50e:	8fd9                	or	a5,a5,a4
     510:	4715                	li	a4,5
     512:	00e40a23          	sb	a4,20(s0)
     516:	00f41023          	sh	a5,0(s0)
     51a:	b701                	j	41a <__fat_bpb_init+0x180>

000000000000051c <__nxt_clst>:
     51c:	1101                	addi	sp,sp,-32
     51e:	e822                	sd	s0,16(sp)
     520:	00e55403          	lhu	s0,14(a0)
     524:	21855683          	lhu	a3,536(a0)
     528:	e426                	sd	s1,8(sp)
     52a:	9c2d                	addw	s0,s0,a1
     52c:	ec06                	sd	ra,24(sp)
     52e:	0074579b          	srliw	a5,s0,0x7
     532:	84aa                	mv	s1,a0
     534:	02f69563          	bne	a3,a5,55e <__nxt_clst+0x42>
     538:	07f47413          	andi	s0,s0,127
     53c:	0411                	addi	s0,s0,4
     53e:	040a                	slli	s0,s0,0x2
     540:	9426                	add	s0,s0,s1
     542:	4408                	lw	a0,8(s0)
     544:	100007b7          	lui	a5,0x10000
     548:	17fd                	addi	a5,a5,-1 # fffffff <__stack+0xffbffff>
     54a:	04f50563          	beq	a0,a5,594 <__nxt_clst+0x78>
     54e:	00e4d783          	lhu	a5,14(s1)
     552:	9d1d                	subw	a0,a0,a5
     554:	60e2                	ld	ra,24(sp)
     556:	6442                	ld	s0,16(sp)
     558:	64a2                	ld	s1,8(sp)
     55a:	6105                	addi	sp,sp,32
     55c:	8082                	ret
     55e:	00455503          	lhu	a0,4(a0)
     562:	0074571b          	srliw	a4,s0,0x7
     566:	1742                	slli	a4,a4,0x30
     568:	9341                	srli	a4,a4,0x30
     56a:	20f49c23          	sh	a5,536(s1)
     56e:	01848593          	addi	a1,s1,24
     572:	9d39                	addw	a0,a0,a4
     574:	7cc000ef          	jal	ra,d40 <__sd_readblk>
     578:	87aa                	mv	a5,a0
     57a:	4501                	li	a0,0
     57c:	dfe1                	beqz	a5,554 <__nxt_clst+0x38>
     57e:	07f47413          	andi	s0,s0,127
     582:	0411                	addi	s0,s0,4
     584:	040a                	slli	s0,s0,0x2
     586:	9426                	add	s0,s0,s1
     588:	4408                	lw	a0,8(s0)
     58a:	100007b7          	lui	a5,0x10000
     58e:	17fd                	addi	a5,a5,-1 # fffffff <__stack+0xffbffff>
     590:	faf51fe3          	bne	a0,a5,54e <__nxt_clst+0x32>
     594:	60e2                	ld	ra,24(sp)
     596:	6442                	ld	s0,16(sp)
     598:	64a2                	ld	s1,8(sp)
     59a:	557d                	li	a0,-1
     59c:	6105                	addi	sp,sp,32
     59e:	8082                	ret

00000000000005a0 <__get_clst>:
     5a0:	715d                	addi	sp,sp,-80
     5a2:	e062                	sd	s8,0(sp)
     5a4:	6c41                	lui	s8,0x10
     5a6:	ec56                	sd	s5,24(sp)
     5a8:	1c7d                	addi	s8,s8,-1 # ffff <__data_end+0xe222>
     5aa:	0095da9b          	srliw	s5,a1,0x9
     5ae:	591c                	lw	a5,48(a0)
     5b0:	018afab3          	and	s5,s5,s8
     5b4:	e85a                	sd	s6,16(sp)
     5b6:	e45e                	sd	s7,8(sp)
     5b8:	e486                	sd	ra,72(sp)
     5ba:	e0a2                	sd	s0,64(sp)
     5bc:	fc26                	sd	s1,56(sp)
     5be:	f84a                	sd	s2,48(sp)
     5c0:	f44e                	sd	s3,40(sp)
     5c2:	f052                	sd	s4,32(sp)
     5c4:	2a81                	sext.w	s5,s5
     5c6:	8baa                	mv	s7,a0
     5c8:	8b2e                	mv	s6,a1
     5ca:	13578863          	beq	a5,s5,6fa <__get_clst+0x15a>
     5ce:	5954                	lw	a3,52(a0)
     5d0:	100009b7          	lui	s3,0x10000
     5d4:	19fd                	addi	s3,s3,-1 # fffffff <__stack+0xffbffff>
     5d6:	0f56f063          	bgeu	a3,s5,6b6 <__get_clst+0x116>
     5da:	02069793          	slli	a5,a3,0x20
     5de:	9381                	srli	a5,a5,0x20
     5e0:	20c78793          	addi	a5,a5,524
     5e4:	078a                	slli	a5,a5,0x2
     5e6:	97de                	add	a5,a5,s7
     5e8:	4798                	lw	a4,8(a5)
     5ea:	20000913          	li	s2,512
     5ee:	5a7d                	li	s4,-1
     5f0:	020bb483          	ld	s1,32(s7)
     5f4:	00e4d403          	lhu	s0,14(s1)
     5f8:	2184d683          	lhu	a3,536(s1)
     5fc:	01848593          	addi	a1,s1,24
     600:	9c39                	addw	s0,s0,a4
     602:	0074551b          	srliw	a0,s0,0x7
     606:	0074579b          	srliw	a5,s0,0x7
     60a:	00ac7533          	and	a0,s8,a0
     60e:	00f68a63          	beq	a3,a5,622 <__get_clst+0x82>
     612:	0044d703          	lhu	a4,4(s1)
     616:	20f49c23          	sh	a5,536(s1)
     61a:	9d39                	addw	a0,a0,a4
     61c:	724000ef          	jal	ra,d40 <__sd_readblk>
     620:	c12d                	beqz	a0,682 <__get_clst+0xe2>
     622:	07f47413          	andi	s0,s0,127
     626:	0411                	addi	s0,s0,4
     628:	040a                	slli	s0,s0,0x2
     62a:	9426                	add	s0,s0,s1
     62c:	441c                	lw	a5,8(s0)
     62e:	397d                	addiw	s2,s2,-1
     630:	1942                	slli	s2,s2,0x30
     632:	03095913          	srli	s2,s2,0x30
     636:	01378a63          	beq	a5,s3,64a <__get_clst+0xaa>
     63a:	00e4d703          	lhu	a4,14(s1)
     63e:	40e7873b          	subw	a4,a5,a4
     642:	04090863          	beqz	s2,692 <__get_clst+0xf2>
     646:	fb4715e3          	bne	a4,s4,5f0 <__get_clst+0x50>
     64a:	034ba703          	lw	a4,52(s7)
     64e:	2705                	addiw	a4,a4,1
     650:	02071793          	slli	a5,a4,0x20
     654:	9381                	srli	a5,a5,0x20
     656:	20c78793          	addi	a5,a5,524
     65a:	078a                	slli	a5,a5,0x2
     65c:	02ebaa23          	sw	a4,52(s7)
     660:	9bbe                	add	s7,s7,a5
     662:	57fd                	li	a5,-1
     664:	00fba423          	sw	a5,8(s7)
     668:	557d                	li	a0,-1
     66a:	60a6                	ld	ra,72(sp)
     66c:	6406                	ld	s0,64(sp)
     66e:	74e2                	ld	s1,56(sp)
     670:	7942                	ld	s2,48(sp)
     672:	79a2                	ld	s3,40(sp)
     674:	7a02                	ld	s4,32(sp)
     676:	6ae2                	ld	s5,24(sp)
     678:	6b42                	ld	s6,16(sp)
     67a:	6ba2                	ld	s7,8(sp)
     67c:	6c02                	ld	s8,0(sp)
     67e:	6161                	addi	sp,sp,80
     680:	8082                	ret
     682:	397d                	addiw	s2,s2,-1
     684:	1942                	slli	s2,s2,0x30
     686:	03095913          	srli	s2,s2,0x30
     68a:	0a090563          	beqz	s2,734 <__get_clst+0x194>
     68e:	4701                	li	a4,0
     690:	b785                	j	5f0 <__get_clst+0x50>
     692:	034ba683          	lw	a3,52(s7)
     696:	55fd                	li	a1,-1
     698:	2685                	addiw	a3,a3,1
     69a:	02069613          	slli	a2,a3,0x20
     69e:	9201                	srli	a2,a2,0x20
     6a0:	20c60613          	addi	a2,a2,524
     6a4:	060a                	slli	a2,a2,0x2
     6a6:	02dbaa23          	sw	a3,52(s7)
     6aa:	965e                	add	a2,a2,s7
     6ac:	c618                	sw	a4,8(a2)
     6ae:	fab70de3          	beq	a4,a1,668 <__get_clst+0xc8>
     6b2:	f356e4e3          	bltu	a3,s5,5da <__get_clst+0x3a>
     6b6:	002a9913          	slli	s2,s5,0x2
     6ba:	995e                	add	s2,s2,s7
     6bc:	6785                	lui	a5,0x1
     6be:	00f90733          	add	a4,s2,a5
     6c2:	83872583          	lw	a1,-1992(a4)
     6c6:	577d                	li	a4,-1
     6c8:	fae580e3          	beq	a1,a4,668 <__get_clst+0xc8>
     6cc:	83878793          	addi	a5,a5,-1992 # 838 <__fopen+0xe6>
     6d0:	00fb84b3          	add	s1,s7,a5
     6d4:	02bbac23          	sw	a1,56(s7)
     6d8:	03cb8413          	addi	s0,s7,60
     6dc:	4781                	li	a5,0
     6de:	c78d                	beqz	a5,708 <__get_clst+0x168>
     6e0:	c00c                	sw	a1,0(s0)
     6e2:	0411                	addi	s0,s0,4
     6e4:	fe849de3          	bne	s1,s0,6de <__get_clst+0x13e>
     6e8:	035ba823          	sw	s5,48(s7)
     6ec:	57fd                	li	a5,-1
     6ee:	02f59863          	bne	a1,a5,71e <__get_clst+0x17e>
     6f2:	6785                	lui	a5,0x1
     6f4:	993e                	add	s2,s2,a5
     6f6:	82b92e23          	sw	a1,-1988(s2)
     6fa:	1ffb7793          	andi	a5,s6,511
     6fe:	07b1                	addi	a5,a5,12 # 100c <__delay+0x1a>
     700:	078a                	slli	a5,a5,0x2
     702:	97de                	add	a5,a5,s7
     704:	4788                	lw	a0,8(a5)
     706:	b795                	j	66a <__get_clst+0xca>
     708:	020bb503          	ld	a0,32(s7)
     70c:	e11ff0ef          	jal	ra,51c <__nxt_clst>
     710:	0005059b          	sext.w	a1,a0
     714:	00158793          	addi	a5,a1,1
     718:	0017b793          	seqz	a5,a5
     71c:	b7d1                	j	6e0 <__get_clst+0x140>
     71e:	020bb503          	ld	a0,32(s7)
     722:	dfbff0ef          	jal	ra,51c <__nxt_clst>
     726:	6785                	lui	a5,0x1
     728:	0005059b          	sext.w	a1,a0
     72c:	993e                	add	s2,s2,a5
     72e:	82b92e23          	sw	a1,-1988(s2)
     732:	b7e1                	j	6fa <__get_clst+0x15a>
     734:	034ba683          	lw	a3,52(s7)
     738:	2685                	addiw	a3,a3,1
     73a:	02069793          	slli	a5,a3,0x20
     73e:	9381                	srli	a5,a5,0x20
     740:	20c78793          	addi	a5,a5,524 # 120c <_DTB+0x14>
     744:	078a                	slli	a5,a5,0x2
     746:	02dbaa23          	sw	a3,52(s7)
     74a:	97de                	add	a5,a5,s7
     74c:	0007a423          	sw	zero,8(a5)
     750:	b559                	j	5d6 <__get_clst+0x36>

0000000000000752 <__fopen>:
     752:	dc010113          	addi	sp,sp,-576
     756:	22913423          	sd	s1,552(sp)
     75a:	22113c23          	sd	ra,568(sp)
     75e:	22813823          	sd	s0,560(sp)
     762:	23213023          	sd	s2,544(sp)
     766:	21313c23          	sd	s3,536(sp)
     76a:	21413823          	sd	s4,528(sp)
     76e:	84aa                	mv	s1,a0
     770:	0034                	addi	a3,sp,8
     772:	4781                	li	a5,0
     774:	02e00893          	li	a7,46
     778:	4321                	li	t1,8
     77a:	a011                	j	77e <__fopen+0x2c>
     77c:	85b2                	mv	a1,a2
     77e:	0005c703          	lbu	a4,0(a1)
     782:	0017851b          	addiw	a0,a5,1
     786:	00158613          	addi	a2,a1,1
     78a:	fdf77813          	andi	a6,a4,-33
     78e:	0e070d63          	beqz	a4,888 <__fopen+0x136>
     792:	0f170b63          	beq	a4,a7,888 <__fopen+0x136>
     796:	03051793          	slli	a5,a0,0x30
     79a:	01068023          	sb	a6,0(a3)
     79e:	93c1                	srli	a5,a5,0x30
     7a0:	0685                	addi	a3,a3,1
     7a2:	fc679de3          	bne	a5,t1,77c <__fopen+0x2a>
     7a6:	0015c703          	lbu	a4,1(a1)
     7aa:	85b2                	mv	a1,a2
     7ac:	fd270713          	addi	a4,a4,-46
     7b0:	00173713          	seqz	a4,a4
     7b4:	95ba                	add	a1,a1,a4
     7b6:	4781                	li	a5,0
     7b8:	870a                	mv	a4,sp
     7ba:	450d                	li	a0,3
     7bc:	00f586b3          	add	a3,a1,a5
     7c0:	0006c683          	lbu	a3,0(a3)
     7c4:	fdf6f613          	andi	a2,a3,-33
     7c8:	0e068a63          	beqz	a3,8bc <__fopen+0x16a>
     7cc:	00c70023          	sb	a2,0(a4)
     7d0:	0785                	addi	a5,a5,1
     7d2:	0705                	addi	a4,a4,1
     7d4:	fea794e3          	bne	a5,a0,7bc <__fopen+0x6a>
     7d8:	4a01                	li	s4,0
     7da:	709c                	ld	a5,32(s1)
     7dc:	080c                	addi	a1,sp,16
     7de:	0107d503          	lhu	a0,16(a5)
     7e2:	0145053b          	addw	a0,a0,s4
     7e6:	55a000ef          	jal	ra,d40 <__sd_readblk>
     7ea:	cd49                	beqz	a0,884 <__fopen+0x132>
     7ec:	0800                	addi	s0,sp,16
     7ee:	21010993          	addi	s3,sp,528
     7f2:	0e500913          	li	s2,229
     7f6:	00044783          	lbu	a5,0(s0)
     7fa:	4621                	li	a2,8
     7fc:	002c                	addi	a1,sp,8
     7fe:	8522                	mv	a0,s0
     800:	07278a63          	beq	a5,s2,874 <__fopen+0x122>
     804:	788000ef          	jal	ra,f8c <__strcmp>
     808:	87aa                	mv	a5,a0
     80a:	2781                	sext.w	a5,a5
     80c:	460d                	li	a2,3
     80e:	00840513          	addi	a0,s0,8
     812:	858a                	mv	a1,sp
     814:	e3a5                	bnez	a5,874 <__fopen+0x122>
     816:	776000ef          	jal	ra,f8c <__strcmp>
     81a:	2501                	sext.w	a0,a0
     81c:	ed21                	bnez	a0,874 <__fopen+0x122>
     81e:	02000613          	li	a2,32
     822:	85a2                	mv	a1,s0
     824:	8526                	mv	a0,s1
     826:	79a000ef          	jal	ra,fc0 <__memcpy>
     82a:	7098                	ld	a4,32(s1)
     82c:	0144d783          	lhu	a5,20(s1)
     830:	01a4d583          	lhu	a1,26(s1)
     834:	00e75683          	lhu	a3,14(a4)
     838:	577d                	li	a4,-1
     83a:	02071613          	slli	a2,a4,0x20
     83e:	0107979b          	slliw	a5,a5,0x10
     842:	9301                	srli	a4,a4,0x20
     844:	f898                	sd	a4,48(s1)
     846:	8fcd                	or	a5,a5,a1
     848:	6705                	lui	a4,0x1
     84a:	f490                	sd	a2,40(s1)
     84c:	9f95                	subw	a5,a5,a3
     84e:	94ba                	add	s1,s1,a4
     850:	82f4ac23          	sw	a5,-1992(s1)
     854:	4505                	li	a0,1
     856:	23813083          	ld	ra,568(sp)
     85a:	23013403          	ld	s0,560(sp)
     85e:	22813483          	ld	s1,552(sp)
     862:	22013903          	ld	s2,544(sp)
     866:	21813983          	ld	s3,536(sp)
     86a:	21013a03          	ld	s4,528(sp)
     86e:	24010113          	addi	sp,sp,576
     872:	8082                	ret
     874:	02040413          	addi	s0,s0,32
     878:	f7341fe3          	bne	s0,s3,7f6 <__fopen+0xa4>
     87c:	2a05                	addiw	s4,s4,1
     87e:	4791                	li	a5,4
     880:	f4fa1de3          	bne	s4,a5,7da <__fopen+0x88>
     884:	4501                	li	a0,0
     886:	bfc1                	j	856 <__fopen+0x104>
     888:	46a1                	li	a3,8
     88a:	9e9d                	subw	a3,a3,a5
     88c:	0030                	addi	a2,sp,8
     88e:	16c2                	slli	a3,a3,0x30
     890:	97b2                	add	a5,a5,a2
     892:	92c1                	srli	a3,a3,0x30
     894:	02000513          	li	a0,32
     898:	00a78023          	sb	a0,0(a5)
     89c:	fff68613          	addi	a2,a3,-1
     8a0:	4811                	li	a6,4
     8a2:	0785                	addi	a5,a5,1
     8a4:	05067663          	bgeu	a2,a6,8f0 <__fopen+0x19e>
     8a8:	4689                	li	a3,2
     8aa:	02d67863          	bgeu	a2,a3,8da <__fopen+0x188>
     8ae:	ee060fe3          	beqz	a2,7ac <__fopen+0x5a>
     8b2:	02000693          	li	a3,32
     8b6:	00d78023          	sb	a3,0(a5)
     8ba:	bdcd                	j	7ac <__fopen+0x5a>
     8bc:	470d                	li	a4,3
     8be:	9f1d                	subw	a4,a4,a5
     8c0:	1742                	slli	a4,a4,0x30
     8c2:	9341                	srli	a4,a4,0x30
     8c4:	4689                	li	a3,2
     8c6:	978a                	add	a5,a5,sp
     8c8:	04d77363          	bgeu	a4,a3,90e <__fopen+0x1bc>
     8cc:	f00706e3          	beqz	a4,7d8 <__fopen+0x86>
     8d0:	02000713          	li	a4,32
     8d4:	00e78023          	sb	a4,0(a5)
     8d8:	b701                	j	7d8 <__fopen+0x86>
     8da:	02000693          	li	a3,32
     8de:	00d78023          	sb	a3,0(a5)
     8e2:	00d780a3          	sb	a3,1(a5)
     8e6:	1679                	addi	a2,a2,-2
     8e8:	0789                	addi	a5,a5,2
     8ea:	ec0601e3          	beqz	a2,7ac <__fopen+0x5a>
     8ee:	b7d1                	j	8b2 <__fopen+0x160>
     8f0:	00a78023          	sb	a0,0(a5)
     8f4:	00a780a3          	sb	a0,1(a5)
     8f8:	00a78123          	sb	a0,2(a5)
     8fc:	00a781a3          	sb	a0,3(a5)
     900:	ffb68613          	addi	a2,a3,-5
     904:	4689                	li	a3,2
     906:	0791                	addi	a5,a5,4
     908:	fad663e3          	bltu	a2,a3,8ae <__fopen+0x15c>
     90c:	b7f9                	j	8da <__fopen+0x188>
     90e:	02000693          	li	a3,32
     912:	00d78023          	sb	a3,0(a5)
     916:	00d780a3          	sb	a3,1(a5)
     91a:	1779                	addi	a4,a4,-2 # ffe <__delay+0xc>
     91c:	0789                	addi	a5,a5,2
     91e:	ea070de3          	beqz	a4,7d8 <__fopen+0x86>
     922:	b77d                	j	8d0 <__fopen+0x17e>

0000000000000924 <__fseek>:
     924:	4705                	li	a4,1
     926:	87aa                	mv	a5,a0
     928:	00e60863          	beq	a2,a4,938 <__fseek+0x14>
     92c:	4709                	li	a4,2
     92e:	00e60a63          	beq	a2,a4,942 <__fseek+0x1e>
     932:	4501                	li	a0,0
     934:	c601                	beqz	a2,93c <__fseek+0x18>
     936:	8082                	ret
     938:	5518                	lw	a4,40(a0)
     93a:	9db9                	addw	a1,a1,a4
     93c:	d78c                	sw	a1,40(a5)
     93e:	4505                	li	a0,1
     940:	8082                	ret
     942:	4d58                	lw	a4,28(a0)
     944:	4505                	li	a0,1
     946:	9db9                	addw	a1,a1,a4
     948:	d78c                	sw	a1,40(a5)
     94a:	8082                	ret

000000000000094c <__fread>:
     94c:	551c                	lw	a5,40(a0)
     94e:	14060063          	beqz	a2,a8e <__fread+0x142>
     952:	711d                	addi	sp,sp,-96
     954:	fc4e                	sd	s3,56(sp)
     956:	6985                	lui	s3,0x1
     958:	03898993          	addi	s3,s3,56 # 1038 <__dec2hex+0xc>
     95c:	e8a2                	sd	s0,80(sp)
     95e:	e4a6                	sd	s1,72(sp)
     960:	e0ca                	sd	s2,64(sp)
     962:	f852                	sd	s4,48(sp)
     964:	f456                	sd	s5,40(sp)
     966:	ec5e                	sd	s7,24(sp)
     968:	e466                	sd	s9,8(sp)
     96a:	ec86                	sd	ra,88(sp)
     96c:	f05a                	sd	s6,32(sp)
     96e:	e862                	sd	s8,16(sp)
     970:	e06a                	sd	s10,0(sp)
     972:	842a                	mv	s0,a0
     974:	8bb2                	mv	s7,a2
     976:	892e                	mv	s2,a1
     978:	1ff7fc93          	andi	s9,a5,511
     97c:	4481                	li	s1,0
     97e:	1ff00a13          	li	s4,511
     982:	99aa                	add	s3,s3,a0
     984:	20000a93          	li	s5,512
     988:	a889                	j	9da <__fread+0x8e>
     98a:	060c9163          	bnez	s9,9ec <__fread+0xa0>
     98e:	0ee68763          	beq	a3,a4,a7c <__fread+0x130>
     992:	7018                	ld	a4,32(s0)
     994:	8522                	mv	a0,s0
     996:	01274783          	lbu	a5,18(a4)
     99a:	01075b03          	lhu	s6,16(a4)
     99e:	02fc55bb          	divuw	a1,s8,a5
     9a2:	02fc77bb          	remuw	a5,s8,a5
     9a6:	00fb0b3b          	addw	s6,s6,a5
     9aa:	bf7ff0ef          	jal	ra,5a0 <__get_clst>
     9ae:	701c                	ld	a5,32(s0)
     9b0:	85ca                	mv	a1,s2
     9b2:	0127c783          	lbu	a5,18(a5)
     9b6:	02a7853b          	mulw	a0,a5,a0
     9ba:	0165053b          	addw	a0,a0,s6
     9be:	382000ef          	jal	ra,d40 <__sd_readblk>
     9c2:	c561                	beqz	a0,a8a <__fread+0x13e>
     9c4:	541c                	lw	a5,40(s0)
     9c6:	2004849b          	addiw	s1,s1,512
     9ca:	20090913          	addi	s2,s2,512
     9ce:	2007879b          	addiw	a5,a5,512
     9d2:	d41c                	sw	a5,40(s0)
     9d4:	4c81                	li	s9,0
     9d6:	0974f263          	bgeu	s1,s7,a5a <__fread+0x10e>
     9da:	409b8b3b          	subw	s6,s7,s1
     9de:	5458                	lw	a4,44(s0)
     9e0:	0097dc1b          	srliw	s8,a5,0x9
     9e4:	0097d69b          	srliw	a3,a5,0x9
     9e8:	fb6a61e3          	bltu	s4,s6,98a <__fread+0x3e>
     9ec:	02e68e63          	beq	a3,a4,a28 <__fread+0xdc>
     9f0:	7018                	ld	a4,32(s0)
     9f2:	8522                	mv	a0,s0
     9f4:	01274783          	lbu	a5,18(a4)
     9f8:	01075d03          	lhu	s10,16(a4)
     9fc:	02fc55bb          	divuw	a1,s8,a5
     a00:	02fc77bb          	remuw	a5,s8,a5
     a04:	00fd0d3b          	addw	s10,s10,a5
     a08:	b99ff0ef          	jal	ra,5a0 <__get_clst>
     a0c:	701c                	ld	a5,32(s0)
     a0e:	85ce                	mv	a1,s3
     a10:	0127c783          	lbu	a5,18(a5)
     a14:	02a7853b          	mulw	a0,a5,a0
     a18:	01a5053b          	addw	a0,a0,s10
     a1c:	324000ef          	jal	ra,d40 <__sd_readblk>
     a20:	c52d                	beqz	a0,a8a <__fread+0x13e>
     a22:	541c                	lw	a5,40(s0)
     a24:	03842623          	sw	s8,44(s0)
     a28:	1ff7f793          	andi	a5,a5,511
     a2c:	40fa87bb          	subw	a5,s5,a5
     a30:	9cbd                	addw	s1,s1,a5
     a32:	0574f363          	bgeu	s1,s7,a78 <__fread+0x12c>
     a36:	8b3e                	mv	s6,a5
     a38:	854a                	mv	a0,s2
     a3a:	019985b3          	add	a1,s3,s9
     a3e:	865a                	mv	a2,s6
     a40:	580000ef          	jal	ra,fc0 <__memcpy>
     a44:	541c                	lw	a5,40(s0)
     a46:	020b1713          	slli	a4,s6,0x20
     a4a:	9301                	srli	a4,a4,0x20
     a4c:	016787bb          	addw	a5,a5,s6
     a50:	d41c                	sw	a5,40(s0)
     a52:	993a                	add	s2,s2,a4
     a54:	4c81                	li	s9,0
     a56:	f974e2e3          	bltu	s1,s7,9da <__fread+0x8e>
     a5a:	4505                	li	a0,1
     a5c:	60e6                	ld	ra,88(sp)
     a5e:	6446                	ld	s0,80(sp)
     a60:	64a6                	ld	s1,72(sp)
     a62:	6906                	ld	s2,64(sp)
     a64:	79e2                	ld	s3,56(sp)
     a66:	7a42                	ld	s4,48(sp)
     a68:	7aa2                	ld	s5,40(sp)
     a6a:	7b02                	ld	s6,32(sp)
     a6c:	6be2                	ld	s7,24(sp)
     a6e:	6c42                	ld	s8,16(sp)
     a70:	6ca2                	ld	s9,8(sp)
     a72:	6d02                	ld	s10,0(sp)
     a74:	6125                	addi	sp,sp,96
     a76:	8082                	ret
     a78:	84de                	mv	s1,s7
     a7a:	bf7d                	j	a38 <__fread+0xec>
     a7c:	20000613          	li	a2,512
     a80:	85ce                	mv	a1,s3
     a82:	854a                	mv	a0,s2
     a84:	53c000ef          	jal	ra,fc0 <__memcpy>
     a88:	bf35                	j	9c4 <__fread+0x78>
     a8a:	4501                	li	a0,0
     a8c:	bfc1                	j	a5c <__fread+0x110>
     a8e:	4505                	li	a0,1
     a90:	8082                	ret

0000000000000a92 <__dma_cfg>:
     a92:	00a8989b          	slliw	a7,a7,0xa
     a96:	0016969b          	slliw	a3,a3,0x1
     a9a:	0047171b          	slliw	a4,a4,0x4
     a9e:	00d8e8b3          	or	a7,a7,a3
     aa2:	00e8e8b3          	or	a7,a7,a4
     aa6:	0067979b          	slliw	a5,a5,0x6
     aaa:	10002737          	lui	a4,0x10002
     aae:	00f8e8b3          	or	a7,a7,a5
     ab2:	0088181b          	slliw	a6,a6,0x8
     ab6:	80a72023          	sw	a0,-2048(a4) # 10001800 <__stack+0xffc1800>
     aba:	0108e8b3          	or	a7,a7,a6
     abe:	80b72223          	sw	a1,-2044(a4)
     ac2:	0018e893          	ori	a7,a7,1
     ac6:	80c72423          	sw	a2,-2040(a4)
     aca:	2881                	sext.w	a7,a7
     acc:	81172623          	sw	a7,-2036(a4)
     ad0:	8082                	ret

0000000000000ad2 <__dma_busy>:
     ad2:	100027b7          	lui	a5,0x10002
     ad6:	80c7a503          	lw	a0,-2036(a5) # 1000180c <__stack+0xffc180c>
     ada:	01f5551b          	srliw	a0,a0,0x1f
     ade:	8082                	ret

0000000000000ae0 <__spi_init>:
     ae0:	100027b7          	lui	a5,0x10002
     ae4:	8007a823          	sw	zero,-2032(a5) # 10001810 <__stack+0xffc1810>
     ae8:	4705                	li	a4,1
     aea:	80e7ac23          	sw	a4,-2024(a5)
     aee:	100017b7          	lui	a5,0x10001
     af2:	0007a023          	sw	zero,0(a5) # 10001000 <__stack+0xffc1000>
     af6:	04400793          	li	a5,68
     afa:	e501                	bnez	a0,b02 <__spi_init+0x22>
     afc:	67c1                	lui	a5,0x10
     afe:	04478793          	addi	a5,a5,68 # 10044 <__data_end+0xe267>
     b02:	0035151b          	slliw	a0,a0,0x3
     b06:	03857513          	andi	a0,a0,56
     b0a:	8d5d                	or	a0,a0,a5
     b0c:	100017b7          	lui	a5,0x10001
     b10:	c388                	sw	a0,0(a5)
     b12:	4505                	li	a0,1
     b14:	8082                	ret

0000000000000b16 <__spi_rwbyte>:
     b16:	10001737          	lui	a4,0x10001
     b1a:	471c                	lw	a5,8(a4)
     b1c:	8b85                	andi	a5,a5,1
     b1e:	dff5                	beqz	a5,b1a <__spi_rwbyte+0x4>
     b20:	2501                	sext.w	a0,a0
     b22:	c748                	sw	a0,12(a4)
     b24:	10001737          	lui	a4,0x10001
     b28:	471c                	lw	a5,8(a4)
     b2a:	8b89                	andi	a5,a5,2
     b2c:	dff5                	beqz	a5,b28 <__spi_rwbyte+0x12>
     b2e:	4748                	lw	a0,12(a4)
     b30:	0ff57513          	zext.b	a0,a0
     b34:	8082                	ret

0000000000000b36 <__sd_getresp>:
     b36:	c595                	beqz	a1,b62 <__sd_getresp+0x2c>
     b38:	02059693          	slli	a3,a1,0x20
     b3c:	9281                	srli	a3,a3,0x20
     b3e:	96aa                	add	a3,a3,a0
     b40:	10001737          	lui	a4,0x10001
     b44:	0ff00613          	li	a2,255
     b48:	471c                	lw	a5,8(a4)
     b4a:	8b85                	andi	a5,a5,1
     b4c:	dff5                	beqz	a5,b48 <__sd_getresp+0x12>
     b4e:	c750                	sw	a2,12(a4)
     b50:	471c                	lw	a5,8(a4)
     b52:	8b89                	andi	a5,a5,2
     b54:	dff5                	beqz	a5,b50 <__sd_getresp+0x1a>
     b56:	475c                	lw	a5,12(a4)
     b58:	0505                	addi	a0,a0,1
     b5a:	fef50fa3          	sb	a5,-1(a0)
     b5e:	fed515e3          	bne	a0,a3,b48 <__sd_getresp+0x12>
     b62:	4505                	li	a0,1
     b64:	8082                	ret

0000000000000b66 <__sd_sendcmd>:
     b66:	04056513          	ori	a0,a0,64
     b6a:	10001737          	lui	a4,0x10001
     b6e:	471c                	lw	a5,8(a4)
     b70:	8b85                	andi	a5,a5,1
     b72:	dff5                	beqz	a5,b6e <__sd_sendcmd+0x8>
     b74:	0005079b          	sext.w	a5,a0
     b78:	c75c                	sw	a5,12(a4)
     b7a:	10001737          	lui	a4,0x10001
     b7e:	471c                	lw	a5,8(a4)
     b80:	8b89                	andi	a5,a5,2
     b82:	dff5                	beqz	a5,b7e <__sd_sendcmd+0x18>
     b84:	475c                	lw	a5,12(a4)
     b86:	0185d69b          	srliw	a3,a1,0x18
     b8a:	10001737          	lui	a4,0x10001
     b8e:	471c                	lw	a5,8(a4)
     b90:	8b85                	andi	a5,a5,1
     b92:	dff5                	beqz	a5,b8e <__sd_sendcmd+0x28>
     b94:	c754                	sw	a3,12(a4)
     b96:	10001737          	lui	a4,0x10001
     b9a:	471c                	lw	a5,8(a4)
     b9c:	8b89                	andi	a5,a5,2
     b9e:	dff5                	beqz	a5,b9a <__sd_sendcmd+0x34>
     ba0:	475c                	lw	a5,12(a4)
     ba2:	0105d69b          	srliw	a3,a1,0x10
     ba6:	10001737          	lui	a4,0x10001
     baa:	471c                	lw	a5,8(a4)
     bac:	8b85                	andi	a5,a5,1
     bae:	dff5                	beqz	a5,baa <__sd_sendcmd+0x44>
     bb0:	0ff6f793          	zext.b	a5,a3
     bb4:	c75c                	sw	a5,12(a4)
     bb6:	10001737          	lui	a4,0x10001
     bba:	471c                	lw	a5,8(a4)
     bbc:	8b89                	andi	a5,a5,2
     bbe:	dff5                	beqz	a5,bba <__sd_sendcmd+0x54>
     bc0:	475c                	lw	a5,12(a4)
     bc2:	0085d69b          	srliw	a3,a1,0x8
     bc6:	10001737          	lui	a4,0x10001
     bca:	471c                	lw	a5,8(a4)
     bcc:	8b85                	andi	a5,a5,1
     bce:	dff5                	beqz	a5,bca <__sd_sendcmd+0x64>
     bd0:	0ff6f793          	zext.b	a5,a3
     bd4:	c75c                	sw	a5,12(a4)
     bd6:	10001737          	lui	a4,0x10001
     bda:	471c                	lw	a5,8(a4)
     bdc:	8b89                	andi	a5,a5,2
     bde:	dff5                	beqz	a5,bda <__sd_sendcmd+0x74>
     be0:	475c                	lw	a5,12(a4)
     be2:	10001737          	lui	a4,0x10001
     be6:	471c                	lw	a5,8(a4)
     be8:	8b85                	andi	a5,a5,1
     bea:	dff5                	beqz	a5,be6 <_binary_tmp_size+0x1>
     bec:	0ff5f593          	zext.b	a1,a1
     bf0:	c74c                	sw	a1,12(a4)
     bf2:	10001737          	lui	a4,0x10001
     bf6:	471c                	lw	a5,8(a4)
     bf8:	8b89                	andi	a5,a5,2
     bfa:	dff5                	beqz	a5,bf6 <_binary_tmp_size+0x11>
     bfc:	475c                	lw	a5,12(a4)
     bfe:	00166613          	ori	a2,a2,1
     c02:	10001737          	lui	a4,0x10001
     c06:	471c                	lw	a5,8(a4)
     c08:	8b85                	andi	a5,a5,1
     c0a:	dff5                	beqz	a5,c06 <_binary_tmp_size+0x21>
     c0c:	0006079b          	sext.w	a5,a2
     c10:	c75c                	sw	a5,12(a4)
     c12:	10001737          	lui	a4,0x10001
     c16:	471c                	lw	a5,8(a4)
     c18:	8b89                	andi	a5,a5,2
     c1a:	dff5                	beqz	a5,c16 <_binary_tmp_size+0x31>
     c1c:	475c                	lw	a5,12(a4)
     c1e:	10001737          	lui	a4,0x10001
     c22:	471c                	lw	a5,8(a4)
     c24:	8b85                	andi	a5,a5,1
     c26:	dff5                	beqz	a5,c22 <_binary_tmp_size+0x3d>
     c28:	0ff00793          	li	a5,255
     c2c:	c75c                	sw	a5,12(a4)
     c2e:	10001737          	lui	a4,0x10001
     c32:	471c                	lw	a5,8(a4)
     c34:	8b89                	andi	a5,a5,2
     c36:	dff5                	beqz	a5,c32 <_binary_tmp_size+0x4d>
     c38:	4748                	lw	a0,12(a4)
     c3a:	00857793          	andi	a5,a0,8
     c3e:	0ff57513          	zext.b	a0,a0
     c42:	c79d                	beqz	a5,c70 <_binary_tmp_size+0x8b>
     c44:	6685                	lui	a3,0x1
     c46:	38868693          	addi	a3,a3,904 # 1388 <_DTB+0x190>
     c4a:	10001737          	lui	a4,0x10001
     c4e:	0ff00613          	li	a2,255
     c52:	471c                	lw	a5,8(a4)
     c54:	8b85                	andi	a5,a5,1
     c56:	dff5                	beqz	a5,c52 <_binary_tmp_size+0x6d>
     c58:	c750                	sw	a2,12(a4)
     c5a:	471c                	lw	a5,8(a4)
     c5c:	8b89                	andi	a5,a5,2
     c5e:	dff5                	beqz	a5,c5a <_binary_tmp_size+0x75>
     c60:	4748                	lw	a0,12(a4)
     c62:	00857793          	andi	a5,a0,8
     c66:	0ff57513          	zext.b	a0,a0
     c6a:	c399                	beqz	a5,c70 <_binary_tmp_size+0x8b>
     c6c:	36fd                	addiw	a3,a3,-1
     c6e:	f2f5                	bnez	a3,c52 <_binary_tmp_size+0x6d>
     c70:	8082                	ret

0000000000000c72 <__sd_rcvdata>:
     c72:	10001737          	lui	a4,0x10001
     c76:	435c                	lw	a5,4(a4)
     c78:	6685                	lui	a3,0x1
     c7a:	88aa                	mv	a7,a0
     c7c:	0047e793          	ori	a5,a5,4
     c80:	c35c                	sw	a5,4(a4)
     c82:	38a68693          	addi	a3,a3,906 # 138a <_DTB+0x192>
     c86:	0ff00593          	li	a1,255
     c8a:	0fe00813          	li	a6,254
     c8e:	471c                	lw	a5,8(a4)
     c90:	8b85                	andi	a5,a5,1
     c92:	dff5                	beqz	a5,c8e <__sd_rcvdata+0x1c>
     c94:	c74c                	sw	a1,12(a4)
     c96:	471c                	lw	a5,8(a4)
     c98:	8b89                	andi	a5,a5,2
     c9a:	dff5                	beqz	a5,c96 <__sd_rcvdata+0x24>
     c9c:	4748                	lw	a0,12(a4)
     c9e:	36fd                	addiw	a3,a3,-1
     ca0:	0ff57513          	zext.b	a0,a0
     ca4:	cab5                	beqz	a3,d18 <__sd_rcvdata+0xa6>
     ca6:	ff0514e3          	bne	a0,a6,c8e <__sd_rcvdata+0x1c>
     caa:	100027b7          	lui	a5,0x10002
     cae:	577d                	li	a4,-1
     cb0:	80e7a023          	sw	a4,-2048(a5) # 10001800 <__stack+0xffc1800>
     cb4:	0008851b          	sext.w	a0,a7
     cb8:	80a7a223          	sw	a0,-2044(a5)
     cbc:	20000713          	li	a4,512
     cc0:	80e7a423          	sw	a4,-2040(a5)
     cc4:	6705                	lui	a4,0x1
     cc6:	a6170713          	addi	a4,a4,-1439 # a61 <__fread+0x115>
     cca:	80e7a623          	sw	a4,-2036(a5)
     cce:	10002737          	lui	a4,0x10002
     cd2:	80c72783          	lw	a5,-2036(a4) # 1000180c <__stack+0xffc180c>
     cd6:	01f7d79b          	srliw	a5,a5,0x1f
     cda:	ffe5                	bnez	a5,cd2 <__sd_rcvdata+0x60>
     cdc:	10001737          	lui	a4,0x10001
     ce0:	471c                	lw	a5,8(a4)
     ce2:	8b85                	andi	a5,a5,1
     ce4:	dff5                	beqz	a5,ce0 <__sd_rcvdata+0x6e>
     ce6:	0ff00793          	li	a5,255
     cea:	c75c                	sw	a5,12(a4)
     cec:	10001737          	lui	a4,0x10001
     cf0:	471c                	lw	a5,8(a4)
     cf2:	8b89                	andi	a5,a5,2
     cf4:	dff5                	beqz	a5,cf0 <__sd_rcvdata+0x7e>
     cf6:	475c                	lw	a5,12(a4)
     cf8:	10001737          	lui	a4,0x10001
     cfc:	471c                	lw	a5,8(a4)
     cfe:	8b85                	andi	a5,a5,1
     d00:	dff5                	beqz	a5,cfc <__sd_rcvdata+0x8a>
     d02:	0ff00793          	li	a5,255
     d06:	c75c                	sw	a5,12(a4)
     d08:	10001737          	lui	a4,0x10001
     d0c:	471c                	lw	a5,8(a4)
     d0e:	8b89                	andi	a5,a5,2
     d10:	dff5                	beqz	a5,d0c <__sd_rcvdata+0x9a>
     d12:	475c                	lw	a5,12(a4)
     d14:	e219                	bnez	a2,d1a <__sd_rcvdata+0xa8>
     d16:	4505                	li	a0,1
     d18:	8082                	ret
     d1a:	435c                	lw	a5,4(a4)
     d1c:	100016b7          	lui	a3,0x10001
     d20:	9bed                	andi	a5,a5,-5
     d22:	c35c                	sw	a5,4(a4)
     d24:	469c                	lw	a5,8(a3)
     d26:	8b85                	andi	a5,a5,1
     d28:	dff5                	beqz	a5,d24 <__sd_rcvdata+0xb2>
     d2a:	0ff00793          	li	a5,255
     d2e:	c6dc                	sw	a5,12(a3)
     d30:	10001737          	lui	a4,0x10001
     d34:	471c                	lw	a5,8(a4)
     d36:	8b89                	andi	a5,a5,2
     d38:	dff5                	beqz	a5,d34 <__sd_rcvdata+0xc2>
     d3a:	475c                	lw	a5,12(a4)
     d3c:	4505                	li	a0,1
     d3e:	bfe9                	j	d18 <__sd_rcvdata+0xa6>

0000000000000d40 <__sd_readblk>:
     d40:	100016b7          	lui	a3,0x10001
     d44:	42dc                	lw	a5,4(a3)
     d46:	1141                	addi	sp,sp,-16
     d48:	e022                	sd	s0,0(sp)
     d4a:	e406                	sd	ra,8(sp)
     d4c:	0047e793          	ori	a5,a5,4
     d50:	842e                	mv	s0,a1
     d52:	c2dc                	sw	a5,4(a3)
     d54:	85aa                	mv	a1,a0
     d56:	4601                	li	a2,0
     d58:	4545                	li	a0,17
     d5a:	e0dff0ef          	jal	ra,b66 <__sd_sendcmd>
     d5e:	c511                	beqz	a0,d6a <__sd_readblk+0x2a>
     d60:	60a2                	ld	ra,8(sp)
     d62:	6402                	ld	s0,0(sp)
     d64:	4501                	li	a0,0
     d66:	0141                	addi	sp,sp,16
     d68:	8082                	ret
     d6a:	8522                	mv	a0,s0
     d6c:	6402                	ld	s0,0(sp)
     d6e:	60a2                	ld	ra,8(sp)
     d70:	4605                	li	a2,1
     d72:	20000593          	li	a1,512
     d76:	0141                	addi	sp,sp,16
     d78:	bded                	j	c72 <__sd_rcvdata>

0000000000000d7a <__sd_init>:
     d7a:	7139                	addi	sp,sp,-64
     d7c:	f822                	sd	s0,48(sp)
     d7e:	f426                	sd	s1,40(sp)
     d80:	fc06                	sd	ra,56(sp)
     d82:	f04a                	sd	s2,32(sp)
     d84:	ec4e                	sd	s3,24(sp)
     d86:	100027b7          	lui	a5,0x10002
     d8a:	8007a823          	sw	zero,-2032(a5) # 10001810 <__stack+0xffc1810>
     d8e:	4705                	li	a4,1
     d90:	80e7ac23          	sw	a4,-2024(a5)
     d94:	100014b7          	lui	s1,0x10001
     d98:	07c00793          	li	a5,124
     d9c:	0004a023          	sw	zero,0(s1) # 10001000 <__stack+0xffc1000>
     da0:	c09c                	sw	a5,0(s1)
     da2:	842a                	mv	s0,a0
     da4:	4505                	li	a0,1
     da6:	24c000ef          	jal	ra,ff2 <__delay>
     daa:	40dc                	lw	a5,4(s1)
     dac:	46a9                	li	a3,10
     dae:	10001737          	lui	a4,0x10001
     db2:	9bed                	andi	a5,a5,-5
     db4:	c0dc                	sw	a5,4(s1)
     db6:	0ff00613          	li	a2,255
     dba:	471c                	lw	a5,8(a4)
     dbc:	8b85                	andi	a5,a5,1
     dbe:	dff5                	beqz	a5,dba <__sd_init+0x40>
     dc0:	c750                	sw	a2,12(a4)
     dc2:	471c                	lw	a5,8(a4)
     dc4:	8b89                	andi	a5,a5,2
     dc6:	dff5                	beqz	a5,dc2 <__sd_init+0x48>
     dc8:	36fd                	addiw	a3,a3,-1 # 10000fff <__stack+0xffc0fff>
     dca:	475c                	lw	a5,12(a4)
     dcc:	0ff6f693          	zext.b	a3,a3
     dd0:	f6ed                	bnez	a3,dba <__sd_init+0x40>
     dd2:	435c                	lw	a5,4(a4)
     dd4:	3ea00493          	li	s1,1002
     dd8:	4905                	li	s2,1
     dda:	0047e793          	ori	a5,a5,4
     dde:	c35c                	sw	a5,4(a4)
     de0:	09500613          	li	a2,149
     de4:	4581                	li	a1,0
     de6:	4501                	li	a0,0
     de8:	34fd                	addiw	s1,s1,-1
     dea:	d7dff0ef          	jal	ra,b66 <__sd_sendcmd>
     dee:	c8c9                	beqz	s1,e80 <__sd_init+0x106>
     df0:	ff2518e3          	bne	a0,s2,de0 <__sd_init+0x66>
     df4:	08700613          	li	a2,135
     df8:	1aa00593          	li	a1,426
     dfc:	4521                	li	a0,8
     dfe:	d69ff0ef          	jal	ra,b66 <__sd_sendcmd>
     e02:	4795                	li	a5,5
     e04:	04f50863          	beq	a0,a5,e54 <__sd_init+0xda>
     e08:	09250463          	beq	a0,s2,e90 <__sd_init+0x116>
     e0c:	100027b7          	lui	a5,0x10002
     e10:	8007a823          	sw	zero,-2032(a5) # 10001810 <__stack+0xffc1810>
     e14:	4705                	li	a4,1
     e16:	80e7ac23          	sw	a4,-2024(a5)
     e1a:	100017b7          	lui	a5,0x10001
     e1e:	0007a023          	sw	zero,0(a5) # 10001000 <__stack+0xffc1000>
     e22:	05400713          	li	a4,84
     e26:	09500613          	li	a2,149
     e2a:	4581                	li	a1,0
     e2c:	c398                	sw	a4,0(a5)
     e2e:	03b00513          	li	a0,59
     e32:	d35ff0ef          	jal	ra,b66 <__sd_sendcmd>
     e36:	09500613          	li	a2,149
     e3a:	20000593          	li	a1,512
     e3e:	4541                	li	a0,16
     e40:	d27ff0ef          	jal	ra,b66 <__sd_sendcmd>
     e44:	70e2                	ld	ra,56(sp)
     e46:	7442                	ld	s0,48(sp)
     e48:	74a2                	ld	s1,40(sp)
     e4a:	7902                	ld	s2,32(sp)
     e4c:	69e2                	ld	s3,24(sp)
     e4e:	4509                	li	a0,2
     e50:	6121                	addi	sp,sp,64
     e52:	8082                	ret
     e54:	0034                	addi	a3,sp,8
     e56:	006c                	addi	a1,sp,12
     e58:	10001737          	lui	a4,0x10001
     e5c:	0ff00613          	li	a2,255
     e60:	471c                	lw	a5,8(a4)
     e62:	8b85                	andi	a5,a5,1
     e64:	dff5                	beqz	a5,e60 <__sd_init+0xe6>
     e66:	c750                	sw	a2,12(a4)
     e68:	471c                	lw	a5,8(a4)
     e6a:	8b89                	andi	a5,a5,2
     e6c:	dff5                	beqz	a5,e68 <__sd_init+0xee>
     e6e:	475c                	lw	a5,12(a4)
     e70:	0685                	addi	a3,a3,1
     e72:	fef68fa3          	sb	a5,-1(a3)
     e76:	fed595e3          	bne	a1,a3,e60 <__sd_init+0xe6>
     e7a:	00040023          	sb	zero,0(s0)
     e7e:	b779                	j	e0c <__sd_init+0x92>
     e80:	70e2                	ld	ra,56(sp)
     e82:	7442                	ld	s0,48(sp)
     e84:	74a2                	ld	s1,40(sp)
     e86:	7902                	ld	s2,32(sp)
     e88:	69e2                	ld	s3,24(sp)
     e8a:	4505                	li	a0,1
     e8c:	6121                	addi	sp,sp,64
     e8e:	8082                	ret
     e90:	0024                	addi	s1,sp,8
     e92:	00c10913          	addi	s2,sp,12
     e96:	86a6                	mv	a3,s1
     e98:	10001737          	lui	a4,0x10001
     e9c:	0ff00613          	li	a2,255
     ea0:	471c                	lw	a5,8(a4)
     ea2:	8b85                	andi	a5,a5,1
     ea4:	dff5                	beqz	a5,ea0 <__sd_init+0x126>
     ea6:	c750                	sw	a2,12(a4)
     ea8:	471c                	lw	a5,8(a4)
     eaa:	8b89                	andi	a5,a5,2
     eac:	dff5                	beqz	a5,ea8 <__sd_init+0x12e>
     eae:	475c                	lw	a5,12(a4)
     eb0:	0685                	addi	a3,a3,1
     eb2:	fef68fa3          	sb	a5,-1(a3)
     eb6:	ff2695e3          	bne	a3,s2,ea0 <__sd_init+0x126>
     eba:	3e900993          	li	s3,1001
     ebe:	4601                	li	a2,0
     ec0:	4581                	li	a1,0
     ec2:	03700513          	li	a0,55
     ec6:	ca1ff0ef          	jal	ra,b66 <__sd_sendcmd>
     eca:	4601                	li	a2,0
     ecc:	400005b7          	lui	a1,0x40000
     ed0:	02900513          	li	a0,41
     ed4:	39fd                	addiw	s3,s3,-1
     ed6:	c91ff0ef          	jal	ra,b66 <__sd_sendcmd>
     eda:	00098363          	beqz	s3,ee0 <__sd_init+0x166>
     ede:	f165                	bnez	a0,ebe <__sd_init+0x144>
     ee0:	3e900993          	li	s3,1001
     ee4:	4601                	li	a2,0
     ee6:	4581                	li	a1,0
     ee8:	03a00513          	li	a0,58
     eec:	39fd                	addiw	s3,s3,-1
     eee:	c79ff0ef          	jal	ra,b66 <__sd_sendcmd>
     ef2:	00098363          	beqz	s3,ef8 <__sd_init+0x17e>
     ef6:	f57d                	bnez	a0,ee4 <__sd_init+0x16a>
     ef8:	10001737          	lui	a4,0x10001
     efc:	0ff00693          	li	a3,255
     f00:	471c                	lw	a5,8(a4)
     f02:	8b85                	andi	a5,a5,1
     f04:	dff5                	beqz	a5,f00 <__sd_init+0x186>
     f06:	c754                	sw	a3,12(a4)
     f08:	471c                	lw	a5,8(a4)
     f0a:	8b89                	andi	a5,a5,2
     f0c:	dff5                	beqz	a5,f08 <__sd_init+0x18e>
     f0e:	475c                	lw	a5,12(a4)
     f10:	0485                	addi	s1,s1,1
     f12:	fef48fa3          	sb	a5,-1(s1)
     f16:	ff2495e3          	bne	s1,s2,f00 <__sd_init+0x186>
     f1a:	00814783          	lbu	a5,8(sp)
     f1e:	0407f793          	andi	a5,a5,64
     f22:	00f037b3          	snez	a5,a5
     f26:	0789                	addi	a5,a5,2
     f28:	00f40023          	sb	a5,0(s0)
     f2c:	b5c5                	j	e0c <__sd_init+0x92>

0000000000000f2e <__uart_init>:
     f2e:	100007b7          	lui	a5,0x10000
     f32:	4705                	li	a4,1
     f34:	c798                	sw	a4,8(a5)
     f36:	c7d8                	sw	a4,12(a5)
     f38:	0007a823          	sw	zero,16(a5) # 10000010 <__stack+0xffc0010>
     f3c:	10000737          	lui	a4,0x10000
     f40:	435c                	lw	a5,4(a4)
     f42:	fef04fe3          	bgtz	a5,f40 <__uart_init+0x12>
     f46:	8082                	ret

0000000000000f48 <__putch>:
     f48:	10000737          	lui	a4,0x10000
     f4c:	40a727af          	amoor.w	a5,a0,(a4)
     f50:	2781                	sext.w	a5,a5
     f52:	fe07cde3          	bltz	a5,f4c <__putch+0x4>
     f56:	8082                	ret

0000000000000f58 <__puts>:
     f58:	00054683          	lbu	a3,0(a0)
     f5c:	862a                	mv	a2,a0
     f5e:	4501                	li	a0,0
     f60:	ce89                	beqz	a3,f7a <__puts+0x22>
     f62:	10000737          	lui	a4,0x10000
     f66:	0605                	addi	a2,a2,1
     f68:	40d727af          	amoor.w	a5,a3,(a4)
     f6c:	2781                	sext.w	a5,a5
     f6e:	fe07cde3          	bltz	a5,f68 <__puts+0x10>
     f72:	00064683          	lbu	a3,0(a2)
     f76:	2505                	addiw	a0,a0,1
     f78:	f6fd                	bnez	a3,f66 <__puts+0xe>
     f7a:	10000737          	lui	a4,0x10000
     f7e:	46a9                	li	a3,10
     f80:	40d727af          	amoor.w	a5,a3,(a4)
     f84:	2781                	sext.w	a5,a5
     f86:	fe07cde3          	bltz	a5,f80 <__puts+0x28>
     f8a:	8082                	ret

0000000000000f8c <__strcmp>:
     f8c:	fff6069b          	addiw	a3,a2,-1
     f90:	c605                	beqz	a2,fb8 <__strcmp+0x2c>
     f92:	1682                	slli	a3,a3,0x20
     f94:	9281                	srli	a3,a3,0x20
     f96:	0685                	addi	a3,a3,1
     f98:	96aa                	add	a3,a3,a0
     f9a:	a029                	j	fa4 <__strcmp+0x18>
     f9c:	02e7e063          	bltu	a5,a4,fbc <__strcmp+0x30>
     fa0:	00d50c63          	beq	a0,a3,fb8 <__strcmp+0x2c>
     fa4:	00054703          	lbu	a4,0(a0)
     fa8:	0005c783          	lbu	a5,0(a1) # 40000000 <__stack+0x3ffc0000>
     fac:	0505                	addi	a0,a0,1
     fae:	0585                	addi	a1,a1,1
     fb0:	fef776e3          	bgeu	a4,a5,f9c <__strcmp+0x10>
     fb4:	557d                	li	a0,-1
     fb6:	8082                	ret
     fb8:	4501                	li	a0,0
     fba:	8082                	ret
     fbc:	4505                	li	a0,1
     fbe:	8082                	ret

0000000000000fc0 <__memcpy>:
     fc0:	1141                	addi	sp,sp,-16
     fc2:	832e                	mv	t1,a1
     fc4:	e022                	sd	s0,0(sp)
     fc6:	0005059b          	sext.w	a1,a0
     fca:	842a                	mv	s0,a0
     fcc:	4889                	li	a7,2
     fce:	4809                	li	a6,2
     fd0:	4785                	li	a5,1
     fd2:	4705                	li	a4,1
     fd4:	4685                	li	a3,1
     fd6:	0003051b          	sext.w	a0,t1
     fda:	e406                	sd	ra,8(sp)
     fdc:	ab7ff0ef          	jal	ra,a92 <__dma_cfg>
     fe0:	af3ff0ef          	jal	ra,ad2 <__dma_busy>
     fe4:	2501                	sext.w	a0,a0
     fe6:	fd6d                	bnez	a0,fe0 <__memcpy+0x20>
     fe8:	60a2                	ld	ra,8(sp)
     fea:	8522                	mv	a0,s0
     fec:	6402                	ld	s0,0(sp)
     fee:	0141                	addi	sp,sp,16
     ff0:	8082                	ret

0000000000000ff2 <__delay>:
     ff2:	000f47b7          	lui	a5,0xf4
     ff6:	2407879b          	addiw	a5,a5,576 # f4240 <__stack+0xb4240>
     ffa:	02a787bb          	mulw	a5,a5,a0
     ffe:	3e800613          	li	a2,1000
    1002:	0800c737          	lui	a4,0x800c
    1006:	ff873683          	ld	a3,-8(a4) # 800bff8 <__stack+0x7fcbff8>
    100a:	08000713          	li	a4,128
    100e:	02c7d7bb          	divuw	a5,a5,a2
    1012:	1782                	slli	a5,a5,0x20
    1014:	9381                	srli	a5,a5,0x20
    1016:	97b6                	add	a5,a5,a3
    1018:	080046b7          	lui	a3,0x8004
    101c:	e29c                	sd	a5,0(a3)
    101e:	30472073          	csrs	mie,a4
    1022:	10500073          	wfi
    1026:	30473073          	csrc	mie,a4
    102a:	8082                	ret

000000000000102c <__dec2hex>:
    102c:	00850713          	addi	a4,a0,8
    1030:	01c5d79b          	srliw	a5,a1,0x1c
    1034:	0505                	addi	a0,a0,1
    1036:	0307879b          	addiw	a5,a5,48
    103a:	fef50fa3          	sb	a5,-1(a0)
    103e:	0045959b          	slliw	a1,a1,0x4
    1042:	fee517e3          	bne	a0,a4,1030 <__dec2hex+0x4>
    1046:	8082                	ret

0000000000001048 <main>:
    1048:	b4010113          	addi	sp,sp,-1216
    104c:	4a813823          	sd	s0,1200(sp)
    1050:	49413823          	sd	s4,1168(sp)
    1054:	00001797          	auipc	a5,0x1
    1058:	d8c78793          	addi	a5,a5,-628 # 1de0 <__data_end+0x3>
    105c:	747d                	lui	s0,0xfffff
    105e:	6a05                	lui	s4,0x1
    1060:	6390                	ld	a2,0(a5)
    1062:	6794                	ld	a3,8(a5)
    1064:	72fd                	lui	t0,0xfffff
    1066:	4b98                	lw	a4,16(a5)
    1068:	4b213023          	sd	s2,1184(sp)
    106c:	0147c783          	lbu	a5,20(a5)
    1070:	ba840913          	addi	s2,s0,-1112 # ffffffffffffeba8 <__stack+0xfffffffffffbeba8>
    1074:	490a0593          	addi	a1,s4,1168 # 1490 <_DTB+0x298>
    1078:	4a113c23          	sd	ra,1208(sp)
    107c:	4a913423          	sd	s1,1192(sp)
    1080:	49313c23          	sd	s3,1176(sp)
    1084:	95ca                	add	a1,a1,s2
    1086:	9116                	add	sp,sp,t0
    1088:	00258933          	add	s2,a1,sp
    108c:	e832                	sd	a2,16(sp)
    108e:	ec36                	sd	a3,24(sp)
    1090:	d03a                	sw	a4,32(sp)
    1092:	02f10223          	sb	a5,36(sp)
    1096:	577d                	li	a4,-1
    1098:	0c0017b7          	lui	a5,0xc001
    109c:	020102a3          	sb	zero,37(sp)
    10a0:	02010323          	sb	zero,38(sp)
    10a4:	020103a3          	sb	zero,39(sp)
    10a8:	02010423          	sb	zero,40(sp)
    10ac:	020104a3          	sb	zero,41(sp)
    10b0:	02010523          	sb	zero,42(sp)
    10b4:	020105a3          	sb	zero,43(sp)
    10b8:	02010623          	sb	zero,44(sp)
    10bc:	020106a3          	sb	zero,45(sp)
    10c0:	02010723          	sb	zero,46(sp)
    10c4:	020107a3          	sb	zero,47(sp)
    10c8:	02010823          	sb	zero,48(sp)
    10cc:	020108a3          	sb	zero,49(sp)
    10d0:	02010923          	sb	zero,50(sp)
    10d4:	020109a3          	sb	zero,51(sp)
    10d8:	27213c23          	sd	s2,632(sp)
    10dc:	08e7a023          	sw	a4,128(a5) # c001080 <__stack+0xbfc1080>
    10e0:	e4fff0ef          	jal	ra,f2e <__uart_init>
    10e4:	00001517          	auipc	a0,0x1
    10e8:	d5450513          	addi	a0,a0,-684 # 1e38 <__data_end+0x5b>
    10ec:	e6dff0ef          	jal	ra,f58 <__puts>
    10f0:	040009b7          	lui	s3,0x4000
    10f4:	b8040493          	addi	s1,s0,-1152
    10f8:	490a0793          	addi	a5,s4,1168
    10fc:	97a6                	add	a5,a5,s1
    10fe:	0189a583          	lw	a1,24(s3) # 4000018 <__stack+0x3fc0018>
    1102:	002784b3          	add	s1,a5,sp
    1106:	01348513          	addi	a0,s1,19
    110a:	f23ff0ef          	jal	ra,102c <__dec2hex>
    110e:	01c9a583          	lw	a1,28(s3)
    1112:	01b48513          	addi	a0,s1,27
    1116:	f17ff0ef          	jal	ra,102c <__dec2hex>
    111a:	8526                	mv	a0,s1
    111c:	020109a3          	sb	zero,51(sp)
    1120:	e39ff0ef          	jal	ra,f58 <__puts>
    1124:	00001517          	auipc	a0,0x1
    1128:	d2c50513          	addi	a0,a0,-724 # 1e50 <__data_end+0x73>
    112c:	e2dff0ef          	jal	ra,f58 <__puts>
    1130:	b7f40513          	addi	a0,s0,-1153
    1134:	490a0793          	addi	a5,s4,1168
    1138:	97aa                	add	a5,a5,a0
    113a:	00278533          	add	a0,a5,sp
    113e:	c3dff0ef          	jal	ra,d7a <__sd_init>
    1142:	00001517          	auipc	a0,0x1
    1146:	d2650513          	addi	a0,a0,-730 # 1e68 <__data_end+0x8b>
    114a:	e0fff0ef          	jal	ra,f58 <__puts>
    114e:	854a                	mv	a0,s2
    1150:	94aff0ef          	jal	ra,29a <__fat_bpb_init>
    1154:	00001517          	auipc	a0,0x1
    1158:	d2c50513          	addi	a0,a0,-724 # 1e80 <__data_end+0xa3>
    115c:	dfdff0ef          	jal	ra,f58 <__puts>
    1160:	dc840413          	addi	s0,s0,-568
    1164:	490a0793          	addi	a5,s4,1168
    1168:	97a2                	add	a5,a5,s0
    116a:	00278433          	add	s0,a5,sp
    116e:	00001597          	auipc	a1,0x1
    1172:	d2258593          	addi	a1,a1,-734 # 1e90 <__data_end+0xb3>
    1176:	8522                	mv	a0,s0
    1178:	ddaff0ef          	jal	ra,752 <__fopen>
    117c:	8522                	mv	a0,s0
    117e:	918ff0ef          	jal	ra,296 <__elf_loader>
    1182:	0109a783          	lw	a5,16(s3)
    1186:	efa1                	bnez	a5,11de <main+0x196>
    1188:	00001517          	auipc	a0,0x1
    118c:	d1050513          	addi	a0,a0,-752 # 1e98 <__data_end+0xbb>
    1190:	dc9ff0ef          	jal	ra,f58 <__puts>
    1194:	00001597          	auipc	a1,0x1
    1198:	d1c58593          	addi	a1,a1,-740 # 1eb0 <__data_end+0xd3>
    119c:	8522                	mv	a0,s0
    119e:	db4ff0ef          	jal	ra,752 <__fopen>
    11a2:	40100593          	li	a1,1025
    11a6:	05d6                	slli	a1,a1,0x15
    11a8:	8522                	mv	a0,s0
    11aa:	fbffe0ef          	jal	ra,168 <__elf_loader_reloc>
    11ae:	00001517          	auipc	a0,0x1
    11b2:	d3250513          	addi	a0,a0,-718 # 1ee0 <__data_end+0x103>
    11b6:	da3ff0ef          	jal	ra,f58 <__puts>
    11ba:	6285                	lui	t0,0x1
    11bc:	9116                	add	sp,sp,t0
    11be:	4b813083          	ld	ra,1208(sp)
    11c2:	4b013403          	ld	s0,1200(sp)
    11c6:	4a813483          	ld	s1,1192(sp)
    11ca:	4a013903          	ld	s2,1184(sp)
    11ce:	49813983          	ld	s3,1176(sp)
    11d2:	49013a03          	ld	s4,1168(sp)
    11d6:	4501                	li	a0,0
    11d8:	4c010113          	addi	sp,sp,1216
    11dc:	8082                	ret
    11de:	00001517          	auipc	a0,0x1
    11e2:	cda50513          	addi	a0,a0,-806 # 1eb8 <__data_end+0xdb>
    11e6:	d73ff0ef          	jal	ra,f58 <__puts>
    11ea:	00001597          	auipc	a1,0x1
    11ee:	ce658593          	addi	a1,a1,-794 # 1ed0 <__data_end+0xf3>
    11f2:	b76d                	j	119c <main+0x154>
