
main:     file format elf64-littleriscv
main
architecture: riscv:rv64, flags 0x00000112:
EXEC_P, HAS_SYMS, D_PAGED
start address 0x0000000000000000

Program Header:
    LOAD off    0x0000000000001000 vaddr 0x0000000000000000 paddr 0x0000000000000000 align 2**12
         filesz 0x0000000000001b72 memsz 0x0000000000001b72 flags rwx
    LOAD off    0x0000000000000000 vaddr 0x0000000000020000 paddr 0x0000000000020000 align 2**12
         filesz 0x0000000000000000 memsz 0x0000000000020000 flags rw-

Sections:
Idx Name          Size      VMA               LMA               File off  Algn
  0 .text         00001400  0000000000000000  0000000000000000  00001000  2**3
                  CONTENTS, ALLOC, LOAD, READONLY, CODE
  1 .rodata       00000039  0000000000001400  0000000000001400  00002400  2**3
                  CONTENTS, ALLOC, LOAD, READONLY, DATA
  2 .data         00000739  0000000000001439  0000000000001439  00002439  2**0
                  CONTENTS, ALLOC, LOAD, DATA
  3 .stack        00020000  0000000000020000  0000000000020000  00003000  2**0
                  ALLOC
  4 .comment      00000012  0000000000000000  0000000000000000  00002b72  2**0
                  CONTENTS, READONLY
  5 .riscv.attributes 0000002f  0000000000000000  0000000000000000  00002b84  2**0
                  CONTENTS, READONLY
SYMBOL TABLE:
0000000000000000 l    d  .text	0000000000000000 .text
0000000000001400 l    d  .rodata	0000000000000000 .rodata
0000000000001439 l    d  .data	0000000000000000 .data
0000000000020000 l    d  .stack	0000000000000000 .stack
0000000000000000 l    d  .comment	0000000000000000 .comment
0000000000000000 l    d  .riscv.attributes	0000000000000000 .riscv.attributes
0000000000000000 l    df *ABS*	0000000000000000 setup.o
000000000000003e l       .text	0000000000000000 fill_stack
00000000000000e0 l       .text	0000000000000000 fill_block
0000000000000054 l       .text	0000000000000000 init_stack
000000000000005c l       .text	0000000000000000 init_system
0000000000000098 l       .text	0000000000000000 rv64
00000000000000f0 l       .text	0000000000000000 sysram_base
00000000000000f8 l       .text	0000000000000000 sysram_size
00000000000000cc l       .text	0000000000000000 goto_main
00000000000000de l       .text	0000000000000000 dead_loop
00000000000000ea l       .text	0000000000000000 fb_end
0000000000000000 l    df *ABS*	0000000000000000 main.c
0000000000000000 l    df *ABS*	0000000000000000 elf_loader.c
0000000000000000 l    df *ABS*	0000000000000000 iolib.c
0000000000000000 l    df *ABS*	0000000000000000 spi.c
0000000000000000 l    df *ABS*	0000000000000000 uart.c
0000000000000000 l    df *ABS*	0000000000000000 util.c
000000000000118e g     F .text	0000000000000050 .hidden __puts
0000000000000732 g       *ABS*	0000000000000000 _binary_tmp_size
0000000000000c42 g     F .text	000000000000003c .hidden __spi_init
0000000000001439 g       *ABS*	0000000000000000 __data_paddr_start
000000000000137c g     F .text	000000000000005c .hidden __delay
0000000000000000 g       .text	0000000000000000 __text_start
0000000000000ab0 g     F .text	0000000000000192 .hidden __fread
0000000000000f4e g     F .text	00000000000001f6 .hidden __sd_init
0000000000000ef8 g     F .text	0000000000000056 .hidden __sd_readblk
00000000000011de g     F .text	0000000000000072 .hidden __strcmp
0000000000000000 g       .text	0000000000000000 _start
0000000000000158 g     F .text	00000000000001d8 .hidden __elf_loader
0000000000001440 g       .data	0000000000000000 _binary_tmp_start
0000000000000330 g     F .text	0000000000000400 .hidden __fat_bpb_init
0000000000001440 g       .data	0000000000000000 _DTB
0000000000001b72 g       .data	0000000000000000 __data_end
0000000000000d30 g     F .text	00000000000000e0 .hidden __sd_sendcmd
0000000000001250 g     F .text	000000000000012c .hidden __memcpy
0000000000001400 g       .text	0000000000000000 __text_end
0000000000000104 g     F .text	0000000000000054 .hidden main
0000000000001144 g     F .text	0000000000000022 .hidden __uart_init
000000000003f000 g       .stack	0000000000000000 _stack_end
0000000000001166 g     F .text	0000000000000028 .hidden __putch
0000000000000c7e g     F .text	0000000000000054 .hidden __spi_rwbyte
0000000000040000 g       .stack	0000000000000000 __stack
0000000000001b72 g       .data	0000000000000000 _binary_tmp_end
0000000000000730 g     F .text	00000000000002fc .hidden __fopen
0000000000000e10 g     F .text	00000000000000e8 .hidden __sd_rcvdata
0000000000040000 g       .stack	0000000000000000 _stack
0000000000001439 g       .data	0000000000000000 __data_start
0000000000000cd2 g     F .text	000000000000005e .hidden __sd_getresp
0000000000000a2c g     F .text	0000000000000084 .hidden __fseek


Contents of section .text:
 0000 81400141 81410142 81420143 81430144  .@.A.A.B.B.C.C.D
 0010 81440145 81450146 81460147 81470148  .D.E.E.F.F.G.G.H
 0020 81480149 8149014a 814a014b 814b014c  .H.I.I.J.J.K.K.L
 0030 814c014d 814d014e 814e014f 814f17f5  .L.M.M.N.N.O.O..
 0040 03001305 25fc9705 04009385 65fb0146  ....%.......e..F
 0050 ef000009 17010400 1301c1fa f3221030  .............".0
 0060 63cc0202 b702001a 7390323c 97020000  c.......s.2<....
 0070 83a24208 17030000 03234308 7d131353  ..B......#C.}..S
 0080 1300b3e2 620093d2 22007390 f23d1704  ....b...".s..=..
 0090 00000324 24061da8 9b02d000 e6127390  ...$$.........s.
 00a0 223c9702 000083b2 e2041703 00000333  "<.............3
 00b0 e3047d13 13531300 b3e26200 93d22200  ..}..S....b...".
 00c0 7390f23d 17040000 0334c402 ef008003  s..=.....4......
 00d0 732540f1 97150000 9385c536 028401a0  s%@........6....
 00e0 63e5a500 10c11105 e5bf8280 13000000  c...............
 00f0 00000200 00000000 00000200 00000000  ................
 0100 00000000 1301019a 233c1164 23388164  ........#<.d#8.d
 0110 13040166 930784dd 2334f49c ef108002  ...f....#4......
 0120 930784dd 3e85ef00 a0209307 849a9715  ....>.... ......
 0130 00009385 25303e85 ef00805f 9307849a  ....%0>...._....
 0140 3e85ef00 60018147 3e858330 81650334  >...`..G>..0.e.4
 0150 01651301 01668280 130101dd 23341122  .e...f......#4."
 0160 23308122 001c233c a4dc2326 04fe0146  #0."..#<..#&...F
 0170 81450335 84ddef00 700b9307 04fa1306  .E.5....p.......
 0180 0004be85 033584dd ef009012 bdaa8357  .....5.........W
 0190 84fd8127 0327c4fe 999f8127 3e87a147  ...'.'.....'>..G
 01a0 63e6e700 835784fd 812711a0 a1472320  c....W...'...G# 
 01b0 f4fe8327 c4fe3e87 ba879b97 3700999f  ...'..>.....7...
 01c0 9b973700 1b870700 833704fc 8127b99f  ..7......7...'..
 01d0 81270146 be850335 84ddef00 30058327  .'.F...5....0..'
 01e0 04fe3e87 ba879b97 3700999f 9b973700  ..>.....7.....7.
 01f0 1b870700 930704de 3a86be85 033584dd  ........:....5..
 0200 ef00100b 232404fe c5a00367 84feba87  ....#$.....g....
 0210 8e07998f 8e07c117 a29783b7 87df8127  ...............'
 0220 0146be85 033584dd ef005000 036784fe  .F...5....P..g..
 0230 ba878e07 998f8e07 c117a297 83b787e0  ................
 0240 be860367 84feba87 8e07998f 8e07c117  ...g............
 0250 a29783b7 07e18127 3e86b685 033584dd  .......'>....5..
 0260 ef001005 232204fe 89a00367 84feba87  ....#".....g....
 0270 8e07998f 8e07c117 a29783b6 87e00367  ...............g
 0280 84feba87 8e07998f 8e07c117 a29783b7  ................
 0290 07e13387 f6008367 44feba97 23b00700  ..3....gD...#...
 02a0 832744fe a1272322 f4fe0367 84feba87  .'D..'#"...g....
 02b0 8e07998f 8e07c117 a29703b7 07e18367  ...............g
 02c0 44feb306 f7000367 84feba87 8e07998f  D......g........
 02d0 8e07c117 a29783b7 87e1e3e8 f6f88327  ...............'
 02e0 84fe8527 2324f4fe 832784fe 3e878327  ...'#$...'..>..'
 02f0 04fe0127 8127e36a f7f08327 c4fe3e87  ...'.'.j...'..>.
 0300 832704fe b99f2326 f4fe8357 84fd1b87  .'....#&...W....
 0310 07008327 c4fe8127 e3ebe7e6 833784fb  ...'...'.....7..
 0320 3e858330 81220334 01221301 01238280  >..0.".4."...#..
 0330 130101dd 23341122 23308122 001c233c  ....#4."#0."..#<
 0340 a4dc2317 04fe8357 e4fe8127 130784de  ..#....W...'....
 0350 ba853e85 ef00503a aa8799e3 8147c9a6  ..>...P:.....G..
 0360 930784de 9387e71f 83d70700 1b870700  ................
 0370 ad679387 57a56304 f7008147 55a69307  .g..W.c....GU...
 0380 84de9387 67032146 97150000 93858507  ....g.!F........
 0390 3e85ef00 d064aa87 812799e7 833784dd  >....d...'...7..
 03a0 0d47238a e70005a2 930784de 93876703  .G#...........g.
 03b0 21469715 00009385 e5053e85 ef003062  !F........>...0b
 03c0 aa878127 99e78337 84dd1147 238ae700  ...'...7...G#...
 03d0 dda89307 84de9387 27052146 97150000  ........'.!F....
 03e0 93854504 3e85ef00 905faa87 812799e7  ..E.>...._...'..
 03f0 833784dd 1547238a e700f1a0 930784de  .7...G#.........
 0400 9387671c 83d70700 2317f4fe 8357e4fe  ..g.....#....W..
 0410 81271307 84deba85 3e85ef00 f02daa87  .'......>....-..
 0420 99e38147 f5ac9307 84de9387 e71f83d7  ...G............
 0430 07001b87 0700ad67 938757a5 6304f700  .......g..W.c...
 0440 8147f9ac 930784de 93876703 21469715  .G........g.!F..
 0450 00009385 25fb3e85 ef007058 aa878127  ....%.>...pX...'
 0460 99e78337 84dd0d47 238ae700 a9a89307  ...7...G#.......
 0470 84de9387 67032146 97150000 938585f9  ....g.!F........
 0480 3e85ef00 d055aa87 812799e7 833784dd  >....U...'...7..
 0490 1147238a e70005a8 930784de 93872705  .G#...........'.
 04a0 21469715 00009385 e5f73e85 ef003053  !F........>...0S
 04b0 aa878127 99e78337 84dd1547 238ae700  ...'...7...G#...
 04c0 19a08147 b1ac8347 34df1b97 07011b57  ...G...G4......W
 04d0 07419307 84dead07 850783c7 07008127  .A.............'
 04e0 9b978700 81279b97 07019bd7 0741d98f  .....'.......A..
 04f0 9b970701 9bd70741 13970703 41938337  .......A....A..7
 0500 84dd2390 e7000347 54df8337 84dd2389  ..#....GT..7..#.
 0510 e7008337 84dd83c7 47013e87 95476319  ...7....G.>..Gc.
 0520 f7009307 84de9387 470283d7 070031a0  ........G.....1.
 0530 930784de d90783d7 07000337 84dd2311  ...........7..#.
 0540 f7000347 84df8337 84dda389 e7008347  ...G...7.......G
 0550 64df1b97 07011b57 07419307 84deb907  d......W.A......
 0560 850783c7 07008127 9b978700 81279b97  .......'.....'..
 0570 07019bd7 0741d98f 9b970701 9bd70741  .....A.........A
 0580 c217c193 0357e4fe b99f1397 07034193  .....W........A.
 0590 833784dd 2392e700 833784dd 83c73701  .7..#....7....7.
 05a0 13970703 41938337 84dd83d7 2700bb07  ....A..7....'...
 05b0 f7021397 07034193 833784dd 83d74700  ......A..7....G.
 05c0 b99f1397 07034193 833784dd 2393e700  ......A..7..#...
 05d0 834794df 1b970701 1b570741 930784de  .G.......W.A....
 05e0 c5078507 83c70700 81279b97 87008127  .........'.....'
 05f0 9b970701 9bd70741 d98f9b97 07019bd7  .......A........
 0600 07411397 07034193 833784dd 2396e700  .A....A..7..#...
 0610 833784dd 83c74701 3e879547 6315f702  .7....G.>..Gc...
 0620 930784de 9387c702 03d70700 833784dd  .............7..
 0630 2397e700 833784dd 03d76700 833784dd  #....7....g..7..
 0640 2398e700 35a88337 84dd03d7 67008337  #...5..7....g..7
 0650 84dd2397 e7008337 84dd83d7 c7009bd7  ..#....7........
 0660 47001397 07034193 833784dd 83d76700  G.....A..7....g.
 0670 b99f1397 07034193 833784dd 2398e700  ......A..7..#...
 0680 930784de 93870702 9c4399c7 930784de  .........C......
 0690 93870702 9c4315a0 8347b4df 1b870700  .....C...G......
 06a0 930784de cd078507 83c70700 81279b97  .............'..
 06b0 87008127 d98f8127 81272324 f4fe8337  ...'...'.'#$...7
 06c0 84dd83d7 07018127 032784fe bb07f740  .......'.'.....@
 06d0 1b870700 8357e4fe 8127b99f 1b870700  .....W...'......
 06e0 833784dd 83c72701 8127bb57 f7028127  .7....'..'.W...'
 06f0 89271b87 07008337 84dd98c7 833784dd  .'.....7.....7..
 0700 83d74700 1b870700 833784dd e107be85  ..G......7......
 0710 3a85ef00 607eaa87 99e38147 11a08547  :...`~.....G...G
 0720 3e858330 81220334 01221301 01238280  >..0.".4."...#..
 0730 130101dc 233c1122 23388122 80042334  ....#<."#8."..#4
 0740 a4dc2330 b4dc2317 04fe05a8 833704dc  ..#0..#......7..
 0750 13871700 2330e4dc 03c70700 8357e4fe  ....#0.......W..
 0760 9b861700 2317d4fe 81271377 f7fd1377  ....#....'.w...w
 0770 f70fc117 a2972384 e7fe8357 e4fe1b87  ......#....W....
 0780 07009d47 63eee702 833704dc 83c70700  ...Gc....7......
 0790 85cb8337 04dc83c7 07003e87 9307e002  ...7......>.....
 07a0 e316f7fa 31a88357 e4fe1b87 17002317  ....1..W......#.
 07b0 e4fe8127 c117a297 13070002 2384e7fe  ...'........#...
 07c0 8357e4fe 1b870700 9d47e3fe e7fc8337  .W.......G.....7
 07d0 04dc8507 2330f4dc 231704fe 05a88337  ....#0..#......7
 07e0 04dc1387 17002330 e4dc03c7 07008357  ......#0.......W
 07f0 e4fe9b86 17002317 d4fe8127 1377f7fd  ......#....'.w..
 0800 1377f70f c117a297 2380e7fe 8357e4fe  .w......#....W..
 0810 1b870700 894763e5 e7028337 04dc83c7  .....Gc....7....
 0820 0700d5ff 31a88357 e4fe1b87 17002317  ....1..W......#.
 0830 e4fe8127 c117a297 13070002 2380e7fe  ...'........#...
 0840 8357e4fe 1b870700 8947e3fe e7fc8337  .W.......G.....7
 0850 84dc9c73 83d70701 81271307 04ddba85  ...s.....'......
 0860 3e85ef00 6069aa87 99e38147 45aa2317  >...`i.....GE.#.
 0870 04fe61aa 8357e4fe 8127c117 a29783c7  ..a..W...'......
 0880 07de3e87 9307500e 6304f704 8357e4fe  ..>...P.c....W..
 0890 81271307 04ddba97 130784fd 2146ba85  .'..........!F..
 08a0 3e85ef00 d013aa87 81279de3 8357e4fe  >........'...W..
 08b0 8127a127 81271307 04ddba97 130704fd  .'.'.'..........
 08c0 0d46ba85 3e85ef00 9011aa87 812781cb  .F..>........'..
 08d0 8357e4fe 9b870702 2317f4fe 3da28357  .W......#...=..W
 08e0 e4fe8127 130704dd ba971306 0002be85  ...'............
 08f0 033584dc ef00d015 833784dc 23a40702  .5.......7..#...
 0900 833784dc 7d57d8d7 833784dc 83d7a701  .7..}W...7......
 0910 1b870700 833784dc 83d74701 81279b97  .....7....G..'..
 0920 07018127 8127d98f 1b870700 833784dc  ...'.'.......7..
 0930 9c7383d7 e7008127 bb07f740 1b870700  .s.....'...@....
 0940 833784dc 98dba303 04fe8547 2316f4fe  .7.........G#...
 0950 5da08347 74fe93f7 f70fb1ef 833784dc  ]..Gt........7..
 0960 98738357 c4fe8127 fd378127 833684dc  .s.W...'.7.'.6..
 0970 b1078a07 b6979443 833784dc 9c7383d7  .......C.7...s..
 0980 e7008127 b59f8127 82178193 91078a07  ...'...'........
 0990 ba979c47 2324f4fe 832784fe 1b870700  ...G#$...'......
 09a0 b7070010 fd17b307 f74093b7 170093f7  .........@......
 09b0 f70fa303 f4fe8347 74fe93f7 f70f89ef  .......Gt.......
 09c0 833784dc 9c7383d7 e7008127 032784fe  .7...s.....'.'..
 09d0 bb07f740 812711a0 fd570357 c4fe0127  ...@.'...W.W...'
 09e0 833684dc 31070a07 36971cc3 8357c4fe  .6..1...6....W..
 09f0 85272316 f4fe8357 c4fe1b87 07009307  .'#....W........
 0a00 f007e3f8 e7f48547 11a88357 e4fe1b87  .......G...W....
 0a10 07009307 f01fe3ff e7e48147 3e858330  ...........G>..0
 0a20 81230334 01231301 01248280 011122ec  .#.4.#...$....".
 0a30 00102334 a4feae87 32872322 f4feba87  ..#4....2.#"....
 0a40 a301f4fe 834734fe 8127be86 0947638e  .....G4..'...Gc.
 0a50 e602be86 09476346 d70491c7 3e878547  .....GcF....>..G
 0a60 6309f700 3da88337 84fe0327 44fe98d7  c...=..7...'D...
 0a70 1da88337 84fe9c57 032744fe b99f1b87  ...7...W.'D.....
 0a80 07008337 84fe98d7 39a88337 84fedc4f  ...7....9..7...O
 0a90 032744fe b99f1b87 07008337 84fe98d7  .'D........7....
 0aa0 19a08147 11a08547 3e856264 05618280  ...G...G>.bd.a..
 0ab0 5d7186e4 a2e08008 2334a4fc 2330b4fc  ]q......#4..#0..
 0ac0 b287232e f4fa8337 04fc2334 f4fe2320  ..#....7..#4..# 
 0ad0 04fe8337 84fc9c57 93f7f71f 232ef4fc  ...7...W....#...
 0ae0 91a28337 84fc9c57 9bd79700 232cf4fc  ...7...W....#,..
 0af0 833784fc d8578327 84fd8127 6387e708  .7...W.'...'c...
 0b00 833784fc 9c7383d7 07011b87 07008337  .7...s.........7
 0b10 84fc9c73 83c72701 81278326 84fdbbf7  ...s..'..'.&....
 0b20 f6028127 b99f1b87 07008337 84fc9c73  ...'.......7...s
 0b30 83c72701 81278326 84fdbbd7 f6028127  ..'..'.&.......'
 0b40 833684fc 82178193 b1078a07 b6979443  .6.............C
 0b50 833784fc 9c7383c7 27018127 bb87f602  .7...s..'..'....
 0b60 8127b99f 1b870700 833784fc 93870723  .'.......7.....#
 0b70 be853a85 ef004038 aa8799e3 81476da8  ..:...@8.....Gm.
 0b80 833784fc 032784fd d8d78337 84fc9c57  .7...'.....7...W
 0b90 93f7f71f 81271307 0020bb07 f7402322  .....'... ...@#"
 0ba0 f4fe8327 04fe3e87 832744fe b99f1b87  ...'..>..'D.....
 0bb0 07008327 c4fb8127 636bf700 8327c4fb  ...'...'ck...'..
 0bc0 3e878327 04febb07 f7402322 f4fe8337  >..'.....@#"...7
 0bd0 84fc1387 07238367 c4fdba97 032744fe  .....#.g.....'D.
 0be0 3a86be85 033584fe ef008066 832704fe  :....5.....f.'..
 0bf0 3e878327 44feb99f 2320f4fe 836744fe  >..'D...# ...gD.
 0c00 033784fe ba972334 f4fe8337 84fc9c57  .7....#4...7...W
 0c10 032744fe b99f1b87 07008337 84fc98d7  .'D........7....
 0c20 232e04fc 832704fe 3e878327 c4fb0127  #....'..>..'...'
 0c30 8127e368 f7ea8547 3e85a660 06646161  .'.h...G>..`.daa
 0c40 82800111 22ec0010 aa872326 f4feb717  ....".....#&....
 0c50 001023a0 07008327 c4fe9b97 37008127  ..#....'....7..'
 0c60 93f78703 1b870700 b7170010 13674704  .............gG.
 0c70 012798c3 85473e85 62640561 82800111  .'...G>.bd.a....
 0c80 22ec0010 aa87a307 f4fe0100 b7170010  "...............
 0c90 a1079c43 8127858b 8127eddb b7170010  ...C.'...'......
 0ca0 b1070347 f4fe0127 98c30100 b7170010  ...G...'........
 0cb0 a1079c43 8127898b 8127eddb b7170010  ...C.'...'......
 0cc0 b1079c43 812793f7 f70f3e85 62640561  ...C.'....>.bd.a
 0cd0 82803971 06fc22f8 26f48000 2334a4fc  ..9q..".&...#4..
 0ce0 ae872322 f4fc232e 04fc1da0 8367c4fd  ..#"..#......g..
 0cf0 033784fc b304f700 1305f00f eff03ff8  .7............?.
 0d00 aa872380 f4008327 c4fd8527 232ef4fc  ..#....'...'#...
 0d10 8327c4fd 3e878327 44fc0127 8127e367  .'..>..'D..'.'.g
 0d20 f7fc8547 3e85e270 4274a274 21618280  ...G>..pBt.t!a..
 0d30 797106f4 22f00018 aa87ae86 3287a30f  yq..".......2...
 0d40 f4fcb687 232cf4fc ba87230f f4fc2326  ....#,....#...#&
 0d50 04fe8347 f4fd93e7 070493f7 f70f3e85  ...G..........>.
 0d60 eff0fff1 832784fd 9bd78701 812793f7  .....'.......'..
 0d70 f70f3e85 eff0bff0 832784fd 9bd70701  ..>......'......
 0d80 812793f7 f70f3e85 eff07fef 832784fd  .'....>......'..
 0d90 9bd78700 812793f7 f70f3e85 eff03fee  .....'....>...?.
 0da0 832784fd 93f7f70f 3e85eff0 5fed8347  .'......>..._..G
 0db0 e4fd93e7 170093f7 f70f3e85 eff03fec  ..........>...?.
 0dc0 1305f00f eff0bfeb aa87a305 f4fe01a8  ................
 0dd0 1305f00f eff0bfea aa87a305 f4fe8347  ...............G
 0de0 b4fe8127 a18b8127 89cf8327 c4fe1b87  ...'...'...'....
 0df0 17002326 e4fe3e87 85679387 7738e3f9  ..#&..>..g..w8..
 0e00 e7fc8347 b4fe3e85 a2700274 45618280  ...G..>..p.tEa..
 0e10 397106fc 22f826f4 80002334 a4fcae87  9q..".&...#4....
 0e20 32872322 f4fcba87 a301f4fc 232e04fc  2.#"........#...
 0e30 b7170010 91079c43 1b870700 b7170010  .......C........
 0e40 91071367 47000127 98c31305 f00feff0  ...gG..'........
 0e50 1fe3aa87 a30df4fc 8327c4fd 1b871700  .........'......
 0e60 232ee4fc 3e878567 93878738 63f5e700  #...>..g...8c...
 0e70 8347b4fd a5a88347 b4fd13f7 f70f9307  .G.....G........
 0e80 e00fe314 f7fc31a8 833484fc 93871400  ......1..4......
 0e90 2334f4fc 1305f00f eff07fde aa872380  #4............#.
 0ea0 f4008327 44fc1b87 f7ff2322 e4fce9ff  ...'D.....#"....
 0eb0 1305f00f eff0bfdc 1305f00f eff03fdc  ..............?.
 0ec0 834734fc 93f7f70f 8dc3b717 00109107  .G4.............
 0ed0 9c431b87 0700b717 00109107 6d9b0127  .C..........m..'
 0ee0 98c31305 f00feff0 9fd98547 3e85e270  ...........G>..p
 0ef0 4274a274 21618280 011122ec 0010aa87  Bt.t!a....".....
 0f00 2330b4fe 2326f4fe b7074004 938717f8  #0..#&....@.....
 0f10 96070367 c4fe98e3 b7070011 938757e0  ...g..........W.
 0f20 8e070337 04fe98e3 b7078008 938737f0  ...7..........7.
 0f30 92070547 98e3b707 00119387 97e08e07  ...G............
 0f40 054798e3 85473e85 62640561 82807971  .G...G>.bd.a..yq
 0f50 06f422f0 0018233c a4fc2305 04fe1d45  .."...#<..#....E
 0f60 eff03fce 0545ef00 6041b717 00109107  ..?..E..`A......
 0f70 9c431b87 0700b717 00109107 6d9b0127  .C..........m..'
 0f80 98c3a305 04fe11a8 1305f00f eff03fcf  ..............?.
 0f90 8347b4fe 8527a305 f4fe8347 b4fe13f7  .G...'.....G....
 0fa0 f70fa547 e3f2e7fe b7170010 91079c43  ...G...........C
 0fb0 1b870700 b7170010 91071367 47000127  ...........gG..'
 0fc0 98c38547 2305f4fe 232604fe 13065009  ...G#...#&....P.
 0fd0 81450145 eff0dfd5 aa87a304 f4fe8327  .E.E...........'
 0fe0 c4fe1b87 17002326 e4fe3e87 9307803e  ......#&..>....>
 0ff0 63f5e700 8347a4fe 89a28347 94fe13f7  c....G.....G....
 1000 f70f8547 e314f7fc 13067008 9305a01a  ...G......p.....
 1010 2145eff0 ffd1aa87 a304f4fe 834794fe  !E...........G..
 1020 13f7f70f 9547631d f7009307 04fe9145  .....Gc........E
 1030 3e85eff0 1fca8337 84fd2380 0700d1a0  >......7..#.....
 1040 834794fe 13f7f70f 8547631c f70a9307  .G.......Gc.....
 1050 04fe9145 3e85eff0 dfc72326 04fe0146  ...E>.....#&...F
 1060 81451305 7003eff0 bfccaa87 a304f4fe  .E..p...........
 1070 0146b705 00401305 9002eff0 7fcbaa87  .F...@..........
 1080 a304f4fe 8327c4fe 1b871700 2326e4fe  .....'......#&..
 1090 3e879307 703e63e7 e7008347 94fe93f7  >...p>c....G....
 10a0 f70fd5ff 232604fe 01468145 1305a003  ....#&...F.E....
 10b0 eff01fc8 aa87a304 f4fe8327 c4fe1b87  ...........'....
 10c0 17002326 e4fe3e87 9307703e 63e7e700  ..#&..>...p>c...
 10d0 834794fe 93f7f70f e1fb9307 04fe9145  .G.............E
 10e0 3e85eff0 1fbf8347 04fe8127 93f70704  >......G...'....
 10f0 812799c3 8d4711a0 89470337 84fd2300  .'...G...G.7..#.
 1100 f7000945 eff0ffb3 13065009 81451305  ...E......P..E..
 1110 b003eff0 ffc1aa87 a304f4fe 13065009  ..............P.
 1120 93050020 4145eff0 bfc0aa87 a304f4fe  ... AE..........
 1130 89472305 f4fe8347 a4fe3e85 a2700274  .G#....G..>..p.t
 1140 45618280 411122e4 0008b707 0010a107  Ea..A.".........
 1150 054798c3 b7070010 b1070547 98c30100  .G.........G....
 1160 22644101 82800111 22ec0010 aa87a307  "dA.....".......
 1170 f4fe0100 b7070010 9c43b707 00100347  .........C.....G
 1180 f4fe0127 98c30100 62640561 82807971  ...'....bd.a..yq
 1190 06f422f0 0018233c a4fc2326 04fe0da0  .."...#<..#&....
 11a0 833784fd 13871700 233ce4fc 83c70700  .7......#<......
 11b0 3e85eff0 5ffb8327 c4fe8527 2326f4fe  >..._..'...'#&..
 11c0 833784fd 83c70700 e1ff2945 eff0bff9  .7........)E....
 11d0 8327c4fe 3e85a270 02744561 82807971  .'..>..p.tEa..yq
 11e0 22f40018 2334a4fe 2330b4fe b287232e  "...#4..#0....#.
 11f0 f4fc99a0 833784fe 03c70700 833704fe  .....7.......7..
 1200 83c70700 6374f700 fd573da8 833784fe  ....ct...W=..7..
 1210 03c70700 833704fe 83c70700 63f4e700  .....7......c...
 1220 85471da0 833784fe 85072334 f4fe8337  .G...7....#4...7
 1230 04fe8507 2330f4fe 8327c4fd 1b87f7ff  ....#0...'......
 1240 232ee4fc c5fb8147 3e852274 45618280  #......G>."tEa..
 1250 797122f4 00182334 a4fe2330 b4feb287  yq"...#4..#0....
 1260 232ef4fc 033784fe 833704fe d98f9d8b  #....7...7......
 1270 bdc305a8 833704fe 03c70700 833784fe  .....7.......7..
 1280 2380e700 833784fe 85072334 f4fe8337  #....7....#4...7
 1290 04fe8507 2330f4fe 8327c4fd fd37232e  ....#0...'...7#.
 12a0 f4fc8327 c4fd8127 f1f7d9a0 833704fe  ...'...'.....7..
 12b0 98638337 84fe98e3 833784fe a1072334  .c.7.....7....#4
 12c0 f4fe8337 04fea107 2330f4fe 8327c4fd  ...7....#0...'..
 12d0 e137232e f4fc8327 c4fd1b87 07009d47  .7#....'.......G
 12e0 e3e6e7fc 8327c4fd 1b870700 8d4763f7  .....'.......Gc.
 12f0 e7028337 04fe9843 833784fe 98c38337  ...7...C.7.....7
 1300 84fe9107 2334f4fe 833704fe 91072330  ....#4...7....#0
 1310 f4fe8327 c4fdf137 232ef4fc 8327c4fd  ...'...7#....'..
 1320 1b870700 854763f9 e7028337 04fe03d7  .....Gc....7....
 1330 07008337 84fe2390 e7008337 84fe8907  ...7..#....7....
 1340 2334f4fe 833704fe 89072330 f4fe8327  #4...7....#0...'
 1350 c4fdf937 232ef4fc 8327c4fd 812789cb  ...7#....'...'..
 1360 833704fe 03c70700 833784fe 2380e700  .7.......7..#...
 1370 833784fe 3e852274 45618280 011122ec  .7..>."tEa....".
 1380 0010aa87 2326f4fe b7c70008 e1179463  ....#&.........c
 1390 8327c4fe 3e87b747 0f009b87 0724bb07  .'..>..G.....$..
 13a0 f7028127 3e87f947 bb57f702 81271397  ...'>..G.W...'..
 13b0 07020193 b7470008 369798e3 93070008  .....G..6.......
 13c0 73a04730 73005010 93070008 73b04730  s.G0s.P.....s.G0
 13d0 01006264 05618280 00000000 00000000  ..bd.a..........
 13e0 00000000 00000000 00000000 00000000  ................
 13f0 00000000 00000000 00000000 00000000  ................
Contents of section .rodata:
 1400 46415431 32202020 00000000 00000000  FAT12   ........
 1410 46415431 36202020 00000000 00000000  FAT16   ........
 1420 46415433 32202020 00000000 00000000  FAT32   ........
 1430 626f6f74 2e62696e 00                 boot.bin.       
Contents of section .data:
 1439 00000000 000000d0 0dfeed00 00073200  ..............2.
 1449 00003800 0005ec00 00002800 00001100  ..8.......(.....
 1459 00001000 00000000 00014600 0005b400  ..........F.....
 1469 00000000 00000000 00000000 00000000  ................
 1479 00000100 00000000 00000300 00000800  ................
 1489 00000079 745f7276 36340000 00000300  ...yt_rv64......
 1499 00000f00 00000679 75746f6e 67007974  .......yutong.yt
 14a9 5f727636 34000000 00000300 00000400  _rv64...........
 14b9 00001100 00000200 00000300 00000400  ................
 14c9 00002000 00000200 00000300 00000400  .. .............
 14d9 00002c00 00000200 00000163 70757300  ..,........cpus.
 14e9 00000000 00000300 00000400 00003d00  ..............=.
 14f9 00000100 00000300 00000400 00001100  ................
 1509 00000100 00000300 00000400 00002000  .............. .
 1519 00000000 00000300 00000400 00004b00  ..............K.
 1529 98968000 00000163 70754030 00000000  .......cpu@0....
 1539 00000300 00000400 00005e63 70750000  ..........^cpu..
 1549 00000300 00000400 00006a00 00000000  ..........j.....
 1559 00000300 00000500 00006e6f 6b617900  ..........nokay.
 1569 00000000 00000300 00000600 00000672  ...............r
 1579 69736376 00000000 00000300 00000900  iscv............
 1589 00007572 76363469 6d616300 00000000  ..urv64imac.....
 1599 00000300 00000b00 00007f72 69736376  ...........riscv
 15a9 2c737634 38000000 00000300 00000400  ,sv48...........
 15b9 00008800 00001000 00000300 00000400  ................
 15c9 00009900 00000400 00000300 00000400  ................
 15d9 0000ae3b 9aca0000 00000300 00000000  ...;............
 15e9 0000be00 00000300 00000400 00003d00  ..............=.
 15f9 00000300 00000300 00000400 00004300  ..............C.
 1609 00000300 00000169 6e746572 72757074  .......interrupt
 1619 2d636f6e 74726f6c 6c657200 00000000  -controller.....
 1629 00000300 00000400 0000cd00 00000100  ................
 1639 00000300 00000000 0000de00 00000300  ................
 1649 00000f00 00000672 69736376 2c637075  .......riscv,cpu
 1659 2d696e74 63000000 00000300 00000400  -intc...........
 1669 00003d00 00000400 00000300 00000400  ..=.............
 1679 00004300 00000400 00000200 00000200  ..C.............
 1689 00000163 70752d6d 61700000 00000163  ...cpu-map.....c
 1699 6c757374 65723000 00000000 00000163  luster0........c
 16a9 6f726530 00000000 00000300 00000400  ore0............
 16b9 0000c900 00000300 00000200 00000200  ................
 16c9 00000200 00000200 00000162 6f6f7472  ...........bootr
 16d9 6f6d4030 00000000 00000300 00000800  om@0............
 16e9 00005e62 6f6f7472 6f6d0000 00000300  ..^bootrom......
 16f9 00001000 00006a00 00000000 00000000  ......j.........
 1709 00000000 00200000 00000200 00000173  ..... .........s
 1719 79737261 6d403130 30303000 00000000  ysram@10000.....
 1729 00000300 00000700 00005e6d 656d6f72  ..........^memor
 1739 79000000 00000300 00001000 00006a00  y.............j.
 1749 00000000 02000000 00000000 02000000  ................
 1759 00000200 00000164 64724038 30303030  .......ddr@80000
 1769 30303000 00000000 00000300 00000700  000.............
 1779 00005e6d 656d6f72 79000000 00000300  ..^memory.......
 1789 00001000 00006a00 00000080 00000000  ......j.........
 1799 00000008 00000000 00000200 00000170  ...............p
 17a9 65726962 75734030 34303030 30303000  eribus@04000000.
 17b9 00000000 00000300 00000a00 00000672  ...............r
 17c9 69736376 2c627573 00000000 00000300  iscv,bus........
 17d9 00000400 00001100 00000100 00000300  ................
 17e9 00000400 00002000 00000100 00000300  ...... .........
 17f9 00001000 00006a00 00000004 00000000  ......j.........
 1809 00000010 00000000 00000163 66677265  ...........cfgre
 1819 67403034 30303030 30300000 00000300  g@04000000......
 1829 00000d00 00000672 69736376 2c636667  .......riscv,cfg
 1839 72656700 00000000 00000300 00000800  reg.............
 1849 00006a04 00000000 00100000 00000200  ..j.............
 1859 00000163 6c696e74 40303830 30303030  ...clint@0800000
 1869 30000000 00000300 00000d00 00000672  0..............r
 1879 69736376 2c636c69 6e743000 00000000  iscv,clint0.....
 1889 00000300 00000800 00006a08 00000000  ..........j.....
 1899 01000000 00000300 00001000 0000f300  ................
 18a9 00000400 00000700 00000400 00000300  ................
 18b9 00000200 00000169 6e746572 72757074  .......interrupt
 18c9 2d636f6e 74726f6c 6c657240 30633030  -controller@0c00
 18d9 30303030 00000000 00000300 00000400  0000............
 18e9 0000cd00 00000100 00000300 00000000  ................
 18f9 0000de00 00000300 00000c00 00000672  ...............r
 1909 69736376 2c706c69 63300000 00000300  iscv,plic0......
 1919 00000400 00010700 00002000 00000300  .......... .....
 1929 00000800 00006a0c 00000004 00000000  ......j.........
 1939 00000300 00001000 0000f300 00000400  ................
 1949 00000b00 00000400 00000900 00000300  ................
 1959 00000400 00003d00 00000200 00000300  ......=.........
 1969 00000400 00004300 00000200 00000200  ......C.........
 1979 00000175 61727440 31303030 30303030  ...uart@10000000
 1989 00000000 00000300 00000d00 00000673  ...............s
 1999 69666976 652c7561 72743000 00000000  ifive,uart0.....
 19a9 00000300 00000800 00006a10 00000000  ..........j.....
 19b9 00100000 00000300 00000400 00011200  ................
 19c9 00000100 00000200 00000200 00000163  ...............c
 19d9 686f7365 6e000000 00000300 00000800  hosen...........
 19e9 00011d00 00000086 00000000 00000300  ................
 19f9 00000f00 00012e72 6f6f743d 2f646576  .......root=/dev
 1a09 2f736461 32000000 00000300 00000400  /sda2...........
 1a19 00013700 00060000 00000200 00000200  ..7.............
 1a29 0000096d 6f64656c 00636f6d 70617469  ...model.compati
 1a39 626c6500 23616464 72657373 2d63656c  ble.#address-cel
 1a49 6c730023 73697a65 2d63656c 6c730069  ls.#size-cells.i
 1a59 6e746572 72757074 2d706172 656e7400  nterrupt-parent.
 1a69 6c696e75 782c7068 616e646c 65007469  linux,phandle.ti
 1a79 6d656261 73652d66 72657175 656e6379  mebase-frequency
 1a89 00646576 6963655f 74797065 00726567  .device_type.reg
 1a99 00737461 74757300 72697363 762c6973  .status.riscv,is
 1aa9 61006d6d 752d7479 70650072 69736376  a.mmu-type.riscv
 1ab9 2c706d70 72656769 6f6e7300 72697363  ,pmpregions.risc
 1ac9 762c706d 70677261 6e756c61 72697479  v,pmpgranularity
 1ad9 00636c6f 636b2d66 72657175 656e6379  .clock-frequency
 1ae9 006c696e 75782c62 6f6f742d 63707500  .linux,boot-cpu.
 1af9 23696e74 65727275 70742d63 656c6c73  #interrupt-cells
 1b09 00696e74 65727275 70742d63 6f6e7472  .interrupt-contr
 1b19 6f6c6c65 7200696e 74657272 75707473  oller.interrupts
 1b29 2d657874 656e6465 64007269 7363762c  -extended.riscv,
 1b39 6e646576 00696e74 65727275 70747300  ndev.interrupts.
 1b49 72697363 762c6b65 726e656c 2d656e64  riscv,kernel-end
 1b59 00626f6f 74617267 73006c69 6e75782c  .bootargs.linux,
 1b69 706c6174 666f726d 00                 platform.       
Contents of section .comment:
 0000 4743433a 2028474e 55292031 312e312e  GCC: (GNU) 11.1.
 0010 3000                                 0.              
Contents of section .riscv.attributes:
 0000 412e0000 00726973 63760001 24000000  A....riscv..$...
 0010 04100572 76363469 3270305f 6d327030  ...rv64i2p0_m2p0
 0020 5f613270 305f6332 70300008 010a0b    _a2p0_c2p0..... 

Disassembly of section .text:

0000000000000000 <__text_start>:
       0:	4081                	li	ra,0
       2:	4101                	li	sp,0
       4:	4181                	li	gp,0
       6:	4201                	li	tp,0
       8:	4281                	li	t0,0
       a:	4301                	li	t1,0
       c:	4381                	li	t2,0
       e:	4401                	li	s0,0
      10:	4481                	li	s1,0
      12:	4501                	li	a0,0
      14:	4581                	li	a1,0
      16:	4601                	li	a2,0
      18:	4681                	li	a3,0
      1a:	4701                	li	a4,0
      1c:	4781                	li	a5,0
      1e:	4801                	li	a6,0
      20:	4881                	li	a7,0
      22:	4901                	li	s2,0
      24:	4981                	li	s3,0
      26:	4a01                	li	s4,0
      28:	4a81                	li	s5,0
      2a:	4b01                	li	s6,0
      2c:	4b81                	li	s7,0
      2e:	4c01                	li	s8,0
      30:	4c81                	li	s9,0
      32:	4d01                	li	s10,0
      34:	4d81                	li	s11,0
      36:	4e01                	li	t3,0
      38:	4e81                	li	t4,0
      3a:	4f01                	li	t5,0
      3c:	4f81                	li	t6,0

000000000000003e <fill_stack>:
      3e:	0003f517          	auipc	a0,0x3f
      42:	fc250513          	addi	a0,a0,-62 # 3f000 <_stack_end>
      46:	00040597          	auipc	a1,0x40
      4a:	fb658593          	addi	a1,a1,-74 # 3fffc <_stack_end+0xffc>
      4e:	4601                	li	a2,0
      50:	090000ef          	jal	ra,e0 <fill_block>

0000000000000054 <init_stack>:
      54:	00040117          	auipc	sp,0x40
      58:	fac10113          	addi	sp,sp,-84 # 40000 <__stack>

000000000000005c <init_system>:
      5c:	301022f3          	csrr	t0,misa
      60:	0202cc63          	bltz	t0,98 <rv64>
      64:	1a0002b7          	lui	t0,0x1a000
      68:	3c329073          	csrw	0x3c3,t0
      6c:	00000297          	auipc	t0,0x0
      70:	0842a283          	lw	t0,132(t0) # f0 <sysram_base>
      74:	00000317          	auipc	t1,0x0
      78:	08432303          	lw	t1,132(t1) # f8 <sysram_size>
      7c:	137d                	addi	t1,t1,-1
      7e:	00135313          	srli	t1,t1,0x1
      82:	0062e2b3          	or	t0,t0,t1
      86:	0022d293          	srli	t0,t0,0x2
      8a:	3df29073          	csrw	0x3df,t0
      8e:	00000417          	auipc	s0,0x0
      92:	06242403          	lw	s0,98(s0) # f0 <sysram_base>
      96:	a81d                	j	cc <goto_main>

0000000000000098 <rv64>:
      98:	00d0029b          	addiw	t0,zero,13
      9c:	12e6                	slli	t0,t0,0x39
      9e:	3c229073          	csrw	0x3c2,t0
      a2:	00000297          	auipc	t0,0x0
      a6:	04e2b283          	ld	t0,78(t0) # f0 <sysram_base>
      aa:	00000317          	auipc	t1,0x0
      ae:	04e33303          	ld	t1,78(t1) # f8 <sysram_size>
      b2:	137d                	addi	t1,t1,-1
      b4:	00135313          	srli	t1,t1,0x1
      b8:	0062e2b3          	or	t0,t0,t1
      bc:	0022d293          	srli	t0,t0,0x2
      c0:	3df29073          	csrw	0x3df,t0
      c4:	00000417          	auipc	s0,0x0
      c8:	02c43403          	ld	s0,44(s0) # f0 <sysram_base>

00000000000000cc <goto_main>:
      cc:	038000ef          	jal	ra,104 <main>
      d0:	f1402573          	csrr	a0,mhartid
      d4:	00001597          	auipc	a1,0x1
      d8:	36c58593          	addi	a1,a1,876 # 1440 <_DTB>
      dc:	8402                	jr	s0

00000000000000de <dead_loop>:
      de:	a001                	j	de <dead_loop>

00000000000000e0 <fill_block>:
      e0:	00a5e563          	bltu	a1,a0,ea <fb_end>
      e4:	c110                	sw	a2,0(a0)
      e6:	0511                	addi	a0,a0,4
      e8:	bfe5                	j	e0 <fill_block>

00000000000000ea <fb_end>:
      ea:	8082                	ret
      ec:	00000013          	nop

00000000000000f0 <sysram_base>:
      f0:	0000                	unimp
      f2:	0002                	c.slli64	zero
      f4:	0000                	unimp
	...

00000000000000f8 <sysram_size>:
      f8:	0000                	unimp
      fa:	0002                	c.slli64	zero
	...

0000000000000104 <main>:
     104:	9a010113          	addi	sp,sp,-1632
     108:	64113c23          	sd	ra,1624(sp)
     10c:	64813823          	sd	s0,1616(sp)
     110:	66010413          	addi	s0,sp,1632
     114:	dd840793          	addi	a5,s0,-552
     118:	9cf43423          	sd	a5,-1592(s0)
     11c:	028010ef          	jal	ra,1144 <__uart_init>
     120:	dd840793          	addi	a5,s0,-552
     124:	853e                	mv	a0,a5
     126:	20a000ef          	jal	ra,330 <__fat_bpb_init>
     12a:	9a840793          	addi	a5,s0,-1624
     12e:	00001597          	auipc	a1,0x1
     132:	30258593          	addi	a1,a1,770 # 1430 <__text_end+0x30>
     136:	853e                	mv	a0,a5
     138:	5f8000ef          	jal	ra,730 <__fopen>
     13c:	9a840793          	addi	a5,s0,-1624
     140:	853e                	mv	a0,a5
     142:	016000ef          	jal	ra,158 <__elf_loader>
     146:	4781                	li	a5,0
     148:	853e                	mv	a0,a5
     14a:	65813083          	ld	ra,1624(sp)
     14e:	65013403          	ld	s0,1616(sp)
     152:	66010113          	addi	sp,sp,1632
     156:	8082                	ret

0000000000000158 <__elf_loader>:
     158:	dd010113          	addi	sp,sp,-560
     15c:	22113423          	sd	ra,552(sp)
     160:	22813023          	sd	s0,544(sp)
     164:	1c00                	addi	s0,sp,560
     166:	dca43c23          	sd	a0,-552(s0)
     16a:	fe042623          	sw	zero,-20(s0)
     16e:	4601                	li	a2,0
     170:	4581                	li	a1,0
     172:	dd843503          	ld	a0,-552(s0)
     176:	0b7000ef          	jal	ra,a2c <__fseek>
     17a:	fa040793          	addi	a5,s0,-96
     17e:	04000613          	li	a2,64
     182:	85be                	mv	a1,a5
     184:	dd843503          	ld	a0,-552(s0)
     188:	129000ef          	jal	ra,ab0 <__fread>
     18c:	aabd                	j	30a <__elf_loader+0x1b2>
     18e:	fd845783          	lhu	a5,-40(s0)
     192:	2781                	sext.w	a5,a5
     194:	fec42703          	lw	a4,-20(s0)
     198:	9f99                	subw	a5,a5,a4
     19a:	2781                	sext.w	a5,a5
     19c:	873e                	mv	a4,a5
     19e:	47a1                	li	a5,8
     1a0:	00e7e663          	bltu	a5,a4,1ac <__elf_loader+0x54>
     1a4:	fd845783          	lhu	a5,-40(s0)
     1a8:	2781                	sext.w	a5,a5
     1aa:	a011                	j	1ae <__elf_loader+0x56>
     1ac:	47a1                	li	a5,8
     1ae:	fef42023          	sw	a5,-32(s0)
     1b2:	fec42783          	lw	a5,-20(s0)
     1b6:	873e                	mv	a4,a5
     1b8:	87ba                	mv	a5,a4
     1ba:	0037979b          	slliw	a5,a5,0x3
     1be:	9f99                	subw	a5,a5,a4
     1c0:	0037979b          	slliw	a5,a5,0x3
     1c4:	0007871b          	sext.w	a4,a5
     1c8:	fc043783          	ld	a5,-64(s0)
     1cc:	2781                	sext.w	a5,a5
     1ce:	9fb9                	addw	a5,a5,a4
     1d0:	2781                	sext.w	a5,a5
     1d2:	4601                	li	a2,0
     1d4:	85be                	mv	a1,a5
     1d6:	dd843503          	ld	a0,-552(s0)
     1da:	053000ef          	jal	ra,a2c <__fseek>
     1de:	fe042783          	lw	a5,-32(s0)
     1e2:	873e                	mv	a4,a5
     1e4:	87ba                	mv	a5,a4
     1e6:	0037979b          	slliw	a5,a5,0x3
     1ea:	9f99                	subw	a5,a5,a4
     1ec:	0037979b          	slliw	a5,a5,0x3
     1f0:	0007871b          	sext.w	a4,a5
     1f4:	de040793          	addi	a5,s0,-544
     1f8:	863a                	mv	a2,a4
     1fa:	85be                	mv	a1,a5
     1fc:	dd843503          	ld	a0,-552(s0)
     200:	0b1000ef          	jal	ra,ab0 <__fread>
     204:	fe042423          	sw	zero,-24(s0)
     208:	a0c5                	j	2e8 <__elf_loader+0x190>
     20a:	fe846703          	lwu	a4,-24(s0)
     20e:	87ba                	mv	a5,a4
     210:	078e                	slli	a5,a5,0x3
     212:	8f99                	sub	a5,a5,a4
     214:	078e                	slli	a5,a5,0x3
     216:	17c1                	addi	a5,a5,-16
     218:	97a2                	add	a5,a5,s0
     21a:	df87b783          	ld	a5,-520(a5)
     21e:	2781                	sext.w	a5,a5
     220:	4601                	li	a2,0
     222:	85be                	mv	a1,a5
     224:	dd843503          	ld	a0,-552(s0)
     228:	005000ef          	jal	ra,a2c <__fseek>
     22c:	fe846703          	lwu	a4,-24(s0)
     230:	87ba                	mv	a5,a4
     232:	078e                	slli	a5,a5,0x3
     234:	8f99                	sub	a5,a5,a4
     236:	078e                	slli	a5,a5,0x3
     238:	17c1                	addi	a5,a5,-16
     23a:	97a2                	add	a5,a5,s0
     23c:	e087b783          	ld	a5,-504(a5)
     240:	86be                	mv	a3,a5
     242:	fe846703          	lwu	a4,-24(s0)
     246:	87ba                	mv	a5,a4
     248:	078e                	slli	a5,a5,0x3
     24a:	8f99                	sub	a5,a5,a4
     24c:	078e                	slli	a5,a5,0x3
     24e:	17c1                	addi	a5,a5,-16
     250:	97a2                	add	a5,a5,s0
     252:	e107b783          	ld	a5,-496(a5)
     256:	2781                	sext.w	a5,a5
     258:	863e                	mv	a2,a5
     25a:	85b6                	mv	a1,a3
     25c:	dd843503          	ld	a0,-552(s0)
     260:	051000ef          	jal	ra,ab0 <__fread>
     264:	fe042223          	sw	zero,-28(s0)
     268:	a089                	j	2aa <__elf_loader+0x152>
     26a:	fe846703          	lwu	a4,-24(s0)
     26e:	87ba                	mv	a5,a4
     270:	078e                	slli	a5,a5,0x3
     272:	8f99                	sub	a5,a5,a4
     274:	078e                	slli	a5,a5,0x3
     276:	17c1                	addi	a5,a5,-16
     278:	97a2                	add	a5,a5,s0
     27a:	e087b683          	ld	a3,-504(a5)
     27e:	fe846703          	lwu	a4,-24(s0)
     282:	87ba                	mv	a5,a4
     284:	078e                	slli	a5,a5,0x3
     286:	8f99                	sub	a5,a5,a4
     288:	078e                	slli	a5,a5,0x3
     28a:	17c1                	addi	a5,a5,-16
     28c:	97a2                	add	a5,a5,s0
     28e:	e107b783          	ld	a5,-496(a5)
     292:	00f68733          	add	a4,a3,a5
     296:	fe446783          	lwu	a5,-28(s0)
     29a:	97ba                	add	a5,a5,a4
     29c:	0007b023          	sd	zero,0(a5)
     2a0:	fe442783          	lw	a5,-28(s0)
     2a4:	27a1                	addiw	a5,a5,8
     2a6:	fef42223          	sw	a5,-28(s0)
     2aa:	fe846703          	lwu	a4,-24(s0)
     2ae:	87ba                	mv	a5,a4
     2b0:	078e                	slli	a5,a5,0x3
     2b2:	8f99                	sub	a5,a5,a4
     2b4:	078e                	slli	a5,a5,0x3
     2b6:	17c1                	addi	a5,a5,-16
     2b8:	97a2                	add	a5,a5,s0
     2ba:	e107b703          	ld	a4,-496(a5)
     2be:	fe446783          	lwu	a5,-28(s0)
     2c2:	00f706b3          	add	a3,a4,a5
     2c6:	fe846703          	lwu	a4,-24(s0)
     2ca:	87ba                	mv	a5,a4
     2cc:	078e                	slli	a5,a5,0x3
     2ce:	8f99                	sub	a5,a5,a4
     2d0:	078e                	slli	a5,a5,0x3
     2d2:	17c1                	addi	a5,a5,-16
     2d4:	97a2                	add	a5,a5,s0
     2d6:	e187b783          	ld	a5,-488(a5)
     2da:	f8f6e8e3          	bltu	a3,a5,26a <__elf_loader+0x112>
     2de:	fe842783          	lw	a5,-24(s0)
     2e2:	2785                	addiw	a5,a5,1
     2e4:	fef42423          	sw	a5,-24(s0)
     2e8:	fe842783          	lw	a5,-24(s0)
     2ec:	873e                	mv	a4,a5
     2ee:	fe042783          	lw	a5,-32(s0)
     2f2:	2701                	sext.w	a4,a4
     2f4:	2781                	sext.w	a5,a5
     2f6:	f0f76ae3          	bltu	a4,a5,20a <__elf_loader+0xb2>
     2fa:	fec42783          	lw	a5,-20(s0)
     2fe:	873e                	mv	a4,a5
     300:	fe042783          	lw	a5,-32(s0)
     304:	9fb9                	addw	a5,a5,a4
     306:	fef42623          	sw	a5,-20(s0)
     30a:	fd845783          	lhu	a5,-40(s0)
     30e:	0007871b          	sext.w	a4,a5
     312:	fec42783          	lw	a5,-20(s0)
     316:	2781                	sext.w	a5,a5
     318:	e6e7ebe3          	bltu	a5,a4,18e <__elf_loader+0x36>
     31c:	fb843783          	ld	a5,-72(s0)
     320:	853e                	mv	a0,a5
     322:	22813083          	ld	ra,552(sp)
     326:	22013403          	ld	s0,544(sp)
     32a:	23010113          	addi	sp,sp,560
     32e:	8082                	ret

0000000000000330 <__fat_bpb_init>:
     330:	dd010113          	addi	sp,sp,-560
     334:	22113423          	sd	ra,552(sp)
     338:	22813023          	sd	s0,544(sp)
     33c:	1c00                	addi	s0,sp,560
     33e:	dca43c23          	sd	a0,-552(s0)
     342:	fe041723          	sh	zero,-18(s0)
     346:	fee45783          	lhu	a5,-18(s0)
     34a:	2781                	sext.w	a5,a5
     34c:	de840713          	addi	a4,s0,-536
     350:	85ba                	mv	a1,a4
     352:	853e                	mv	a0,a5
     354:	3a5000ef          	jal	ra,ef8 <__sd_readblk>
     358:	87aa                	mv	a5,a0
     35a:	e399                	bnez	a5,360 <__fat_bpb_init+0x30>
     35c:	4781                	li	a5,0
     35e:	a6c9                	j	720 <__fat_bpb_init+0x3f0>
     360:	de840793          	addi	a5,s0,-536
     364:	1fe78793          	addi	a5,a5,510
     368:	0007d783          	lhu	a5,0(a5)
     36c:	0007871b          	sext.w	a4,a5
     370:	67ad                	lui	a5,0xb
     372:	a5578793          	addi	a5,a5,-1451 # aa55 <__data_end+0x8ee3>
     376:	00f70463          	beq	a4,a5,37e <__fat_bpb_init+0x4e>
     37a:	4781                	li	a5,0
     37c:	a655                	j	720 <__fat_bpb_init+0x3f0>
     37e:	de840793          	addi	a5,s0,-536
     382:	03678793          	addi	a5,a5,54
     386:	4621                	li	a2,8
     388:	00001597          	auipc	a1,0x1
     38c:	07858593          	addi	a1,a1,120 # 1400 <__text_end>
     390:	853e                	mv	a0,a5
     392:	64d000ef          	jal	ra,11de <__strcmp>
     396:	87aa                	mv	a5,a0
     398:	2781                	sext.w	a5,a5
     39a:	e799                	bnez	a5,3a8 <__fat_bpb_init+0x78>
     39c:	dd843783          	ld	a5,-552(s0)
     3a0:	470d                	li	a4,3
     3a2:	00e78a23          	sb	a4,20(a5)
     3a6:	a205                	j	4c6 <__fat_bpb_init+0x196>
     3a8:	de840793          	addi	a5,s0,-536
     3ac:	03678793          	addi	a5,a5,54
     3b0:	4621                	li	a2,8
     3b2:	00001597          	auipc	a1,0x1
     3b6:	05e58593          	addi	a1,a1,94 # 1410 <__text_end+0x10>
     3ba:	853e                	mv	a0,a5
     3bc:	623000ef          	jal	ra,11de <__strcmp>
     3c0:	87aa                	mv	a5,a0
     3c2:	2781                	sext.w	a5,a5
     3c4:	e799                	bnez	a5,3d2 <__fat_bpb_init+0xa2>
     3c6:	dd843783          	ld	a5,-552(s0)
     3ca:	4711                	li	a4,4
     3cc:	00e78a23          	sb	a4,20(a5)
     3d0:	a8dd                	j	4c6 <__fat_bpb_init+0x196>
     3d2:	de840793          	addi	a5,s0,-536
     3d6:	05278793          	addi	a5,a5,82
     3da:	4621                	li	a2,8
     3dc:	00001597          	auipc	a1,0x1
     3e0:	04458593          	addi	a1,a1,68 # 1420 <__text_end+0x20>
     3e4:	853e                	mv	a0,a5
     3e6:	5f9000ef          	jal	ra,11de <__strcmp>
     3ea:	87aa                	mv	a5,a0
     3ec:	2781                	sext.w	a5,a5
     3ee:	e799                	bnez	a5,3fc <__fat_bpb_init+0xcc>
     3f0:	dd843783          	ld	a5,-552(s0)
     3f4:	4715                	li	a4,5
     3f6:	00e78a23          	sb	a4,20(a5)
     3fa:	a0f1                	j	4c6 <__fat_bpb_init+0x196>
     3fc:	de840793          	addi	a5,s0,-536
     400:	1c678793          	addi	a5,a5,454
     404:	0007d783          	lhu	a5,0(a5)
     408:	fef41723          	sh	a5,-18(s0)
     40c:	fee45783          	lhu	a5,-18(s0)
     410:	2781                	sext.w	a5,a5
     412:	de840713          	addi	a4,s0,-536
     416:	85ba                	mv	a1,a4
     418:	853e                	mv	a0,a5
     41a:	2df000ef          	jal	ra,ef8 <__sd_readblk>
     41e:	87aa                	mv	a5,a0
     420:	e399                	bnez	a5,426 <__fat_bpb_init+0xf6>
     422:	4781                	li	a5,0
     424:	acf5                	j	720 <__fat_bpb_init+0x3f0>
     426:	de840793          	addi	a5,s0,-536
     42a:	1fe78793          	addi	a5,a5,510
     42e:	0007d783          	lhu	a5,0(a5)
     432:	0007871b          	sext.w	a4,a5
     436:	67ad                	lui	a5,0xb
     438:	a5578793          	addi	a5,a5,-1451 # aa55 <__data_end+0x8ee3>
     43c:	00f70463          	beq	a4,a5,444 <__fat_bpb_init+0x114>
     440:	4781                	li	a5,0
     442:	acf9                	j	720 <__fat_bpb_init+0x3f0>
     444:	de840793          	addi	a5,s0,-536
     448:	03678793          	addi	a5,a5,54
     44c:	4621                	li	a2,8
     44e:	00001597          	auipc	a1,0x1
     452:	fb258593          	addi	a1,a1,-78 # 1400 <__text_end>
     456:	853e                	mv	a0,a5
     458:	587000ef          	jal	ra,11de <__strcmp>
     45c:	87aa                	mv	a5,a0
     45e:	2781                	sext.w	a5,a5
     460:	e799                	bnez	a5,46e <__fat_bpb_init+0x13e>
     462:	dd843783          	ld	a5,-552(s0)
     466:	470d                	li	a4,3
     468:	00e78a23          	sb	a4,20(a5)
     46c:	a8a9                	j	4c6 <__fat_bpb_init+0x196>
     46e:	de840793          	addi	a5,s0,-536
     472:	03678793          	addi	a5,a5,54
     476:	4621                	li	a2,8
     478:	00001597          	auipc	a1,0x1
     47c:	f9858593          	addi	a1,a1,-104 # 1410 <__text_end+0x10>
     480:	853e                	mv	a0,a5
     482:	55d000ef          	jal	ra,11de <__strcmp>
     486:	87aa                	mv	a5,a0
     488:	2781                	sext.w	a5,a5
     48a:	e799                	bnez	a5,498 <__fat_bpb_init+0x168>
     48c:	dd843783          	ld	a5,-552(s0)
     490:	4711                	li	a4,4
     492:	00e78a23          	sb	a4,20(a5)
     496:	a805                	j	4c6 <__fat_bpb_init+0x196>
     498:	de840793          	addi	a5,s0,-536
     49c:	05278793          	addi	a5,a5,82
     4a0:	4621                	li	a2,8
     4a2:	00001597          	auipc	a1,0x1
     4a6:	f7e58593          	addi	a1,a1,-130 # 1420 <__text_end+0x20>
     4aa:	853e                	mv	a0,a5
     4ac:	533000ef          	jal	ra,11de <__strcmp>
     4b0:	87aa                	mv	a5,a0
     4b2:	2781                	sext.w	a5,a5
     4b4:	e799                	bnez	a5,4c2 <__fat_bpb_init+0x192>
     4b6:	dd843783          	ld	a5,-552(s0)
     4ba:	4715                	li	a4,5
     4bc:	00e78a23          	sb	a4,20(a5)
     4c0:	a019                	j	4c6 <__fat_bpb_init+0x196>
     4c2:	4781                	li	a5,0
     4c4:	acb1                	j	720 <__fat_bpb_init+0x3f0>
     4c6:	df344783          	lbu	a5,-525(s0)
     4ca:	0107971b          	slliw	a4,a5,0x10
     4ce:	4107571b          	sraiw	a4,a4,0x10
     4d2:	de840793          	addi	a5,s0,-536
     4d6:	07ad                	addi	a5,a5,11
     4d8:	0785                	addi	a5,a5,1
     4da:	0007c783          	lbu	a5,0(a5)
     4de:	2781                	sext.w	a5,a5
     4e0:	0087979b          	slliw	a5,a5,0x8
     4e4:	2781                	sext.w	a5,a5
     4e6:	0107979b          	slliw	a5,a5,0x10
     4ea:	4107d79b          	sraiw	a5,a5,0x10
     4ee:	8fd9                	or	a5,a5,a4
     4f0:	0107979b          	slliw	a5,a5,0x10
     4f4:	4107d79b          	sraiw	a5,a5,0x10
     4f8:	03079713          	slli	a4,a5,0x30
     4fc:	9341                	srli	a4,a4,0x30
     4fe:	dd843783          	ld	a5,-552(s0)
     502:	00e79023          	sh	a4,0(a5)
     506:	df544703          	lbu	a4,-523(s0)
     50a:	dd843783          	ld	a5,-552(s0)
     50e:	00e78923          	sb	a4,18(a5)
     512:	dd843783          	ld	a5,-552(s0)
     516:	0147c783          	lbu	a5,20(a5)
     51a:	873e                	mv	a4,a5
     51c:	4795                	li	a5,5
     51e:	00f71963          	bne	a4,a5,530 <__fat_bpb_init+0x200>
     522:	de840793          	addi	a5,s0,-536
     526:	02478793          	addi	a5,a5,36
     52a:	0007d783          	lhu	a5,0(a5)
     52e:	a031                	j	53a <__fat_bpb_init+0x20a>
     530:	de840793          	addi	a5,s0,-536
     534:	07d9                	addi	a5,a5,22
     536:	0007d783          	lhu	a5,0(a5)
     53a:	dd843703          	ld	a4,-552(s0)
     53e:	00f71123          	sh	a5,2(a4)
     542:	df844703          	lbu	a4,-520(s0)
     546:	dd843783          	ld	a5,-552(s0)
     54a:	00e789a3          	sb	a4,19(a5)
     54e:	df644783          	lbu	a5,-522(s0)
     552:	0107971b          	slliw	a4,a5,0x10
     556:	4107571b          	sraiw	a4,a4,0x10
     55a:	de840793          	addi	a5,s0,-536
     55e:	07b9                	addi	a5,a5,14
     560:	0785                	addi	a5,a5,1
     562:	0007c783          	lbu	a5,0(a5)
     566:	2781                	sext.w	a5,a5
     568:	0087979b          	slliw	a5,a5,0x8
     56c:	2781                	sext.w	a5,a5
     56e:	0107979b          	slliw	a5,a5,0x10
     572:	4107d79b          	sraiw	a5,a5,0x10
     576:	8fd9                	or	a5,a5,a4
     578:	0107979b          	slliw	a5,a5,0x10
     57c:	4107d79b          	sraiw	a5,a5,0x10
     580:	17c2                	slli	a5,a5,0x30
     582:	93c1                	srli	a5,a5,0x30
     584:	fee45703          	lhu	a4,-18(s0)
     588:	9fb9                	addw	a5,a5,a4
     58a:	03079713          	slli	a4,a5,0x30
     58e:	9341                	srli	a4,a4,0x30
     590:	dd843783          	ld	a5,-552(s0)
     594:	00e79223          	sh	a4,4(a5)
     598:	dd843783          	ld	a5,-552(s0)
     59c:	0137c783          	lbu	a5,19(a5)
     5a0:	03079713          	slli	a4,a5,0x30
     5a4:	9341                	srli	a4,a4,0x30
     5a6:	dd843783          	ld	a5,-552(s0)
     5aa:	0027d783          	lhu	a5,2(a5)
     5ae:	02f707bb          	mulw	a5,a4,a5
     5b2:	03079713          	slli	a4,a5,0x30
     5b6:	9341                	srli	a4,a4,0x30
     5b8:	dd843783          	ld	a5,-552(s0)
     5bc:	0047d783          	lhu	a5,4(a5)
     5c0:	9fb9                	addw	a5,a5,a4
     5c2:	03079713          	slli	a4,a5,0x30
     5c6:	9341                	srli	a4,a4,0x30
     5c8:	dd843783          	ld	a5,-552(s0)
     5cc:	00e79323          	sh	a4,6(a5)
     5d0:	df944783          	lbu	a5,-519(s0)
     5d4:	0107971b          	slliw	a4,a5,0x10
     5d8:	4107571b          	sraiw	a4,a4,0x10
     5dc:	de840793          	addi	a5,s0,-536
     5e0:	07c5                	addi	a5,a5,17
     5e2:	0785                	addi	a5,a5,1
     5e4:	0007c783          	lbu	a5,0(a5)
     5e8:	2781                	sext.w	a5,a5
     5ea:	0087979b          	slliw	a5,a5,0x8
     5ee:	2781                	sext.w	a5,a5
     5f0:	0107979b          	slliw	a5,a5,0x10
     5f4:	4107d79b          	sraiw	a5,a5,0x10
     5f8:	8fd9                	or	a5,a5,a4
     5fa:	0107979b          	slliw	a5,a5,0x10
     5fe:	4107d79b          	sraiw	a5,a5,0x10
     602:	03079713          	slli	a4,a5,0x30
     606:	9341                	srli	a4,a4,0x30
     608:	dd843783          	ld	a5,-552(s0)
     60c:	00e79623          	sh	a4,12(a5)
     610:	dd843783          	ld	a5,-552(s0)
     614:	0147c783          	lbu	a5,20(a5)
     618:	873e                	mv	a4,a5
     61a:	4795                	li	a5,5
     61c:	02f71563          	bne	a4,a5,646 <__fat_bpb_init+0x316>
     620:	de840793          	addi	a5,s0,-536
     624:	02c78793          	addi	a5,a5,44
     628:	0007d703          	lhu	a4,0(a5)
     62c:	dd843783          	ld	a5,-552(s0)
     630:	00e79723          	sh	a4,14(a5)
     634:	dd843783          	ld	a5,-552(s0)
     638:	0067d703          	lhu	a4,6(a5)
     63c:	dd843783          	ld	a5,-552(s0)
     640:	00e79823          	sh	a4,16(a5)
     644:	a835                	j	680 <__fat_bpb_init+0x350>
     646:	dd843783          	ld	a5,-552(s0)
     64a:	0067d703          	lhu	a4,6(a5)
     64e:	dd843783          	ld	a5,-552(s0)
     652:	00e79723          	sh	a4,14(a5)
     656:	dd843783          	ld	a5,-552(s0)
     65a:	00c7d783          	lhu	a5,12(a5)
     65e:	0047d79b          	srliw	a5,a5,0x4
     662:	03079713          	slli	a4,a5,0x30
     666:	9341                	srli	a4,a4,0x30
     668:	dd843783          	ld	a5,-552(s0)
     66c:	0067d783          	lhu	a5,6(a5)
     670:	9fb9                	addw	a5,a5,a4
     672:	03079713          	slli	a4,a5,0x30
     676:	9341                	srli	a4,a4,0x30
     678:	dd843783          	ld	a5,-552(s0)
     67c:	00e79823          	sh	a4,16(a5)
     680:	de840793          	addi	a5,s0,-536
     684:	02078793          	addi	a5,a5,32
     688:	439c                	lw	a5,0(a5)
     68a:	c799                	beqz	a5,698 <__fat_bpb_init+0x368>
     68c:	de840793          	addi	a5,s0,-536
     690:	02078793          	addi	a5,a5,32
     694:	439c                	lw	a5,0(a5)
     696:	a015                	j	6ba <__fat_bpb_init+0x38a>
     698:	dfb44783          	lbu	a5,-517(s0)
     69c:	0007871b          	sext.w	a4,a5
     6a0:	de840793          	addi	a5,s0,-536
     6a4:	07cd                	addi	a5,a5,19
     6a6:	0785                	addi	a5,a5,1
     6a8:	0007c783          	lbu	a5,0(a5)
     6ac:	2781                	sext.w	a5,a5
     6ae:	0087979b          	slliw	a5,a5,0x8
     6b2:	2781                	sext.w	a5,a5
     6b4:	8fd9                	or	a5,a5,a4
     6b6:	2781                	sext.w	a5,a5
     6b8:	2781                	sext.w	a5,a5
     6ba:	fef42423          	sw	a5,-24(s0)
     6be:	dd843783          	ld	a5,-552(s0)
     6c2:	0107d783          	lhu	a5,16(a5)
     6c6:	2781                	sext.w	a5,a5
     6c8:	fe842703          	lw	a4,-24(s0)
     6cc:	40f707bb          	subw	a5,a4,a5
     6d0:	0007871b          	sext.w	a4,a5
     6d4:	fee45783          	lhu	a5,-18(s0)
     6d8:	2781                	sext.w	a5,a5
     6da:	9fb9                	addw	a5,a5,a4
     6dc:	0007871b          	sext.w	a4,a5
     6e0:	dd843783          	ld	a5,-552(s0)
     6e4:	0127c783          	lbu	a5,18(a5)
     6e8:	2781                	sext.w	a5,a5
     6ea:	02f757bb          	divuw	a5,a4,a5
     6ee:	2781                	sext.w	a5,a5
     6f0:	2789                	addiw	a5,a5,2
     6f2:	0007871b          	sext.w	a4,a5
     6f6:	dd843783          	ld	a5,-552(s0)
     6fa:	c798                	sw	a4,8(a5)
     6fc:	dd843783          	ld	a5,-552(s0)
     700:	0047d783          	lhu	a5,4(a5)
     704:	0007871b          	sext.w	a4,a5
     708:	dd843783          	ld	a5,-552(s0)
     70c:	07e1                	addi	a5,a5,24
     70e:	85be                	mv	a1,a5
     710:	853a                	mv	a0,a4
     712:	7e6000ef          	jal	ra,ef8 <__sd_readblk>
     716:	87aa                	mv	a5,a0
     718:	e399                	bnez	a5,71e <__fat_bpb_init+0x3ee>
     71a:	4781                	li	a5,0
     71c:	a011                	j	720 <__fat_bpb_init+0x3f0>
     71e:	4785                	li	a5,1
     720:	853e                	mv	a0,a5
     722:	22813083          	ld	ra,552(sp)
     726:	22013403          	ld	s0,544(sp)
     72a:	23010113          	addi	sp,sp,560
     72e:	8082                	ret

0000000000000730 <__fopen>:
     730:	dc010113          	addi	sp,sp,-576
     734:	22113c23          	sd	ra,568(sp)
     738:	22813823          	sd	s0,560(sp)
     73c:	0480                	addi	s0,sp,576
     73e:	dca43423          	sd	a0,-568(s0)
     742:	dcb43023          	sd	a1,-576(s0)
     746:	fe041723          	sh	zero,-18(s0)
     74a:	a805                	j	77a <_binary_tmp_size+0x48>
     74c:	dc043783          	ld	a5,-576(s0)
     750:	00178713          	addi	a4,a5,1
     754:	dce43023          	sd	a4,-576(s0)
     758:	0007c703          	lbu	a4,0(a5)
     75c:	fee45783          	lhu	a5,-18(s0)
     760:	0017869b          	addiw	a3,a5,1
     764:	fed41723          	sh	a3,-18(s0)
     768:	2781                	sext.w	a5,a5
     76a:	fdf77713          	andi	a4,a4,-33
     76e:	0ff77713          	zext.b	a4,a4
     772:	17c1                	addi	a5,a5,-16
     774:	97a2                	add	a5,a5,s0
     776:	fee78423          	sb	a4,-24(a5)
     77a:	fee45783          	lhu	a5,-18(s0)
     77e:	0007871b          	sext.w	a4,a5
     782:	479d                	li	a5,7
     784:	02e7ee63          	bltu	a5,a4,7c0 <_binary_tmp_size+0x8e>
     788:	dc043783          	ld	a5,-576(s0)
     78c:	0007c783          	lbu	a5,0(a5)
     790:	cb85                	beqz	a5,7c0 <_binary_tmp_size+0x8e>
     792:	dc043783          	ld	a5,-576(s0)
     796:	0007c783          	lbu	a5,0(a5)
     79a:	873e                	mv	a4,a5
     79c:	02e00793          	li	a5,46
     7a0:	faf716e3          	bne	a4,a5,74c <_binary_tmp_size+0x1a>
     7a4:	a831                	j	7c0 <_binary_tmp_size+0x8e>
     7a6:	fee45783          	lhu	a5,-18(s0)
     7aa:	0017871b          	addiw	a4,a5,1
     7ae:	fee41723          	sh	a4,-18(s0)
     7b2:	2781                	sext.w	a5,a5
     7b4:	17c1                	addi	a5,a5,-16
     7b6:	97a2                	add	a5,a5,s0
     7b8:	02000713          	li	a4,32
     7bc:	fee78423          	sb	a4,-24(a5)
     7c0:	fee45783          	lhu	a5,-18(s0)
     7c4:	0007871b          	sext.w	a4,a5
     7c8:	479d                	li	a5,7
     7ca:	fce7fee3          	bgeu	a5,a4,7a6 <_binary_tmp_size+0x74>
     7ce:	dc043783          	ld	a5,-576(s0)
     7d2:	0785                	addi	a5,a5,1
     7d4:	dcf43023          	sd	a5,-576(s0)
     7d8:	fe041723          	sh	zero,-18(s0)
     7dc:	a805                	j	80c <_binary_tmp_size+0xda>
     7de:	dc043783          	ld	a5,-576(s0)
     7e2:	00178713          	addi	a4,a5,1
     7e6:	dce43023          	sd	a4,-576(s0)
     7ea:	0007c703          	lbu	a4,0(a5)
     7ee:	fee45783          	lhu	a5,-18(s0)
     7f2:	0017869b          	addiw	a3,a5,1
     7f6:	fed41723          	sh	a3,-18(s0)
     7fa:	2781                	sext.w	a5,a5
     7fc:	fdf77713          	andi	a4,a4,-33
     800:	0ff77713          	zext.b	a4,a4
     804:	17c1                	addi	a5,a5,-16
     806:	97a2                	add	a5,a5,s0
     808:	fee78023          	sb	a4,-32(a5)
     80c:	fee45783          	lhu	a5,-18(s0)
     810:	0007871b          	sext.w	a4,a5
     814:	4789                	li	a5,2
     816:	02e7e563          	bltu	a5,a4,840 <_binary_tmp_size+0x10e>
     81a:	dc043783          	ld	a5,-576(s0)
     81e:	0007c783          	lbu	a5,0(a5)
     822:	ffd5                	bnez	a5,7de <_binary_tmp_size+0xac>
     824:	a831                	j	840 <_binary_tmp_size+0x10e>
     826:	fee45783          	lhu	a5,-18(s0)
     82a:	0017871b          	addiw	a4,a5,1
     82e:	fee41723          	sh	a4,-18(s0)
     832:	2781                	sext.w	a5,a5
     834:	17c1                	addi	a5,a5,-16
     836:	97a2                	add	a5,a5,s0
     838:	02000713          	li	a4,32
     83c:	fee78023          	sb	a4,-32(a5)
     840:	fee45783          	lhu	a5,-18(s0)
     844:	0007871b          	sext.w	a4,a5
     848:	4789                	li	a5,2
     84a:	fce7fee3          	bgeu	a5,a4,826 <_binary_tmp_size+0xf4>
     84e:	dc843783          	ld	a5,-568(s0)
     852:	739c                	ld	a5,32(a5)
     854:	0107d783          	lhu	a5,16(a5)
     858:	2781                	sext.w	a5,a5
     85a:	dd040713          	addi	a4,s0,-560
     85e:	85ba                	mv	a1,a4
     860:	853e                	mv	a0,a5
     862:	696000ef          	jal	ra,ef8 <__sd_readblk>
     866:	87aa                	mv	a5,a0
     868:	e399                	bnez	a5,86e <_binary_tmp_size+0x13c>
     86a:	4781                	li	a5,0
     86c:	aa45                	j	a1c <_binary_tmp_size+0x2ea>
     86e:	fe041723          	sh	zero,-18(s0)
     872:	aa61                	j	a0a <_binary_tmp_size+0x2d8>
     874:	fee45783          	lhu	a5,-18(s0)
     878:	2781                	sext.w	a5,a5
     87a:	17c1                	addi	a5,a5,-16
     87c:	97a2                	add	a5,a5,s0
     87e:	de07c783          	lbu	a5,-544(a5)
     882:	873e                	mv	a4,a5
     884:	0e500793          	li	a5,229
     888:	04f70463          	beq	a4,a5,8d0 <_binary_tmp_size+0x19e>
     88c:	fee45783          	lhu	a5,-18(s0)
     890:	2781                	sext.w	a5,a5
     892:	dd040713          	addi	a4,s0,-560
     896:	97ba                	add	a5,a5,a4
     898:	fd840713          	addi	a4,s0,-40
     89c:	4621                	li	a2,8
     89e:	85ba                	mv	a1,a4
     8a0:	853e                	mv	a0,a5
     8a2:	13d000ef          	jal	ra,11de <__strcmp>
     8a6:	87aa                	mv	a5,a0
     8a8:	2781                	sext.w	a5,a5
     8aa:	e39d                	bnez	a5,8d0 <_binary_tmp_size+0x19e>
     8ac:	fee45783          	lhu	a5,-18(s0)
     8b0:	2781                	sext.w	a5,a5
     8b2:	27a1                	addiw	a5,a5,8
     8b4:	2781                	sext.w	a5,a5
     8b6:	dd040713          	addi	a4,s0,-560
     8ba:	97ba                	add	a5,a5,a4
     8bc:	fd040713          	addi	a4,s0,-48
     8c0:	460d                	li	a2,3
     8c2:	85ba                	mv	a1,a4
     8c4:	853e                	mv	a0,a5
     8c6:	119000ef          	jal	ra,11de <__strcmp>
     8ca:	87aa                	mv	a5,a0
     8cc:	2781                	sext.w	a5,a5
     8ce:	cb81                	beqz	a5,8de <_binary_tmp_size+0x1ac>
     8d0:	fee45783          	lhu	a5,-18(s0)
     8d4:	0207879b          	addiw	a5,a5,32
     8d8:	fef41723          	sh	a5,-18(s0)
     8dc:	a23d                	j	a0a <_binary_tmp_size+0x2d8>
     8de:	fee45783          	lhu	a5,-18(s0)
     8e2:	2781                	sext.w	a5,a5
     8e4:	dd040713          	addi	a4,s0,-560
     8e8:	97ba                	add	a5,a5,a4
     8ea:	02000613          	li	a2,32
     8ee:	85be                	mv	a1,a5
     8f0:	dc843503          	ld	a0,-568(s0)
     8f4:	15d000ef          	jal	ra,1250 <__memcpy>
     8f8:	dc843783          	ld	a5,-568(s0)
     8fc:	0207a423          	sw	zero,40(a5)
     900:	dc843783          	ld	a5,-568(s0)
     904:	577d                	li	a4,-1
     906:	d7d8                	sw	a4,44(a5)
     908:	dc843783          	ld	a5,-568(s0)
     90c:	01a7d783          	lhu	a5,26(a5)
     910:	0007871b          	sext.w	a4,a5
     914:	dc843783          	ld	a5,-568(s0)
     918:	0147d783          	lhu	a5,20(a5)
     91c:	2781                	sext.w	a5,a5
     91e:	0107979b          	slliw	a5,a5,0x10
     922:	2781                	sext.w	a5,a5
     924:	2781                	sext.w	a5,a5
     926:	8fd9                	or	a5,a5,a4
     928:	0007871b          	sext.w	a4,a5
     92c:	dc843783          	ld	a5,-568(s0)
     930:	739c                	ld	a5,32(a5)
     932:	00e7d783          	lhu	a5,14(a5)
     936:	2781                	sext.w	a5,a5
     938:	40f707bb          	subw	a5,a4,a5
     93c:	0007871b          	sext.w	a4,a5
     940:	dc843783          	ld	a5,-568(s0)
     944:	db98                	sw	a4,48(a5)
     946:	fe0403a3          	sb	zero,-25(s0)
     94a:	4785                	li	a5,1
     94c:	fef41623          	sh	a5,-20(s0)
     950:	a05d                	j	9f6 <_binary_tmp_size+0x2c4>
     952:	fe744783          	lbu	a5,-25(s0)
     956:	0ff7f793          	zext.b	a5,a5
     95a:	efb1                	bnez	a5,9b6 <_binary_tmp_size+0x284>
     95c:	dc843783          	ld	a5,-568(s0)
     960:	7398                	ld	a4,32(a5)
     962:	fec45783          	lhu	a5,-20(s0)
     966:	2781                	sext.w	a5,a5
     968:	37fd                	addiw	a5,a5,-1
     96a:	2781                	sext.w	a5,a5
     96c:	dc843683          	ld	a3,-568(s0)
     970:	07b1                	addi	a5,a5,12
     972:	078a                	slli	a5,a5,0x2
     974:	97b6                	add	a5,a5,a3
     976:	4394                	lw	a3,0(a5)
     978:	dc843783          	ld	a5,-568(s0)
     97c:	739c                	ld	a5,32(a5)
     97e:	00e7d783          	lhu	a5,14(a5)
     982:	2781                	sext.w	a5,a5
     984:	9fb5                	addw	a5,a5,a3
     986:	2781                	sext.w	a5,a5
     988:	1782                	slli	a5,a5,0x20
     98a:	9381                	srli	a5,a5,0x20
     98c:	0791                	addi	a5,a5,4
     98e:	078a                	slli	a5,a5,0x2
     990:	97ba                	add	a5,a5,a4
     992:	479c                	lw	a5,8(a5)
     994:	fef42423          	sw	a5,-24(s0)
     998:	fe842783          	lw	a5,-24(s0)
     99c:	0007871b          	sext.w	a4,a5
     9a0:	100007b7          	lui	a5,0x10000
     9a4:	17fd                	addi	a5,a5,-1
     9a6:	40f707b3          	sub	a5,a4,a5
     9aa:	0017b793          	seqz	a5,a5
     9ae:	0ff7f793          	zext.b	a5,a5
     9b2:	fef403a3          	sb	a5,-25(s0)
     9b6:	fe744783          	lbu	a5,-25(s0)
     9ba:	0ff7f793          	zext.b	a5,a5
     9be:	ef89                	bnez	a5,9d8 <_binary_tmp_size+0x2a6>
     9c0:	dc843783          	ld	a5,-568(s0)
     9c4:	739c                	ld	a5,32(a5)
     9c6:	00e7d783          	lhu	a5,14(a5) # 1000000e <__stack+0xffc000e>
     9ca:	2781                	sext.w	a5,a5
     9cc:	fe842703          	lw	a4,-24(s0)
     9d0:	40f707bb          	subw	a5,a4,a5
     9d4:	2781                	sext.w	a5,a5
     9d6:	a011                	j	9da <_binary_tmp_size+0x2a8>
     9d8:	57fd                	li	a5,-1
     9da:	fec45703          	lhu	a4,-20(s0)
     9de:	2701                	sext.w	a4,a4
     9e0:	dc843683          	ld	a3,-568(s0)
     9e4:	0731                	addi	a4,a4,12
     9e6:	070a                	slli	a4,a4,0x2
     9e8:	9736                	add	a4,a4,a3
     9ea:	c31c                	sw	a5,0(a4)
     9ec:	fec45783          	lhu	a5,-20(s0)
     9f0:	2785                	addiw	a5,a5,1
     9f2:	fef41623          	sh	a5,-20(s0)
     9f6:	fec45783          	lhu	a5,-20(s0)
     9fa:	0007871b          	sext.w	a4,a5
     9fe:	07f00793          	li	a5,127
     a02:	f4e7f8e3          	bgeu	a5,a4,952 <_binary_tmp_size+0x220>
     a06:	4785                	li	a5,1
     a08:	a811                	j	a1c <_binary_tmp_size+0x2ea>
     a0a:	fee45783          	lhu	a5,-18(s0)
     a0e:	0007871b          	sext.w	a4,a5
     a12:	1ff00793          	li	a5,511
     a16:	e4e7ffe3          	bgeu	a5,a4,874 <_binary_tmp_size+0x142>
     a1a:	4781                	li	a5,0
     a1c:	853e                	mv	a0,a5
     a1e:	23813083          	ld	ra,568(sp)
     a22:	23013403          	ld	s0,560(sp)
     a26:	24010113          	addi	sp,sp,576
     a2a:	8082                	ret

0000000000000a2c <__fseek>:
     a2c:	1101                	addi	sp,sp,-32
     a2e:	ec22                	sd	s0,24(sp)
     a30:	1000                	addi	s0,sp,32
     a32:	fea43423          	sd	a0,-24(s0)
     a36:	87ae                	mv	a5,a1
     a38:	8732                	mv	a4,a2
     a3a:	fef42223          	sw	a5,-28(s0)
     a3e:	87ba                	mv	a5,a4
     a40:	fef401a3          	sb	a5,-29(s0)
     a44:	fe344783          	lbu	a5,-29(s0)
     a48:	2781                	sext.w	a5,a5
     a4a:	86be                	mv	a3,a5
     a4c:	4709                	li	a4,2
     a4e:	02e68e63          	beq	a3,a4,a8a <__fseek+0x5e>
     a52:	86be                	mv	a3,a5
     a54:	4709                	li	a4,2
     a56:	04d74663          	blt	a4,a3,aa2 <__fseek+0x76>
     a5a:	c791                	beqz	a5,a66 <__fseek+0x3a>
     a5c:	873e                	mv	a4,a5
     a5e:	4785                	li	a5,1
     a60:	00f70963          	beq	a4,a5,a72 <__fseek+0x46>
     a64:	a83d                	j	aa2 <__fseek+0x76>
     a66:	fe843783          	ld	a5,-24(s0)
     a6a:	fe442703          	lw	a4,-28(s0)
     a6e:	d798                	sw	a4,40(a5)
     a70:	a81d                	j	aa6 <__fseek+0x7a>
     a72:	fe843783          	ld	a5,-24(s0)
     a76:	579c                	lw	a5,40(a5)
     a78:	fe442703          	lw	a4,-28(s0)
     a7c:	9fb9                	addw	a5,a5,a4
     a7e:	0007871b          	sext.w	a4,a5
     a82:	fe843783          	ld	a5,-24(s0)
     a86:	d798                	sw	a4,40(a5)
     a88:	a839                	j	aa6 <__fseek+0x7a>
     a8a:	fe843783          	ld	a5,-24(s0)
     a8e:	4fdc                	lw	a5,28(a5)
     a90:	fe442703          	lw	a4,-28(s0)
     a94:	9fb9                	addw	a5,a5,a4
     a96:	0007871b          	sext.w	a4,a5
     a9a:	fe843783          	ld	a5,-24(s0)
     a9e:	d798                	sw	a4,40(a5)
     aa0:	a019                	j	aa6 <__fseek+0x7a>
     aa2:	4781                	li	a5,0
     aa4:	a011                	j	aa8 <__fseek+0x7c>
     aa6:	4785                	li	a5,1
     aa8:	853e                	mv	a0,a5
     aaa:	6462                	ld	s0,24(sp)
     aac:	6105                	addi	sp,sp,32
     aae:	8082                	ret

0000000000000ab0 <__fread>:
     ab0:	715d                	addi	sp,sp,-80
     ab2:	e486                	sd	ra,72(sp)
     ab4:	e0a2                	sd	s0,64(sp)
     ab6:	0880                	addi	s0,sp,80
     ab8:	fca43423          	sd	a0,-56(s0)
     abc:	fcb43023          	sd	a1,-64(s0)
     ac0:	87b2                	mv	a5,a2
     ac2:	faf42e23          	sw	a5,-68(s0)
     ac6:	fc043783          	ld	a5,-64(s0)
     aca:	fef43423          	sd	a5,-24(s0)
     ace:	fe042023          	sw	zero,-32(s0)
     ad2:	fc843783          	ld	a5,-56(s0)
     ad6:	579c                	lw	a5,40(a5)
     ad8:	1ff7f793          	andi	a5,a5,511
     adc:	fcf42e23          	sw	a5,-36(s0)
     ae0:	a291                	j	c24 <__fread+0x174>
     ae2:	fc843783          	ld	a5,-56(s0)
     ae6:	579c                	lw	a5,40(a5)
     ae8:	0097d79b          	srliw	a5,a5,0x9
     aec:	fcf42c23          	sw	a5,-40(s0)
     af0:	fc843783          	ld	a5,-56(s0)
     af4:	57d8                	lw	a4,44(a5)
     af6:	fd842783          	lw	a5,-40(s0)
     afa:	2781                	sext.w	a5,a5
     afc:	08e78763          	beq	a5,a4,b8a <__fread+0xda>
     b00:	fc843783          	ld	a5,-56(s0)
     b04:	739c                	ld	a5,32(a5)
     b06:	0107d783          	lhu	a5,16(a5)
     b0a:	0007871b          	sext.w	a4,a5
     b0e:	fc843783          	ld	a5,-56(s0)
     b12:	739c                	ld	a5,32(a5)
     b14:	0127c783          	lbu	a5,18(a5)
     b18:	2781                	sext.w	a5,a5
     b1a:	fd842683          	lw	a3,-40(s0)
     b1e:	02f6f7bb          	remuw	a5,a3,a5
     b22:	2781                	sext.w	a5,a5
     b24:	9fb9                	addw	a5,a5,a4
     b26:	0007871b          	sext.w	a4,a5
     b2a:	fc843783          	ld	a5,-56(s0)
     b2e:	739c                	ld	a5,32(a5)
     b30:	0127c783          	lbu	a5,18(a5)
     b34:	2781                	sext.w	a5,a5
     b36:	fd842683          	lw	a3,-40(s0)
     b3a:	02f6d7bb          	divuw	a5,a3,a5
     b3e:	2781                	sext.w	a5,a5
     b40:	fc843683          	ld	a3,-56(s0)
     b44:	1782                	slli	a5,a5,0x20
     b46:	9381                	srli	a5,a5,0x20
     b48:	07b1                	addi	a5,a5,12
     b4a:	078a                	slli	a5,a5,0x2
     b4c:	97b6                	add	a5,a5,a3
     b4e:	4394                	lw	a3,0(a5)
     b50:	fc843783          	ld	a5,-56(s0)
     b54:	739c                	ld	a5,32(a5)
     b56:	0127c783          	lbu	a5,18(a5)
     b5a:	2781                	sext.w	a5,a5
     b5c:	02f687bb          	mulw	a5,a3,a5
     b60:	2781                	sext.w	a5,a5
     b62:	9fb9                	addw	a5,a5,a4
     b64:	0007871b          	sext.w	a4,a5
     b68:	fc843783          	ld	a5,-56(s0)
     b6c:	23078793          	addi	a5,a5,560
     b70:	85be                	mv	a1,a5
     b72:	853a                	mv	a0,a4
     b74:	384000ef          	jal	ra,ef8 <__sd_readblk>
     b78:	87aa                	mv	a5,a0
     b7a:	e399                	bnez	a5,b80 <__fread+0xd0>
     b7c:	4781                	li	a5,0
     b7e:	a86d                	j	c38 <__fread+0x188>
     b80:	fc843783          	ld	a5,-56(s0)
     b84:	fd842703          	lw	a4,-40(s0)
     b88:	d7d8                	sw	a4,44(a5)
     b8a:	fc843783          	ld	a5,-56(s0)
     b8e:	579c                	lw	a5,40(a5)
     b90:	1ff7f793          	andi	a5,a5,511
     b94:	2781                	sext.w	a5,a5
     b96:	20000713          	li	a4,512
     b9a:	40f707bb          	subw	a5,a4,a5
     b9e:	fef42223          	sw	a5,-28(s0)
     ba2:	fe042783          	lw	a5,-32(s0)
     ba6:	873e                	mv	a4,a5
     ba8:	fe442783          	lw	a5,-28(s0)
     bac:	9fb9                	addw	a5,a5,a4
     bae:	0007871b          	sext.w	a4,a5
     bb2:	fbc42783          	lw	a5,-68(s0)
     bb6:	2781                	sext.w	a5,a5
     bb8:	00f76b63          	bltu	a4,a5,bce <__fread+0x11e>
     bbc:	fbc42783          	lw	a5,-68(s0)
     bc0:	873e                	mv	a4,a5
     bc2:	fe042783          	lw	a5,-32(s0)
     bc6:	40f707bb          	subw	a5,a4,a5
     bca:	fef42223          	sw	a5,-28(s0)
     bce:	fc843783          	ld	a5,-56(s0)
     bd2:	23078713          	addi	a4,a5,560
     bd6:	fdc46783          	lwu	a5,-36(s0)
     bda:	97ba                	add	a5,a5,a4
     bdc:	fe442703          	lw	a4,-28(s0)
     be0:	863a                	mv	a2,a4
     be2:	85be                	mv	a1,a5
     be4:	fe843503          	ld	a0,-24(s0)
     be8:	668000ef          	jal	ra,1250 <__memcpy>
     bec:	fe042783          	lw	a5,-32(s0)
     bf0:	873e                	mv	a4,a5
     bf2:	fe442783          	lw	a5,-28(s0)
     bf6:	9fb9                	addw	a5,a5,a4
     bf8:	fef42023          	sw	a5,-32(s0)
     bfc:	fe446783          	lwu	a5,-28(s0)
     c00:	fe843703          	ld	a4,-24(s0)
     c04:	97ba                	add	a5,a5,a4
     c06:	fef43423          	sd	a5,-24(s0)
     c0a:	fc843783          	ld	a5,-56(s0)
     c0e:	579c                	lw	a5,40(a5)
     c10:	fe442703          	lw	a4,-28(s0)
     c14:	9fb9                	addw	a5,a5,a4
     c16:	0007871b          	sext.w	a4,a5
     c1a:	fc843783          	ld	a5,-56(s0)
     c1e:	d798                	sw	a4,40(a5)
     c20:	fc042e23          	sw	zero,-36(s0)
     c24:	fe042783          	lw	a5,-32(s0)
     c28:	873e                	mv	a4,a5
     c2a:	fbc42783          	lw	a5,-68(s0)
     c2e:	2701                	sext.w	a4,a4
     c30:	2781                	sext.w	a5,a5
     c32:	eaf768e3          	bltu	a4,a5,ae2 <__fread+0x32>
     c36:	4785                	li	a5,1
     c38:	853e                	mv	a0,a5
     c3a:	60a6                	ld	ra,72(sp)
     c3c:	6406                	ld	s0,64(sp)
     c3e:	6161                	addi	sp,sp,80
     c40:	8082                	ret

0000000000000c42 <__spi_init>:
     c42:	1101                	addi	sp,sp,-32
     c44:	ec22                	sd	s0,24(sp)
     c46:	1000                	addi	s0,sp,32
     c48:	87aa                	mv	a5,a0
     c4a:	fef42623          	sw	a5,-20(s0)
     c4e:	100017b7          	lui	a5,0x10001
     c52:	0007a023          	sw	zero,0(a5) # 10001000 <__stack+0xffc1000>
     c56:	fec42783          	lw	a5,-20(s0)
     c5a:	0037979b          	slliw	a5,a5,0x3
     c5e:	2781                	sext.w	a5,a5
     c60:	0387f793          	andi	a5,a5,56
     c64:	0007871b          	sext.w	a4,a5
     c68:	100017b7          	lui	a5,0x10001
     c6c:	04476713          	ori	a4,a4,68
     c70:	2701                	sext.w	a4,a4
     c72:	c398                	sw	a4,0(a5)
     c74:	4785                	li	a5,1
     c76:	853e                	mv	a0,a5
     c78:	6462                	ld	s0,24(sp)
     c7a:	6105                	addi	sp,sp,32
     c7c:	8082                	ret

0000000000000c7e <__spi_rwbyte>:
     c7e:	1101                	addi	sp,sp,-32
     c80:	ec22                	sd	s0,24(sp)
     c82:	1000                	addi	s0,sp,32
     c84:	87aa                	mv	a5,a0
     c86:	fef407a3          	sb	a5,-17(s0)
     c8a:	0001                	nop
     c8c:	100017b7          	lui	a5,0x10001
     c90:	07a1                	addi	a5,a5,8
     c92:	439c                	lw	a5,0(a5)
     c94:	2781                	sext.w	a5,a5
     c96:	8b85                	andi	a5,a5,1
     c98:	2781                	sext.w	a5,a5
     c9a:	dbed                	beqz	a5,c8c <__spi_rwbyte+0xe>
     c9c:	100017b7          	lui	a5,0x10001
     ca0:	07b1                	addi	a5,a5,12
     ca2:	fef44703          	lbu	a4,-17(s0)
     ca6:	2701                	sext.w	a4,a4
     ca8:	c398                	sw	a4,0(a5)
     caa:	0001                	nop
     cac:	100017b7          	lui	a5,0x10001
     cb0:	07a1                	addi	a5,a5,8
     cb2:	439c                	lw	a5,0(a5)
     cb4:	2781                	sext.w	a5,a5
     cb6:	8b89                	andi	a5,a5,2
     cb8:	2781                	sext.w	a5,a5
     cba:	dbed                	beqz	a5,cac <__spi_rwbyte+0x2e>
     cbc:	100017b7          	lui	a5,0x10001
     cc0:	07b1                	addi	a5,a5,12
     cc2:	439c                	lw	a5,0(a5)
     cc4:	2781                	sext.w	a5,a5
     cc6:	0ff7f793          	zext.b	a5,a5
     cca:	853e                	mv	a0,a5
     ccc:	6462                	ld	s0,24(sp)
     cce:	6105                	addi	sp,sp,32
     cd0:	8082                	ret

0000000000000cd2 <__sd_getresp>:
     cd2:	7139                	addi	sp,sp,-64
     cd4:	fc06                	sd	ra,56(sp)
     cd6:	f822                	sd	s0,48(sp)
     cd8:	f426                	sd	s1,40(sp)
     cda:	0080                	addi	s0,sp,64
     cdc:	fca43423          	sd	a0,-56(s0)
     ce0:	87ae                	mv	a5,a1
     ce2:	fcf42223          	sw	a5,-60(s0)
     ce6:	fc042e23          	sw	zero,-36(s0)
     cea:	a01d                	j	d10 <__sd_getresp+0x3e>
     cec:	fdc46783          	lwu	a5,-36(s0)
     cf0:	fc843703          	ld	a4,-56(s0)
     cf4:	00f704b3          	add	s1,a4,a5
     cf8:	0ff00513          	li	a0,255
     cfc:	f83ff0ef          	jal	ra,c7e <__spi_rwbyte>
     d00:	87aa                	mv	a5,a0
     d02:	00f48023          	sb	a5,0(s1)
     d06:	fdc42783          	lw	a5,-36(s0)
     d0a:	2785                	addiw	a5,a5,1
     d0c:	fcf42e23          	sw	a5,-36(s0)
     d10:	fdc42783          	lw	a5,-36(s0)
     d14:	873e                	mv	a4,a5
     d16:	fc442783          	lw	a5,-60(s0)
     d1a:	2701                	sext.w	a4,a4
     d1c:	2781                	sext.w	a5,a5
     d1e:	fcf767e3          	bltu	a4,a5,cec <__sd_getresp+0x1a>
     d22:	4785                	li	a5,1
     d24:	853e                	mv	a0,a5
     d26:	70e2                	ld	ra,56(sp)
     d28:	7442                	ld	s0,48(sp)
     d2a:	74a2                	ld	s1,40(sp)
     d2c:	6121                	addi	sp,sp,64
     d2e:	8082                	ret

0000000000000d30 <__sd_sendcmd>:
     d30:	7179                	addi	sp,sp,-48
     d32:	f406                	sd	ra,40(sp)
     d34:	f022                	sd	s0,32(sp)
     d36:	1800                	addi	s0,sp,48
     d38:	87aa                	mv	a5,a0
     d3a:	86ae                	mv	a3,a1
     d3c:	8732                	mv	a4,a2
     d3e:	fcf40fa3          	sb	a5,-33(s0)
     d42:	87b6                	mv	a5,a3
     d44:	fcf42c23          	sw	a5,-40(s0)
     d48:	87ba                	mv	a5,a4
     d4a:	fcf40f23          	sb	a5,-34(s0)
     d4e:	fe042623          	sw	zero,-20(s0)
     d52:	fdf44783          	lbu	a5,-33(s0)
     d56:	0407e793          	ori	a5,a5,64
     d5a:	0ff7f793          	zext.b	a5,a5
     d5e:	853e                	mv	a0,a5
     d60:	f1fff0ef          	jal	ra,c7e <__spi_rwbyte>
     d64:	fd842783          	lw	a5,-40(s0)
     d68:	0187d79b          	srliw	a5,a5,0x18
     d6c:	2781                	sext.w	a5,a5
     d6e:	0ff7f793          	zext.b	a5,a5
     d72:	853e                	mv	a0,a5
     d74:	f0bff0ef          	jal	ra,c7e <__spi_rwbyte>
     d78:	fd842783          	lw	a5,-40(s0)
     d7c:	0107d79b          	srliw	a5,a5,0x10
     d80:	2781                	sext.w	a5,a5
     d82:	0ff7f793          	zext.b	a5,a5
     d86:	853e                	mv	a0,a5
     d88:	ef7ff0ef          	jal	ra,c7e <__spi_rwbyte>
     d8c:	fd842783          	lw	a5,-40(s0)
     d90:	0087d79b          	srliw	a5,a5,0x8
     d94:	2781                	sext.w	a5,a5
     d96:	0ff7f793          	zext.b	a5,a5
     d9a:	853e                	mv	a0,a5
     d9c:	ee3ff0ef          	jal	ra,c7e <__spi_rwbyte>
     da0:	fd842783          	lw	a5,-40(s0)
     da4:	0ff7f793          	zext.b	a5,a5
     da8:	853e                	mv	a0,a5
     daa:	ed5ff0ef          	jal	ra,c7e <__spi_rwbyte>
     dae:	fde44783          	lbu	a5,-34(s0)
     db2:	0017e793          	ori	a5,a5,1
     db6:	0ff7f793          	zext.b	a5,a5
     dba:	853e                	mv	a0,a5
     dbc:	ec3ff0ef          	jal	ra,c7e <__spi_rwbyte>
     dc0:	0ff00513          	li	a0,255
     dc4:	ebbff0ef          	jal	ra,c7e <__spi_rwbyte>
     dc8:	87aa                	mv	a5,a0
     dca:	fef405a3          	sb	a5,-21(s0)
     dce:	a801                	j	dde <__sd_sendcmd+0xae>
     dd0:	0ff00513          	li	a0,255
     dd4:	eabff0ef          	jal	ra,c7e <__spi_rwbyte>
     dd8:	87aa                	mv	a5,a0
     dda:	fef405a3          	sb	a5,-21(s0)
     dde:	feb44783          	lbu	a5,-21(s0)
     de2:	2781                	sext.w	a5,a5
     de4:	8ba1                	andi	a5,a5,8
     de6:	2781                	sext.w	a5,a5
     de8:	cf89                	beqz	a5,e02 <__sd_sendcmd+0xd2>
     dea:	fec42783          	lw	a5,-20(s0)
     dee:	0017871b          	addiw	a4,a5,1
     df2:	fee42623          	sw	a4,-20(s0)
     df6:	873e                	mv	a4,a5
     df8:	6785                	lui	a5,0x1
     dfa:	38778793          	addi	a5,a5,903 # 1387 <__delay+0xb>
     dfe:	fce7f9e3          	bgeu	a5,a4,dd0 <__sd_sendcmd+0xa0>
     e02:	feb44783          	lbu	a5,-21(s0)
     e06:	853e                	mv	a0,a5
     e08:	70a2                	ld	ra,40(sp)
     e0a:	7402                	ld	s0,32(sp)
     e0c:	6145                	addi	sp,sp,48
     e0e:	8082                	ret

0000000000000e10 <__sd_rcvdata>:
     e10:	7139                	addi	sp,sp,-64
     e12:	fc06                	sd	ra,56(sp)
     e14:	f822                	sd	s0,48(sp)
     e16:	f426                	sd	s1,40(sp)
     e18:	0080                	addi	s0,sp,64
     e1a:	fca43423          	sd	a0,-56(s0)
     e1e:	87ae                	mv	a5,a1
     e20:	8732                	mv	a4,a2
     e22:	fcf42223          	sw	a5,-60(s0)
     e26:	87ba                	mv	a5,a4
     e28:	fcf401a3          	sb	a5,-61(s0)
     e2c:	fc042e23          	sw	zero,-36(s0)
     e30:	100017b7          	lui	a5,0x10001
     e34:	0791                	addi	a5,a5,4
     e36:	439c                	lw	a5,0(a5)
     e38:	0007871b          	sext.w	a4,a5
     e3c:	100017b7          	lui	a5,0x10001
     e40:	0791                	addi	a5,a5,4
     e42:	00476713          	ori	a4,a4,4
     e46:	2701                	sext.w	a4,a4
     e48:	c398                	sw	a4,0(a5)
     e4a:	0ff00513          	li	a0,255
     e4e:	e31ff0ef          	jal	ra,c7e <__spi_rwbyte>
     e52:	87aa                	mv	a5,a0
     e54:	fcf40da3          	sb	a5,-37(s0)
     e58:	fdc42783          	lw	a5,-36(s0)
     e5c:	0017871b          	addiw	a4,a5,1
     e60:	fce42e23          	sw	a4,-36(s0)
     e64:	873e                	mv	a4,a5
     e66:	6785                	lui	a5,0x1
     e68:	38878793          	addi	a5,a5,904 # 1388 <__delay+0xc>
     e6c:	00e7f563          	bgeu	a5,a4,e76 <__sd_rcvdata+0x66>
     e70:	fdb44783          	lbu	a5,-37(s0)
     e74:	a8a5                	j	eec <__sd_rcvdata+0xdc>
     e76:	fdb44783          	lbu	a5,-37(s0)
     e7a:	0ff7f713          	zext.b	a4,a5
     e7e:	0fe00793          	li	a5,254
     e82:	fcf714e3          	bne	a4,a5,e4a <__sd_rcvdata+0x3a>
     e86:	a831                	j	ea2 <__sd_rcvdata+0x92>
     e88:	fc843483          	ld	s1,-56(s0)
     e8c:	00148793          	addi	a5,s1,1
     e90:	fcf43423          	sd	a5,-56(s0)
     e94:	0ff00513          	li	a0,255
     e98:	de7ff0ef          	jal	ra,c7e <__spi_rwbyte>
     e9c:	87aa                	mv	a5,a0
     e9e:	00f48023          	sb	a5,0(s1)
     ea2:	fc442783          	lw	a5,-60(s0)
     ea6:	fff7871b          	addiw	a4,a5,-1
     eaa:	fce42223          	sw	a4,-60(s0)
     eae:	ffe9                	bnez	a5,e88 <__sd_rcvdata+0x78>
     eb0:	0ff00513          	li	a0,255
     eb4:	dcbff0ef          	jal	ra,c7e <__spi_rwbyte>
     eb8:	0ff00513          	li	a0,255
     ebc:	dc3ff0ef          	jal	ra,c7e <__spi_rwbyte>
     ec0:	fc344783          	lbu	a5,-61(s0)
     ec4:	0ff7f793          	zext.b	a5,a5
     ec8:	c38d                	beqz	a5,eea <__sd_rcvdata+0xda>
     eca:	100017b7          	lui	a5,0x10001
     ece:	0791                	addi	a5,a5,4
     ed0:	439c                	lw	a5,0(a5)
     ed2:	0007871b          	sext.w	a4,a5
     ed6:	100017b7          	lui	a5,0x10001
     eda:	0791                	addi	a5,a5,4
     edc:	9b6d                	andi	a4,a4,-5
     ede:	2701                	sext.w	a4,a4
     ee0:	c398                	sw	a4,0(a5)
     ee2:	0ff00513          	li	a0,255
     ee6:	d99ff0ef          	jal	ra,c7e <__spi_rwbyte>
     eea:	4785                	li	a5,1
     eec:	853e                	mv	a0,a5
     eee:	70e2                	ld	ra,56(sp)
     ef0:	7442                	ld	s0,48(sp)
     ef2:	74a2                	ld	s1,40(sp)
     ef4:	6121                	addi	sp,sp,64
     ef6:	8082                	ret

0000000000000ef8 <__sd_readblk>:
     ef8:	1101                	addi	sp,sp,-32
     efa:	ec22                	sd	s0,24(sp)
     efc:	1000                	addi	s0,sp,32
     efe:	87aa                	mv	a5,a0
     f00:	feb43023          	sd	a1,-32(s0)
     f04:	fef42623          	sw	a5,-20(s0)
     f08:	044007b7          	lui	a5,0x4400
     f0c:	f8178793          	addi	a5,a5,-127 # 43fff81 <__stack+0x43bff81>
     f10:	0796                	slli	a5,a5,0x5
     f12:	fec46703          	lwu	a4,-20(s0)
     f16:	e398                	sd	a4,0(a5)
     f18:	110007b7          	lui	a5,0x11000
     f1c:	e0578793          	addi	a5,a5,-507 # 10fffe05 <__stack+0x10fbfe05>
     f20:	078e                	slli	a5,a5,0x3
     f22:	fe043703          	ld	a4,-32(s0)
     f26:	e398                	sd	a4,0(a5)
     f28:	088007b7          	lui	a5,0x8800
     f2c:	f0378793          	addi	a5,a5,-253 # 87fff03 <__stack+0x87bff03>
     f30:	0792                	slli	a5,a5,0x4
     f32:	4705                	li	a4,1
     f34:	e398                	sd	a4,0(a5)
     f36:	110007b7          	lui	a5,0x11000
     f3a:	e0978793          	addi	a5,a5,-503 # 10fffe09 <__stack+0x10fbfe09>
     f3e:	078e                	slli	a5,a5,0x3
     f40:	4705                	li	a4,1
     f42:	e398                	sd	a4,0(a5)
     f44:	4785                	li	a5,1
     f46:	853e                	mv	a0,a5
     f48:	6462                	ld	s0,24(sp)
     f4a:	6105                	addi	sp,sp,32
     f4c:	8082                	ret

0000000000000f4e <__sd_init>:
     f4e:	7179                	addi	sp,sp,-48
     f50:	f406                	sd	ra,40(sp)
     f52:	f022                	sd	s0,32(sp)
     f54:	1800                	addi	s0,sp,48
     f56:	fca43c23          	sd	a0,-40(s0)
     f5a:	fe040523          	sb	zero,-22(s0)
     f5e:	451d                	li	a0,7
     f60:	ce3ff0ef          	jal	ra,c42 <__spi_init>
     f64:	4505                	li	a0,1
     f66:	416000ef          	jal	ra,137c <__delay>
     f6a:	100017b7          	lui	a5,0x10001
     f6e:	0791                	addi	a5,a5,4
     f70:	439c                	lw	a5,0(a5)
     f72:	0007871b          	sext.w	a4,a5
     f76:	100017b7          	lui	a5,0x10001
     f7a:	0791                	addi	a5,a5,4
     f7c:	9b6d                	andi	a4,a4,-5
     f7e:	2701                	sext.w	a4,a4
     f80:	c398                	sw	a4,0(a5)
     f82:	fe0405a3          	sb	zero,-21(s0)
     f86:	a811                	j	f9a <__sd_init+0x4c>
     f88:	0ff00513          	li	a0,255
     f8c:	cf3ff0ef          	jal	ra,c7e <__spi_rwbyte>
     f90:	feb44783          	lbu	a5,-21(s0)
     f94:	2785                	addiw	a5,a5,1
     f96:	fef405a3          	sb	a5,-21(s0)
     f9a:	feb44783          	lbu	a5,-21(s0)
     f9e:	0ff7f713          	zext.b	a4,a5
     fa2:	47a5                	li	a5,9
     fa4:	fee7f2e3          	bgeu	a5,a4,f88 <__sd_init+0x3a>
     fa8:	100017b7          	lui	a5,0x10001
     fac:	0791                	addi	a5,a5,4
     fae:	439c                	lw	a5,0(a5)
     fb0:	0007871b          	sext.w	a4,a5
     fb4:	100017b7          	lui	a5,0x10001
     fb8:	0791                	addi	a5,a5,4
     fba:	00476713          	ori	a4,a4,4
     fbe:	2701                	sext.w	a4,a4
     fc0:	c398                	sw	a4,0(a5)
     fc2:	4785                	li	a5,1
     fc4:	fef40523          	sb	a5,-22(s0)
     fc8:	fe042623          	sw	zero,-20(s0)
     fcc:	09500613          	li	a2,149
     fd0:	4581                	li	a1,0
     fd2:	4501                	li	a0,0
     fd4:	d5dff0ef          	jal	ra,d30 <__sd_sendcmd>
     fd8:	87aa                	mv	a5,a0
     fda:	fef404a3          	sb	a5,-23(s0)
     fde:	fec42783          	lw	a5,-20(s0)
     fe2:	0017871b          	addiw	a4,a5,1
     fe6:	fee42623          	sw	a4,-20(s0)
     fea:	873e                	mv	a4,a5
     fec:	3e800793          	li	a5,1000
     ff0:	00e7f563          	bgeu	a5,a4,ffa <__sd_init+0xac>
     ff4:	fea44783          	lbu	a5,-22(s0)
     ff8:	a289                	j	113a <__sd_init+0x1ec>
     ffa:	fe944783          	lbu	a5,-23(s0)
     ffe:	0ff7f713          	zext.b	a4,a5
    1002:	4785                	li	a5,1
    1004:	fcf714e3          	bne	a4,a5,fcc <__sd_init+0x7e>
    1008:	08700613          	li	a2,135
    100c:	1aa00593          	li	a1,426
    1010:	4521                	li	a0,8
    1012:	d1fff0ef          	jal	ra,d30 <__sd_sendcmd>
    1016:	87aa                	mv	a5,a0
    1018:	fef404a3          	sb	a5,-23(s0)
    101c:	fe944783          	lbu	a5,-23(s0)
    1020:	0ff7f713          	zext.b	a4,a5
    1024:	4795                	li	a5,5
    1026:	00f71d63          	bne	a4,a5,1040 <__sd_init+0xf2>
    102a:	fe040793          	addi	a5,s0,-32
    102e:	4591                	li	a1,4
    1030:	853e                	mv	a0,a5
    1032:	ca1ff0ef          	jal	ra,cd2 <__sd_getresp>
    1036:	fd843783          	ld	a5,-40(s0)
    103a:	00078023          	sb	zero,0(a5) # 10001000 <__stack+0xffc1000>
    103e:	a0d1                	j	1102 <__sd_init+0x1b4>
    1040:	fe944783          	lbu	a5,-23(s0)
    1044:	0ff7f713          	zext.b	a4,a5
    1048:	4785                	li	a5,1
    104a:	0af71c63          	bne	a4,a5,1102 <__sd_init+0x1b4>
    104e:	fe040793          	addi	a5,s0,-32
    1052:	4591                	li	a1,4
    1054:	853e                	mv	a0,a5
    1056:	c7dff0ef          	jal	ra,cd2 <__sd_getresp>
    105a:	fe042623          	sw	zero,-20(s0)
    105e:	4601                	li	a2,0
    1060:	4581                	li	a1,0
    1062:	03700513          	li	a0,55
    1066:	ccbff0ef          	jal	ra,d30 <__sd_sendcmd>
    106a:	87aa                	mv	a5,a0
    106c:	fef404a3          	sb	a5,-23(s0)
    1070:	4601                	li	a2,0
    1072:	400005b7          	lui	a1,0x40000
    1076:	02900513          	li	a0,41
    107a:	cb7ff0ef          	jal	ra,d30 <__sd_sendcmd>
    107e:	87aa                	mv	a5,a0
    1080:	fef404a3          	sb	a5,-23(s0)
    1084:	fec42783          	lw	a5,-20(s0)
    1088:	0017871b          	addiw	a4,a5,1
    108c:	fee42623          	sw	a4,-20(s0)
    1090:	873e                	mv	a4,a5
    1092:	3e700793          	li	a5,999
    1096:	00e7e763          	bltu	a5,a4,10a4 <__sd_init+0x156>
    109a:	fe944783          	lbu	a5,-23(s0)
    109e:	0ff7f793          	zext.b	a5,a5
    10a2:	ffd5                	bnez	a5,105e <__sd_init+0x110>
    10a4:	fe042623          	sw	zero,-20(s0)
    10a8:	4601                	li	a2,0
    10aa:	4581                	li	a1,0
    10ac:	03a00513          	li	a0,58
    10b0:	c81ff0ef          	jal	ra,d30 <__sd_sendcmd>
    10b4:	87aa                	mv	a5,a0
    10b6:	fef404a3          	sb	a5,-23(s0)
    10ba:	fec42783          	lw	a5,-20(s0)
    10be:	0017871b          	addiw	a4,a5,1
    10c2:	fee42623          	sw	a4,-20(s0)
    10c6:	873e                	mv	a4,a5
    10c8:	3e700793          	li	a5,999
    10cc:	00e7e763          	bltu	a5,a4,10da <__sd_init+0x18c>
    10d0:	fe944783          	lbu	a5,-23(s0)
    10d4:	0ff7f793          	zext.b	a5,a5
    10d8:	fbe1                	bnez	a5,10a8 <__sd_init+0x15a>
    10da:	fe040793          	addi	a5,s0,-32
    10de:	4591                	li	a1,4
    10e0:	853e                	mv	a0,a5
    10e2:	bf1ff0ef          	jal	ra,cd2 <__sd_getresp>
    10e6:	fe044783          	lbu	a5,-32(s0)
    10ea:	2781                	sext.w	a5,a5
    10ec:	0407f793          	andi	a5,a5,64
    10f0:	2781                	sext.w	a5,a5
    10f2:	c399                	beqz	a5,10f8 <__sd_init+0x1aa>
    10f4:	478d                	li	a5,3
    10f6:	a011                	j	10fa <__sd_init+0x1ac>
    10f8:	4789                	li	a5,2
    10fa:	fd843703          	ld	a4,-40(s0)
    10fe:	00f70023          	sb	a5,0(a4)
    1102:	4509                	li	a0,2
    1104:	b3fff0ef          	jal	ra,c42 <__spi_init>
    1108:	09500613          	li	a2,149
    110c:	4581                	li	a1,0
    110e:	03b00513          	li	a0,59
    1112:	c1fff0ef          	jal	ra,d30 <__sd_sendcmd>
    1116:	87aa                	mv	a5,a0
    1118:	fef404a3          	sb	a5,-23(s0)
    111c:	09500613          	li	a2,149
    1120:	20000593          	li	a1,512
    1124:	4541                	li	a0,16
    1126:	c0bff0ef          	jal	ra,d30 <__sd_sendcmd>
    112a:	87aa                	mv	a5,a0
    112c:	fef404a3          	sb	a5,-23(s0)
    1130:	4789                	li	a5,2
    1132:	fef40523          	sb	a5,-22(s0)
    1136:	fea44783          	lbu	a5,-22(s0)
    113a:	853e                	mv	a0,a5
    113c:	70a2                	ld	ra,40(sp)
    113e:	7402                	ld	s0,32(sp)
    1140:	6145                	addi	sp,sp,48
    1142:	8082                	ret

0000000000001144 <__uart_init>:
    1144:	1141                	addi	sp,sp,-16
    1146:	e422                	sd	s0,8(sp)
    1148:	0800                	addi	s0,sp,16
    114a:	100007b7          	lui	a5,0x10000
    114e:	07a1                	addi	a5,a5,8
    1150:	4705                	li	a4,1
    1152:	c398                	sw	a4,0(a5)
    1154:	100007b7          	lui	a5,0x10000
    1158:	07b1                	addi	a5,a5,12
    115a:	4705                	li	a4,1
    115c:	c398                	sw	a4,0(a5)
    115e:	0001                	nop
    1160:	6422                	ld	s0,8(sp)
    1162:	0141                	addi	sp,sp,16
    1164:	8082                	ret

0000000000001166 <__putch>:
    1166:	1101                	addi	sp,sp,-32
    1168:	ec22                	sd	s0,24(sp)
    116a:	1000                	addi	s0,sp,32
    116c:	87aa                	mv	a5,a0
    116e:	fef407a3          	sb	a5,-17(s0)
    1172:	0001                	nop
    1174:	100007b7          	lui	a5,0x10000
    1178:	439c                	lw	a5,0(a5)
    117a:	100007b7          	lui	a5,0x10000
    117e:	fef44703          	lbu	a4,-17(s0)
    1182:	2701                	sext.w	a4,a4
    1184:	c398                	sw	a4,0(a5)
    1186:	0001                	nop
    1188:	6462                	ld	s0,24(sp)
    118a:	6105                	addi	sp,sp,32
    118c:	8082                	ret

000000000000118e <__puts>:
    118e:	7179                	addi	sp,sp,-48
    1190:	f406                	sd	ra,40(sp)
    1192:	f022                	sd	s0,32(sp)
    1194:	1800                	addi	s0,sp,48
    1196:	fca43c23          	sd	a0,-40(s0)
    119a:	fe042623          	sw	zero,-20(s0)
    119e:	a00d                	j	11c0 <__puts+0x32>
    11a0:	fd843783          	ld	a5,-40(s0)
    11a4:	00178713          	addi	a4,a5,1 # 10000001 <__stack+0xffc0001>
    11a8:	fce43c23          	sd	a4,-40(s0)
    11ac:	0007c783          	lbu	a5,0(a5)
    11b0:	853e                	mv	a0,a5
    11b2:	fb5ff0ef          	jal	ra,1166 <__putch>
    11b6:	fec42783          	lw	a5,-20(s0)
    11ba:	2785                	addiw	a5,a5,1
    11bc:	fef42623          	sw	a5,-20(s0)
    11c0:	fd843783          	ld	a5,-40(s0)
    11c4:	0007c783          	lbu	a5,0(a5)
    11c8:	ffe1                	bnez	a5,11a0 <__puts+0x12>
    11ca:	4529                	li	a0,10
    11cc:	f9bff0ef          	jal	ra,1166 <__putch>
    11d0:	fec42783          	lw	a5,-20(s0)
    11d4:	853e                	mv	a0,a5
    11d6:	70a2                	ld	ra,40(sp)
    11d8:	7402                	ld	s0,32(sp)
    11da:	6145                	addi	sp,sp,48
    11dc:	8082                	ret

00000000000011de <__strcmp>:
    11de:	7179                	addi	sp,sp,-48
    11e0:	f422                	sd	s0,40(sp)
    11e2:	1800                	addi	s0,sp,48
    11e4:	fea43423          	sd	a0,-24(s0)
    11e8:	feb43023          	sd	a1,-32(s0)
    11ec:	87b2                	mv	a5,a2
    11ee:	fcf42e23          	sw	a5,-36(s0)
    11f2:	a099                	j	1238 <__strcmp+0x5a>
    11f4:	fe843783          	ld	a5,-24(s0)
    11f8:	0007c703          	lbu	a4,0(a5)
    11fc:	fe043783          	ld	a5,-32(s0)
    1200:	0007c783          	lbu	a5,0(a5)
    1204:	00f77463          	bgeu	a4,a5,120c <__strcmp+0x2e>
    1208:	57fd                	li	a5,-1
    120a:	a83d                	j	1248 <__strcmp+0x6a>
    120c:	fe843783          	ld	a5,-24(s0)
    1210:	0007c703          	lbu	a4,0(a5)
    1214:	fe043783          	ld	a5,-32(s0)
    1218:	0007c783          	lbu	a5,0(a5)
    121c:	00e7f463          	bgeu	a5,a4,1224 <__strcmp+0x46>
    1220:	4785                	li	a5,1
    1222:	a01d                	j	1248 <__strcmp+0x6a>
    1224:	fe843783          	ld	a5,-24(s0)
    1228:	0785                	addi	a5,a5,1
    122a:	fef43423          	sd	a5,-24(s0)
    122e:	fe043783          	ld	a5,-32(s0)
    1232:	0785                	addi	a5,a5,1
    1234:	fef43023          	sd	a5,-32(s0)
    1238:	fdc42783          	lw	a5,-36(s0)
    123c:	fff7871b          	addiw	a4,a5,-1
    1240:	fce42e23          	sw	a4,-36(s0)
    1244:	fbc5                	bnez	a5,11f4 <__strcmp+0x16>
    1246:	4781                	li	a5,0
    1248:	853e                	mv	a0,a5
    124a:	7422                	ld	s0,40(sp)
    124c:	6145                	addi	sp,sp,48
    124e:	8082                	ret

0000000000001250 <__memcpy>:
    1250:	7179                	addi	sp,sp,-48
    1252:	f422                	sd	s0,40(sp)
    1254:	1800                	addi	s0,sp,48
    1256:	fea43423          	sd	a0,-24(s0)
    125a:	feb43023          	sd	a1,-32(s0)
    125e:	87b2                	mv	a5,a2
    1260:	fcf42e23          	sw	a5,-36(s0)
    1264:	fe843703          	ld	a4,-24(s0)
    1268:	fe043783          	ld	a5,-32(s0)
    126c:	8fd9                	or	a5,a5,a4
    126e:	8b9d                	andi	a5,a5,7
    1270:	c3bd                	beqz	a5,12d6 <__memcpy+0x86>
    1272:	a805                	j	12a2 <__memcpy+0x52>
    1274:	fe043783          	ld	a5,-32(s0)
    1278:	0007c703          	lbu	a4,0(a5)
    127c:	fe843783          	ld	a5,-24(s0)
    1280:	00e78023          	sb	a4,0(a5)
    1284:	fe843783          	ld	a5,-24(s0)
    1288:	0785                	addi	a5,a5,1
    128a:	fef43423          	sd	a5,-24(s0)
    128e:	fe043783          	ld	a5,-32(s0)
    1292:	0785                	addi	a5,a5,1
    1294:	fef43023          	sd	a5,-32(s0)
    1298:	fdc42783          	lw	a5,-36(s0)
    129c:	37fd                	addiw	a5,a5,-1
    129e:	fcf42e23          	sw	a5,-36(s0)
    12a2:	fdc42783          	lw	a5,-36(s0)
    12a6:	2781                	sext.w	a5,a5
    12a8:	f7f1                	bnez	a5,1274 <__memcpy+0x24>
    12aa:	a0d9                	j	1370 <__memcpy+0x120>
    12ac:	fe043783          	ld	a5,-32(s0)
    12b0:	6398                	ld	a4,0(a5)
    12b2:	fe843783          	ld	a5,-24(s0)
    12b6:	e398                	sd	a4,0(a5)
    12b8:	fe843783          	ld	a5,-24(s0)
    12bc:	07a1                	addi	a5,a5,8
    12be:	fef43423          	sd	a5,-24(s0)
    12c2:	fe043783          	ld	a5,-32(s0)
    12c6:	07a1                	addi	a5,a5,8
    12c8:	fef43023          	sd	a5,-32(s0)
    12cc:	fdc42783          	lw	a5,-36(s0)
    12d0:	37e1                	addiw	a5,a5,-8
    12d2:	fcf42e23          	sw	a5,-36(s0)
    12d6:	fdc42783          	lw	a5,-36(s0)
    12da:	0007871b          	sext.w	a4,a5
    12de:	479d                	li	a5,7
    12e0:	fce7e6e3          	bltu	a5,a4,12ac <__memcpy+0x5c>
    12e4:	fdc42783          	lw	a5,-36(s0)
    12e8:	0007871b          	sext.w	a4,a5
    12ec:	478d                	li	a5,3
    12ee:	02e7f763          	bgeu	a5,a4,131c <__memcpy+0xcc>
    12f2:	fe043783          	ld	a5,-32(s0)
    12f6:	4398                	lw	a4,0(a5)
    12f8:	fe843783          	ld	a5,-24(s0)
    12fc:	c398                	sw	a4,0(a5)
    12fe:	fe843783          	ld	a5,-24(s0)
    1302:	0791                	addi	a5,a5,4
    1304:	fef43423          	sd	a5,-24(s0)
    1308:	fe043783          	ld	a5,-32(s0)
    130c:	0791                	addi	a5,a5,4
    130e:	fef43023          	sd	a5,-32(s0)
    1312:	fdc42783          	lw	a5,-36(s0)
    1316:	37f1                	addiw	a5,a5,-4
    1318:	fcf42e23          	sw	a5,-36(s0)
    131c:	fdc42783          	lw	a5,-36(s0)
    1320:	0007871b          	sext.w	a4,a5
    1324:	4785                	li	a5,1
    1326:	02e7f963          	bgeu	a5,a4,1358 <__memcpy+0x108>
    132a:	fe043783          	ld	a5,-32(s0)
    132e:	0007d703          	lhu	a4,0(a5)
    1332:	fe843783          	ld	a5,-24(s0)
    1336:	00e79023          	sh	a4,0(a5)
    133a:	fe843783          	ld	a5,-24(s0)
    133e:	0789                	addi	a5,a5,2
    1340:	fef43423          	sd	a5,-24(s0)
    1344:	fe043783          	ld	a5,-32(s0)
    1348:	0789                	addi	a5,a5,2
    134a:	fef43023          	sd	a5,-32(s0)
    134e:	fdc42783          	lw	a5,-36(s0)
    1352:	37f9                	addiw	a5,a5,-2
    1354:	fcf42e23          	sw	a5,-36(s0)
    1358:	fdc42783          	lw	a5,-36(s0)
    135c:	2781                	sext.w	a5,a5
    135e:	cb89                	beqz	a5,1370 <__memcpy+0x120>
    1360:	fe043783          	ld	a5,-32(s0)
    1364:	0007c703          	lbu	a4,0(a5)
    1368:	fe843783          	ld	a5,-24(s0)
    136c:	00e78023          	sb	a4,0(a5)
    1370:	fe843783          	ld	a5,-24(s0)
    1374:	853e                	mv	a0,a5
    1376:	7422                	ld	s0,40(sp)
    1378:	6145                	addi	sp,sp,48
    137a:	8082                	ret

000000000000137c <__delay>:
    137c:	1101                	addi	sp,sp,-32
    137e:	ec22                	sd	s0,24(sp)
    1380:	1000                	addi	s0,sp,32
    1382:	87aa                	mv	a5,a0
    1384:	fef42623          	sw	a5,-20(s0)
    1388:	0800c7b7          	lui	a5,0x800c
    138c:	17e1                	addi	a5,a5,-8
    138e:	6394                	ld	a3,0(a5)
    1390:	fec42783          	lw	a5,-20(s0)
    1394:	873e                	mv	a4,a5
    1396:	000f47b7          	lui	a5,0xf4
    139a:	2407879b          	addiw	a5,a5,576
    139e:	02f707bb          	mulw	a5,a4,a5
    13a2:	2781                	sext.w	a5,a5
    13a4:	873e                	mv	a4,a5
    13a6:	47f9                	li	a5,30
    13a8:	02f757bb          	divuw	a5,a4,a5
    13ac:	2781                	sext.w	a5,a5
    13ae:	02079713          	slli	a4,a5,0x20
    13b2:	9301                	srli	a4,a4,0x20
    13b4:	080047b7          	lui	a5,0x8004
    13b8:	9736                	add	a4,a4,a3
    13ba:	e398                	sd	a4,0(a5)
    13bc:	08000793          	li	a5,128
    13c0:	3047a073          	csrs	mie,a5
    13c4:	10500073          	wfi
    13c8:	08000793          	li	a5,128
    13cc:	3047b073          	csrc	mie,a5
    13d0:	0001                	nop
    13d2:	6462                	ld	s0,24(sp)
    13d4:	6105                	addi	sp,sp,32
    13d6:	8082                	ret
	...
