
main:     file format elf64-littleriscv
main
architecture: riscv:rv64, flags 0x00000112:
EXEC_P, HAS_SYMS, D_PAGED
start address 0x0000000000000000

Program Header:
0x70000003 off    0x0000000000002dfd vaddr 0x0000000000000000 paddr 0x0000000000000000 align 2**0
         filesz 0x000000000000002f memsz 0x0000000000000000 flags r--
    LOAD off    0x0000000000001000 vaddr 0x0000000000000000 paddr 0x0000000000000000 align 2**12
         filesz 0x0000000000001de2 memsz 0x0000000000001de2 flags rwx
    LOAD off    0x0000000000000000 vaddr 0x0000000000020000 paddr 0x0000000000020000 align 2**12
         filesz 0x0000000000000000 memsz 0x0000000000020000 flags rw-

Sections:
Idx Name          Size      VMA               LMA               File off  Algn
  0 .text         00001160  0000000000000000  0000000000000000  00001000  2**3
                  CONTENTS, ALLOC, LOAD, READONLY, CODE
  1 .data         00000b81  0000000000001160  0000000000001160  00002160  2**3
                  CONTENTS, ALLOC, LOAD, DATA
  2 .rodata.str1.8 000000fa  0000000000001ce8  0000000000001ce8  00002ce8  2**3
                  CONTENTS, ALLOC, LOAD, READONLY, DATA
  3 .stack        00020000  0000000000020000  0000000000020000  00003000  2**0
                  ALLOC
  4 .comment      0000001b  0000000000000000  0000000000000000  00002de2  2**0
                  CONTENTS, READONLY
  5 .riscv.attributes 0000002f  0000000000000000  0000000000000000  00002dfd  2**0
                  CONTENTS, READONLY
SYMBOL TABLE:
0000000000000000 l    d  .text	0000000000000000 .text
0000000000001160 l    d  .data	0000000000000000 .data
0000000000001ce8 l    d  .rodata.str1.8	0000000000000000 .rodata.str1.8
0000000000020000 l    d  .stack	0000000000000000 .stack
0000000000000000 l    d  .comment	0000000000000000 .comment
0000000000000000 l    d  .riscv.attributes	0000000000000000 .riscv.attributes
0000000000000000 l    df *ABS*	0000000000000000 setup.o
000000000000003e l       .text	0000000000000000 fill_stack
0000000000000132 l       .text	0000000000000000 fill_block
0000000000000054 l       .text	0000000000000000 init_stack
000000000000005c l       .text	0000000000000000 init_system
00000000000000c2 l       .text	0000000000000000 rv64
0000000000000140 l       .text	0000000000000000 sysram_base
0000000000000148 l       .text	0000000000000000 sysram_size
0000000000000150 l       .text	0000000000000000 ddr_base
0000000000000158 l       .text	0000000000000000 ddr_size
0000000000000122 l       .text	0000000000000000 goto_main
0000000000000130 l       .text	0000000000000000 dead_loop
000000000000013c l       .text	0000000000000000 fb_end
0000000000000000 l    df *ABS*	0000000000000000 main.c
0000000000000000 l    df *ABS*	0000000000000000 elf_loader.c
0000000000000000 l    df *ABS*	0000000000000000 iolib.c
0000000000000000 l    df *ABS*	0000000000000000 spi.c
0000000000000000 l    df *ABS*	0000000000000000 uart.c
0000000000000000 l    df *ABS*	0000000000000000 util.c
0000000000000f48 g     F .text	0000000000000034 .hidden __puts
0000000000000b81 g       *ABS*	0000000000000000 _binary_tmp_size
0000000000000ad0 g     F .text	000000000000000e .hidden __dma_busy
0000000000000ade g     F .text	0000000000000032 .hidden __spi_init
0000000000001160 g       *ABS*	0000000000000000 __data_paddr_start
0000000000000fe2 g     F .text	000000000000003a .hidden __delay
0000000000000000 g       .text	0000000000000000 __text_start
000000000000094a g     F .text	0000000000000146 .hidden __fread
0000000000000d70 g     F .text	00000000000001ae .hidden __sd_init
000000000000059c g     F .text	00000000000001b2 .hidden __get_clst
0000000000000d36 g     F .text	000000000000003a .hidden __sd_readblk
0000000000000f7c g     F .text	0000000000000034 .hidden __strcmp
0000000000000518 g     F .text	0000000000000084 .hidden __nxt_clst
0000000000000000 g       .text	0000000000000000 _start
0000000000000292 g     F .text	0000000000000004 .hidden __elf_loader
0000000000001160 g       .data	0000000000000000 _binary_tmp_start
0000000000000296 g     F .text	0000000000000282 .hidden __fat_bpb_init
0000000000001160 g       .data	0000000000000000 _DTB
0000000000001ce1 g       .data	0000000000000000 __data_end
0000000000000164 g     F .text	000000000000012e .hidden __elf_loader_reloc
0000000000000a90 g     F .text	0000000000000040 .hidden __dma_cfg
0000000000000b60 g     F .text	000000000000010c .hidden __sd_sendcmd
0000000000000fb0 g     F .text	0000000000000032 .hidden __memcpy
0000000000001160 g       .text	0000000000000000 __text_end
000000000000101c g     F .text	0000000000000144 .hidden main
0000000000000f1e g     F .text	000000000000001a .hidden __uart_init
000000000003f000 g       .stack	0000000000000000 _stack_end
0000000000000f38 g     F .text	0000000000000010 .hidden __putch
0000000000000b10 g     F .text	0000000000000020 .hidden __spi_rwbyte
0000000000040000 g       .stack	0000000000000000 __stack
0000000000001ce1 g       .data	0000000000000000 _binary_tmp_end
000000000000074e g     F .text	00000000000001d4 .hidden __fopen
0000000000000c6c g     F .text	00000000000000ca .hidden __sd_rcvdata
0000000000040000 g       .stack	0000000000000000 _stack
0000000000001160 g       .data	0000000000000000 __data_start
0000000000000b30 g     F .text	0000000000000030 .hidden __sd_getresp
0000000000000922 g     F .text	0000000000000028 .hidden __fseek


Contents of section .text:
 0000 81400141 81410142 81420143 81430144  .@.A.A.B.B.C.C.D
 0010 81440145 81450146 81460147 81470148  .D.E.E.F.F.G.G.H
 0020 81480149 8149014a 814a014b 814b014c  .H.I.I.J.J.K.K.L
 0030 814c014d 814d014e 814e014f 814f17f5  .L.M.M.N.N.O.O..
 0040 03001305 25fc9705 04009385 65fb0146  ....%.......e..F
 0050 ef00200e 17010400 1301c1fa f3221030  .. ..........".0
 0060 63c10206 b7021a00 7390323c 97020000  c.......s.2<....
 0070 83a2420d 17030000 0323430d 7d131353  ..B......#C.}..S
 0080 1300b3e2 620093d2 22007390 e23db702  ....b...".s..=..
 0090 001a73a0 323c9702 000083a2 a20b1703  ..s.2<..........
 00a0 00000323 a30b7d13 13531300 b3e26200  ...#..}..S....b.
 00b0 93d22200 7390f23d 17040000 03248408  ..".s..=.....$..
 00c0 8da09b02 d000c612 7390223c 97020000  ........s."<....
 00d0 83b24207 17030000 03334307 7d131353  ..B......3C.}..S
 00e0 1300b3e2 620093d2 22007390 e23d9b02  ....b...".s..=..
 00f0 d000e612 73a0223c 97020000 83b28205  ....s."<........
 0100 17030000 03338305 7d131353 1300b3e2  .....3..}..S....
 0110 620093d2 22007390 f23d1704 00000334  b...".s..=.....4
 0120 64027325 40f19715 00009385 a5030284  d.s%@...........
 0130 01a063e5 a50010c1 1105e5bf 82800100  ..c.............
 0140 00000200 00000000 00000200 00000000  ................
 0150 00000080 00000000 00000080 00000000  ................
 0160 00000000 130101db 23382123 01462e89  ........#8!#.F..
 0170 81452334 11242330 4123233c 51212a8a  .E#4.$#0A##<Q!*.
 0180 23308124 233c9122 23343123 23386121  #0.$#<."#41##8a!
 0190 23347121 ef00e078 13060004 8a855285  #4q!...x......R.
 01a0 ef00a07a 835a8103 638b0a0a 014ba14b  ...z.Z..c....K.K
 01b0 8969bb87 6a4163ea fb0c1b94 3a003b04  .i..jAc.....:.;.
 01c0 54411b14 34008275 9b173b00 bb876741  TA..4..u..;...gA
 01d0 9b973700 bd9d0146 52859394 3a00ef00  ..7....FR...:...
 01e0 4074b384 54412286 8c005285 8e048000  @t..TA"...R.....
 01f0 ef00a075 a29429a0 13048403 638b8404  ...u..).....c...
 0200 1c6cca97 e3ea37ff 0c440146 5285ef00  .l....7..D.FR...
 0210 40710c6c 10505285 ca95ef00 00731070  @q.l.PR......s.p
 0220 0874e37b a6fc0c6c 89480948 b2958547  .t.{...l.H.H...G
 0230 3b06c540 09478546 bb852501 0145ef00  ;..@.G.F..%..E..
 0240 3005ef00 f0080125 6dfd1304 8403e399  0......%m.......
 0250 84fa3b8b 6a01835a 8103e36c 5bf58330  ..;.j..Z...l[..0
 0260 81240334 01246265 83348123 03390123  .$.4.$be.4.#.9.#
 0270 83398122 033a0122 833a8121 033b0121  .9.".:.".:.!.;.!
 0280 833b8120 13010125 82801304 001ca14a  .;. ...%.......J
 0290 1dbf8145 c1bd1301 01dd2330 81228a85  ...E......#0."..
 02a0 2a840145 23341122 233c9120 23382121  *..E#4."#<. #8!!
 02b0 23343121 ef003028 01c90359 e11fad67  #41!..0(...Y...g
 02c0 938757a5 6300f902 83308122 03340122  ..W.c....0.".4."
 02d0 83348121 03390121 83398120 01451301  .4.!.9.!.9. .E..
 02e0 01238280 21469725 00009385 25a01305  .#..!F.%....%...
 02f0 6103ef00 b0489b04 0500cde8 8347c100  a....H.......G..
 0300 0347b100 8345d100 a207d98f 0d47230a  .G...E.......G#.
 0310 e4002310 f4008149 03586101 03450101  ..#....I.Xa..E..
 0320 0356e100 83462101 3b070503 3b063601  .V...F!.;...;.6.
 0330 83471101 42164192 a206dd8e 9bd74600  .G..B.A.......F.
 0340 2309b400 23110401 319f4217 4193b99f  #...#...1.B.A...
 0350 c217a309 a4002312 c4002313 e4002316  ......#...#...#.
 0360 d400c193 82562318 f4002317 e40099e6  .....V#...#.....
 0370 83464101 03473101 a206d98e bb87f440  .FA..G1........@
 0380 b59fbbd7 b7027d57 83308122 231ce420  ......}W.0."#.. 
 0390 83348121 03390121 83398120 05458927  .4.!.9.!.9. .E.'
 03a0 1cc40334 01221301 01238280 21469725  ...4."...#..!F.%
 03b0 00009385 a5941305 6103ef00 303c9b04  ........a...0<..
 03c0 050085e0 8347c100 0347b100 8345d100  .....G...G...E..
 03d0 a207d98f 1147230a e4002310 f4008149  .....G#...#....I
 03e0 25bf2146 97250000 93854592 13052105  %.!F.%....E...!.
 03f0 ef00d038 9b040500 bde08347 c1000347  ...8.......G...G
 0400 b1008345 d100a207 d98f1547 230ae400  ...E.......G#...
 0410 2310f400 81490358 41020345 01018356  #....I.XA..E...V
 0420 e1000346 2101bb07 0503bb86 3601c216  ...F!.......6...
 0430 03471101 c1922206 598e2309 b4000357  .G....".Y.#....W
 0440 c1022311 0401b59f c217c193 a309a400  ..#.............
 0450 2312d400 2313f400 2316c400 21b78359  #...#...#...!..Y
 0460 611c8a85 9b840900 2685ef00 d00ce30d  a.......&.......
 0470 05e48357 e11fe399 27e52146 97250000  ...W....'.!F.%..
 0480 9385c586 13056103 ef00502f 9b070500  ......a...P/....
 0490 99ef8347 c1000347 b1008345 d100a207  ...G...G...E....
 04a0 d98f0d47 230ae400 2310f400 b5b52146  ...G#...#.....!F
 04b0 97250000 93858584 13056103 ef00102c  .%........a....,
 04c0 9b070500 99ef8347 c1000347 b1008345  .......G...G...E
 04d0 d100a207 d98f1147 230ae400 2310f400  .......G#...#...
 04e0 25bd2146 97250000 93854582 13052105  %.!F.%....E...!.
 04f0 ef00d028 9b070500 e39807dc 8347c100  ...(.........G..
 0500 0347b100 8345d100 a207d98f 1547230a  .G...E.......G#.
 0510 e4002310 f40001b7 011122e8 0354e500  ..#......."..T..
 0520 83568521 26e42d9c 06ec9b57 7400aa84  .V.!&.-....Wt...
 0530 6395f602 1374f407 11040a04 26940844  c....t......&..D
 0540 b7070010 fd176305 f50483d7 e4001d9d  ......c.........
 0550 e2604264 a2640561 82800355 45001b57  .`Bd.d.a...UE..W
 0560 74004217 4193239c f4209385 8401399d  t.B.A.#.. ....9.
 0570 ef00607c aa870145 e1df1374 f4071104  ..`|...E...t....
 0580 0a042694 0844b707 0010fd17 e31ff5fa  ..&..D..........
 0590 e2604264 a2647d55 05618280 5d7162e0  .`Bd.d}U.a..]qb.
 05a0 416c56ec 7d1c9bda 95001c59 b3fa8a01  AlV.}......Y....
 05b0 5ae85ee4 86e4a2e0 26fc4af8 4ef452f0  Z.^.....&.J.N.R.
 05c0 812aaa8b 2e8b6388 57135459 b7090010  .*....c.W.TY....
 05d0 fd1963f0 560f9397 06028193 9387c720  ..c.V.......... 
 05e0 8a07de97 98471309 00207d5a 83b40b02  .....G... }Z....
 05f0 03d4e400 83d68421 93858401 399c1b55  .......!....9..U
 0600 74009b57 74003375 ac00638a f60003d7  t..Wt.3u..c.....
 0610 4400239c f420399d ef00e071 2dc11374  D.#.. 9....q-..t
 0620 f4071104 0a042694 1c447d39 42191359  ......&..D}9B..Y
 0630 0903638a 370103d7 e4003b87 e7406308  ..c.7.....;..@c.
 0640 0904e315 47fb03a7 4b030527 93170702  ....G...K..'....
 0650 81939387 c7208a07 23aaeb02 be9bfd57  ..... ..#......W
 0660 23a4fb00 7d55a660 0664e274 4279a279  #...}U.`.d.tBy.y
 0670 027ae26a 426ba26b 026c6161 82807d39  .z.jBk.k.laa..}9
 0680 42191359 09036305 090a0147 85b783a6  B..Y..c....G....
 0690 4b03fd55 85261396 06020192 1306c620  K..U.&......... 
 06a0 0a0623aa db025e96 18c6e30d b7fae3e4  ..#...^.........
 06b0 56f31399 2a005e99 85673307 f9008325  V...*.^..g3....%
 06c0 87837d57 e380e5fa 93878783 b384fb00  ..}W............
 06d0 23acbb02 1384cb03 81478dc7 0cc01104  #........G......
 06e0 e39d84fe 23a85b03 fd576398 f5028567  ....#.[..Wc....g
 06f0 3e99232e b9829377 fb1fb107 8a07de97  >.#....w........
 0700 884795b7 03b50b02 eff01fe1 9b050500  .G..............
 0710 93871500 93b71700 d1b703b5 0b02eff0  ................
 0720 bfdf8567 9b050500 3e99232e b982e1b7  ...g....>.#.....
 0730 83a64b03 85269397 06028193 9387c720  ..K..&......... 
 0740 8a0723aa db02de97 23a40700 59b51301  ..#.....#...Y...
 0750 01dc2334 9122233c 11222338 81222330  ..#4."#<."#8."#0
 0760 2123233c 3121aa84 34008147 9308e002  !##<1!..4..G....
 0770 214311a0 b28503c7 05001b85 17001386  !C..............
 0780 15001378 f7fd6300 0710630e 170f9317  ...x..c...c.....
 0790 05032380 0601c193 8506e39d 67fc03c7  ..#.........g...
 07a0 1500b285 130727fd 13371700 ba958147  ......'..7.....G
 07b0 0a870d45 b386f500 83c60600 13f6f6fd  ...E............
 07c0 638d060e 2300c700 85070507 e394a7fe  c...#...........
 07d0 9c700c08 03d50701 ef00e055 59c50008  .p.........UY...
 07e0 93090121 1309500e 83470400 21462c00  ...!..P..G..!F,.
 07f0 22856388 2707ef00 6078aa87 81270d46  ".c.'...`x...'.F
 0800 13058400 8a85b1ef ef004077 012531e9  ..........@w.%1.
 0810 a2851306 00022685 ef008079 987083d7  ......&....y.p..
 0820 440183d5 a4018356 e7007d57 13160702  D......V..}W....
 0830 9b970701 019398f8 83308123 03340123  .........0.#.4.#
 0840 cd8f0567 90f4959f ba9423ac f4820339  ...g......#....9
 0850 01228334 81228339 81210545 13010124  .".4.".9.!.E...$
 0860 82801304 0402e311 34f98330 81230334  ........4..0.#.4
 0870 01238334 81220339 01228339 81210145  .#.4.".9.".9.!.E
 0880 13010124 8280a146 9d9e3000 c216b297  ...$...F..0.....
 0890 c1921305 00022380 a7001386 f6ff1148  ......#........H
 08a0 85076376 06058946 6378d602 e30c06ee  ..cv...Fcx......
 08b0 93060002 2380d700 f5b50d47 1d9f4217  ....#......G..B.
 08c0 41938946 8a976373 d704e303 07f01307  A..F..cs........
 08d0 00022380 e700edbd 93060002 2380d700  ..#.........#...
 08e0 a380d700 79168907 e30e06ea d1b72380  ....y.........#.
 08f0 a700a380 a7002381 a700a381 a7001386  ......#.........
 0900 b6ff8946 9107e363 d6faf9b7 93060002  ...F...c........
 0910 2380d700 a380d700 79178907 e30a07ea  #.......y.......
 0920 7db70547 aa876308 e6000947 630ae600  }..G..c....Gc...
 0930 014501c6 82801855 b99d8cd7 05458280  .E.....U.....E..
 0940 584d0545 b99d8cd7 82801c55 63000614  XM.E.......Uc...
 0950 1d714efc 85699389 8903a2e8 a6e4cae0  .qN..i..........
 0960 52f856f4 5eec66e4 86ec5af0 62e86ae0  R.V.^.f...Z.b.j.
 0970 2a84b28b 2e8993fc f71f8144 130af01f  *..........D....
 0980 aa99930a 002089a8 63910c06 6387e60e  ..... ..c...c...
 0990 18702285 83472701 035b0701 bb55fc02  .p"..G'..[...U..
 09a0 bb77fc02 3b0bfb00 eff05fbf 1c70ca85  .w..;....._..p..
 09b0 83c72701 3b85a702 3b056501 ef00a037  ..'.;...;.e....7
 09c0 61c51c54 9b840420 13090920 9b870720  a..T... ... ... 
 09d0 1cd4814c 63f27409 3b8b9b40 58541bdc  ...Lc.t.;..@XT..
 09e0 97009bd6 9700e361 6afb638e e6021870  .......aj.c....p
 09f0 22858347 2701035d 0701bb55 fc02bb77  "..G'..]...U...w
 0a00 fc023b0d fd00eff0 7fb91c70 ce8583c7  ..;........p....
 0a10 27013b85 a7023b05 a501ef00 c0312dc5  '.;...;......1-.
 0a20 1c542326 840393f7 f71fbb87 fa40bd9c  .T#&.........@..
 0a30 63f37405 3e8b4a85 b3859901 5a86ef00  c.t.>.J.....Z...
 0a40 20571c54 13170b02 0193bb87 67011cd4   W.T........g...
 0a50 3a99814c e3e274f9 0545e660 4664a664  :..L..t..E.`Fd.d
 0a60 0669e279 427aa27a 027be26b 426ca26c  .i.yBz.z.{.kBl.l
 0a70 026d2561 8280de84 7dbf1306 0020ce85  .m%a....}.... ..
 0a80 4a85ef00 e05235bf 0145c1bf 05458280  J....R5..E...E..
 0a90 9b98a800 9b961600 1b174700 b3e8d800  ..........G.....
 0aa0 b3e8e800 9b976700 37270010 b3e8f800  ......g.7'......
 0ab0 1b188800 2320a780 b3e80801 2322b780  ....# ......#"..
 0ac0 93e81800 2324c780 81282326 17818280  ....#$...(#&....
 0ad0 b7270010 03a5c780 1b55f501 8280b727  .'.......U.....'
 0ae0 001023a8 07800547 23ace780 23a00700  ..#....G#...#...
 0af0 93074004 01e5c167 93874704 1b153500  ..@....g..G...5.
 0b00 13758503 5d8db727 001088c3 05458280  .u..]..'.....E..
 0b10 37270010 1c47858b f5df0125 48c73727  7'...G.....%H.7'
 0b20 00101c47 898bf5df 48471375 f50f8280  ...G....HG.u....
 0b30 95c59396 05028192 aa963727 00101306  ..........7'....
 0b40 f00f1c47 858bf5df 50c71c47 898bf5df  ...G....P..G....
 0b50 5c470505 a30ff5fe e315d5fe 05458280  \G...........E..
 0b60 13650504 37270010 1c47858b f5df9b07  .e..7'...G......
 0b70 05005cc7 37270010 1c47898b f5df5c47  ..\.7'...G....\G
 0b80 9bd68501 37270010 1c47858b f5df54c7  ....7'...G....T.
 0b90 37270010 1c47898b f5df5c47 9bd60501  7'...G....\G....
 0ba0 37270010 1c47858b f5df93f7 f60f5cc7  7'...G........\.
 0bb0 37270010 1c47898b f5df5c47 9bd68500  7'...G....\G....
 0bc0 37270010 1c47858b f5df93f7 f60f5cc7  7'...G........\.
 0bd0 37270010 1c47898b f5df5c47 37270010  7'...G....\G7'..
 0be0 1c47858b f5df93f5 f50f4cc7 37270010  .G........L.7'..
 0bf0 1c47898b f5df5c47 13661600 37270010  .G....\G.f..7'..
 0c00 1c47858b f5df9b07 06005cc7 37270010  .G........\.7'..
 0c10 1c47898b f5df5c47 37270010 1c47858b  .G....\G7'...G..
 0c20 f5df9307 f00f5cc7 37270010 1c47898b  ......\.7'...G..
 0c30 f5df4847 93778500 1375f50f 9dc78566  ..HG.w...u.....f
 0c40 93868638 37270010 1306f00f 1c47858b  ...87'.......G..
 0c50 f5df50c7 1c47898b f5df4847 93778500  ..P..G....HG.w..
 0c60 1375f50f 99c3fd36 f5f28280 37270010  .u.....6....7'..
 0c70 5c438566 aa8893e7 47005cc3 9386a638  \C.f....G.\....8
 0c80 9305f00f 1308e00f 1c47858b f5df4cc7  .........G....L.
 0c90 1c47898b f5df4847 fd361375 f50fa5ca  .G....HG.6.u....
 0ca0 e31405ff fd572320 f7801b85 08002322  .....W# ......#"
 0cb0 a7809307 00202324 f7808567 938717a6  ..... #$...g....
 0cc0 2326f780 37270010 8327c780 9bd7f701  #&..7'...'......
 0cd0 e5ff3727 00101c47 858bf5df 9307f00f  ..7'...G........
 0ce0 5cc73727 00101c47 898bf5df 5c473727  \.7'...G....\G7'
 0cf0 00101c47 858bf5df 9307f00f 5cc73727  ...G........\.7'
 0d00 00101c47 898bf5df 5c4719e2 05458280  ...G....\G...E..
 0d10 5c43b726 0010ed9b 5cc39c46 858bf5df  \C.&....\..F....
 0d20 9307f00f dcc63727 00101c47 898bf5df  ......7'...G....
 0d30 5c470545 e9bfb726 0010dc42 411122e0  \G.E...&...BA.".
 0d40 06e493e7 47002e84 dcc2aa85 01464545  ....G........FEE
 0d50 eff01fe1 11c5a260 02640145 41018280  .......`.d.EA...
 0d60 22850264 a2600546 93050020 4101fdbd  "..d.`.F... A...
 0d70 397122f8 26f406fc b7240010 4af04eec  9q".&....$..J.N.
 0d80 23a80480 854723ac f48023a0 04009307  #....G#...#.....
 0d90 c0079cc0 2a840545 ef00a024 dc40a946  ....*..E...$.@.F
 0da0 37270010 ed9bdcc0 1306f00f 1c47858b  7'...........G..
 0db0 f5df50c7 1c47898b f5dffd36 5c4793f6  ..P..G.....6\G..
 0dc0 f60fedf6 5c439304 a03e0549 93e74700  ....\C...>.I..G.
 0dd0 5cc31306 50098145 0145fd34 eff05fd8  \...P..E.E.4.._.
 0de0 c1c8e318 25ff1306 70089305 a01a2145  ....%...p.....!E
 0df0 eff01fd7 95476307 f5046303 2509b727  .....Gc...c.%..'
 0e00 001023a8 07800547 23ace780 416723a0  ..#....G#...Ag#.
 0e10 07001307 47041306 50098145 98c31305  ....G...P..E....
 0e20 b003eff0 ffd31306 50099305 00204145  ........P.... AE
 0e30 eff01fd3 e2704274 a2740279 e2690945  .....pBt.t.y.i.E
 0e40 21618280 34006c00 37270010 1306f00f  !a..4.l.7'......
 0e50 1c47858b f5df50c7 1c47898b f5df5c47  .G....P..G....\G
 0e60 8506a38f f6fee395 d5fe2300 040041bf  ..........#...A.
 0e70 e2704274 a2740279 e2690545 21618280  .pBt.t.y.i.E!a..
 0e80 24001309 c100a686 37270010 1306f00f  $.......7'......
 0e90 1c47858b f5df50c7 1c47898b f5df5c47  .G....P..G....\G
 0ea0 8506a38f f6fee395 26ff9309 903e0146  ........&....>.F
 0eb0 81451305 7003eff0 bfca0146 b7050040  .E..p......F...@
 0ec0 13059002 fd39eff0 bfc96383 090065f1  .....9....c...e.
 0ed0 9309903e 01468145 1305a003 fd39eff0  ...>.F.E.....9..
 0ee0 3fc86383 09007df5 37270010 9306f00f  ?.c...}.7'......
 0ef0 1c47858b f5df54c7 1c47898b f5df5c47  .G....T..G....\G
 0f00 8504a38f f4fee395 24ff8347 810093f7  ........$..G....
 0f10 0704b337 f0008907 2300f400 cdb5b707  ...7....#.......
 0f20 00100547 98c7d8c7 23a80700 37070010  ...G....#...7...
 0f30 5c43e34f f0fe8280 37070010 af27a740  \C.O....7....'.@
 0f40 8127e3cd 07fe8280 83460500 2a860145  .'.......F..*..E
 0f50 89ce3707 00100506 af27d740 8127e3cd  ..7......'.@.'..
 0f60 07fe8346 06000525 fdf63707 0010a946  ...F...%..7....F
 0f70 af27d740 8127e3cd 07fe8280 9b06f6ff  .'.@.'..........
 0f80 05c68216 81928506 aa9629a0 63e0e702  ..........).c...
 0f90 630cd500 03470500 83c70500 05058505  c....G..........
 0fa0 e376f7fe 7d558280 01458280 05458280  .v..}U...E...E..
 0fb0 41112e83 22e09b05 05002a84 89480948  A...".....*..H.H
 0fc0 85470547 85461b05 030006e4 eff05fac  .G.G.F........_.
 0fd0 eff01fb0 01256dfd a2602285 02644101  .....%m..`"..dA.
 0fe0 8280b747 0f009b87 0724bb87 a7021306  ...G.....$......
 0ff0 803e37c7 00088336 87ff1307 0008bbd7  .>7....6........
 1000 c7028217 8193b697 b7460008 9ce27320  .........F....s 
 1010 47307300 50107330 47308280 130101b8  G0s.P.s0G0......
 1020 23388146 23302147 7d740569 fd722334  #8.F#0!G}t.i.r#4
 1030 91469307 09469304 84ba233c 1146a697  .F...F....#<.F..
 1040 1691b384 27007d57 b717000c 23349124  ....'.}W....#4.$
 1050 23a0e708 eff0bfec 17150000 130505cc  #...............
 1060 eff09fee 17150000 1305c5cc eff0dfed  ................
 1070 130574ba 93070946 aa973385 2700eff0  ..t....F..3.'...
 1080 3fcf1715 00001305 65cceff0 ffeb2685  ?.......e.....&.
 1090 eff06fa0 b7040004 9c48c9c3 17150000  ..o......H......
 10a0 1305c5ce eff05fea 7d748567 130484dc  ......_.}t.g....
 10b0 93870746 a2973384 27009715 00009385  ...F..3.'.......
 10c0 e5cd2285 eff0afe8 2285eff0 8f9c1715  ..".....".......
 10d0 00001305 a5cdeff0 3fe79715 00009385  ........?.......
 10e0 65ce2285 eff0afe6 93051040 d6052285  e."........@..".
 10f0 eff04f87 17150000 130545cd eff0dfe4  ..O.......E.....
 1100 85621691 83308147 03340147 83348146  .b...0.G.4.G.4.F
 1110 03390146 01451301 01488280 17150000  .9.F.E...H......
 1120 130545c4 eff05fe2 85671304 84dc9387  ..E..._..g......
 1130 0746a297 33842700 97150000 938505c4  .F..3.'.........
 1140 2285eff0 cfe00326 4124a545 f2052285  "......&A$.E..".
 1150 eff0afff b7d7feca 9387e7af 9cc83dbf  ..............=.
Contents of section .data:
 1160 d00dfeed 00000b81 00000038 0000092c  ...........8...,
 1170 00000028 00000011 00000010 00000000  ...(............
 1180 00000255 000008f4 00000000 00000000  ...U............
 1190 00000000 00000000 00000001 00000000  ................
 11a0 00000003 00000008 00000000 79745f72  ............yt_r
 11b0 76363400 00000003 0000000f 00000006  v64.............
 11c0 7975746f 6e670079 745f7276 36340000  yutong.yt_rv64..
 11d0 00000003 00000004 00000011 00000002  ................
 11e0 00000003 00000004 00000020 00000002  ........... ....
 11f0 00000003 00000004 0000002c 00000002  ...........,....
 1200 00000001 72746363 6c6b0000 00000003  ....rtcclk......
 1210 0000000c 00000006 66697865 642d636c  ........fixed-cl
 1220 6f636b00 00000003 00000004 0000003d  ock............=
 1230 00000001 00000003 00000004 0000004a  ...............J
 1240 000f4240 00000003 00000007 0000005a  ..B@...........Z
 1250 72746363 6c6b0000 00000003 00000004  rtcclk..........
 1260 0000006d 00000005 00000002 00000001  ...m............
 1270 63707573 00000000 00000003 00000004  cpus............
 1280 00000075 00000001 00000003 00000004  ...u............
 1290 00000011 00000001 00000003 00000004  ................
 12a0 00000020 00000000 00000003 00000004  ... ............
 12b0 00000083 000f4240 00000001 63707540  ......B@....cpu@
 12c0 30000000 00000003 00000004 00000096  0...............
 12d0 63707500 00000003 00000004 000000a2  cpu.............
 12e0 00000000 00000003 00000005 000000a6  ................
 12f0 6f6b6179 00000000 00000003 00000006  okay............
 1300 00000006 72697363 76000000 00000003  ....riscv.......
 1310 00000004 000000ad 00000010 00000003  ................
 1320 00000004 000000c0 00000040 00000003  ...........@....
 1330 00000004 000000cd 00000400 00000003  ................
 1340 00000004 000000da 00000020 00000003  ........... ....
 1350 00000004 000000e5 00000080 00000003  ................
 1360 00000004 000000f0 00000010 00000003  ................
 1370 00000004 00000103 00000040 00000003  ...........@....
 1380 00000004 00000110 00000400 00000003  ................
 1390 00000004 0000011d 00000020 00000003  ........... ....
 13a0 00000004 00000128 00000080 00000003  .......(........
 13b0 0000000b 00000133 72763634 696d6163  .......3rv64imac
 13c0 66640000 00000003 0000000b 0000013d  fd.............=
 13d0 72697363 762c7376 34380000 00000003  riscv,sv48......
 13e0 00000004 00000146 00000010 00000003  .......F........
 13f0 00000004 00000157 00000004 00000003  .......W........
 1400 00000004 0000004a 01f78a40 00000003  .......J...@....
 1410 00000000 0000016c 00000003 00000004  .......l........
 1420 0000006d 00000003 00000001 696e7465  ...m........inte
 1430 72727570 742d636f 6e74726f 6c6c6572  rrupt-controller
 1440 00000000 00000003 00000004 0000017b  ...............{
 1450 00000001 00000003 00000000 0000018c  ................
 1460 00000003 0000000f 00000006 72697363  ............risc
 1470 762c6370 752d696e 74630000 00000003  v,cpu-intc......
 1480 00000004 0000006d 00000004 00000002  .......m........
 1490 00000002 00000001 6370752d 6d617000  ........cpu-map.
 14a0 00000001 636c7573 74657230 00000000  ....cluster0....
 14b0 00000001 636f7265 30000000 00000003  ....core0.......
 14c0 00000004 00000177 00000003 00000002  .......w........
 14d0 00000002 00000002 00000002 00000001  ................
 14e0 626f6f74 726f6d40 30000000 00000003  bootrom@0.......
 14f0 00000008 00000096 626f6f74 726f6d00  ........bootrom.
 1500 00000003 00000010 000000a2 00000000  ................
 1510 00000000 00000000 00002000 00000002  .......... .....
 1520 00000001 73797372 616d4031 30303030  ....sysram@10000
 1530 00000000 00000003 00000007 00000096  ................
 1540 6d656d6f 72790000 00000003 00000010  memory..........
 1550 000000a2 00000000 00020000 00000000  ................
 1560 00020000 00000002 00000001 64647240  ............ddr@
 1570 38303030 30303030 00000000 00000003  80000000........
 1580 00000007 00000096 6d656d6f 72790000  ........memory..
 1590 00000003 00000010 000000a2 00000000  ................
 15a0 80000000 00000000 20000000 00000002  ........ .......
 15b0 00000001 70657269 62757340 30343030  ....peribus@0400
 15c0 30303030 00000000 00000003 0000000b  0000............
 15d0 00000006 73696d70 6c652d62 75730000  ....simple-bus..
 15e0 00000003 00000004 00000011 00000001  ................
 15f0 00000003 00000004 00000020 00000001  ........... ....
 1600 00000003 00000000 000001a1 00000001  ................
 1610 63666772 65674030 34303030 30303000  cfgreg@04000000.
 1620 00000003 0000000d 00000006 72697363  ............risc
 1630 762c6366 67726567 00000000 00000003  v,cfgreg........
 1640 00000008 000000a2 04000000 00001000  ................
 1650 00000002 00000001 63707573 74617472  ........cpustatr
 1660 65674030 34303031 30303000 00000003  eg@04001000.....
 1670 00000011 00000006 72697363 762c6370  ........riscv,cp
 1680 75737461 74726567 00000000 00000003  ustatreg........
 1690 00000008 000000a2 04001000 00001000  ................
 16a0 00000002 00000001 636c696e 74403038  ........clint@08
 16b0 30303030 30300000 00000003 0000000d  000000..........
 16c0 00000006 72697363 762c636c 696e7430  ....riscv,clint0
 16d0 00000000 00000003 00000008 000000a2  ................
 16e0 08000000 00010000 00000003 00000010  ................
 16f0 000001a8 00000004 00000007 00000004  ................
 1700 00000003 00000002 00000001 696e7465  ............inte
 1710 72727570 742d636f 6e74726f 6c6c6572  rrupt-controller
 1720 40306330 30303030 30000000 00000003  @0c000000.......
 1730 00000004 0000017b 00000001 00000003  .......{........
 1740 00000000 0000018c 00000003 0000000c  ................
 1750 00000006 72697363 762c706c 69633000  ....riscv,plic0.
 1760 00000003 00000004 000001bc 00000020  ............... 
 1770 00000003 00000008 000000a2 0c000000  ................
 1780 04000000 00000003 00000010 000001a8  ................
 1790 00000004 0000000b 00000004 00000009  ................
 17a0 00000003 00000004 0000006d 00000002  ...........m....
 17b0 00000002 00000001 75617274 40313030  ........uart@100
 17c0 30303030 30000000 00000003 00000004  00000...........
 17d0 000001c7 00000001 00000003 00000004  ................
 17e0 0000002c 00000002 00000003 0000000d  ...,............
 17f0 00000006 73696669 76652c75 61727430  ....sifive,uart0
 1800 00000000 00000003 00000008 000001d2  ................
 1810 00000005 00000000 00000003 00000008  ................
 1820 000000a2 10000000 00001000 00000002  ................
 1830 00000001 73706940 31303030 31303030  ....spi@10001000
 1840 00000000 00000003 00000004 000001c7  ................
 1850 00000002 00000003 00000004 0000002c  ...............,
 1860 00000002 00000003 0000000b 00000006  ................
 1870 72697363 762c7370 69300000 00000003  riscv,spi0......
 1880 00000008 000000a2 10001000 00001000  ................
 1890 00000003 00000004 00000011 00000001  ................
 18a0 00000003 00000004 00000020 00000000  ........... ....
 18b0 00000003 00000005 000000a6 6f6b6179  ............okay
 18c0 00000000 00000001 73706964 65764030  ........spidev@0
 18d0 00000000 00000003 0000000e 00000006  ................
 18e0 726f686d 2c646832 32323866 76000000  rohm,dh2228fv...
 18f0 00000003 00000004 000000a2 00000000  ................
 1900 00000003 00000004 000001d9 000f4240  ..............B@
 1910 00000003 00000008 000001eb 00000ce4  ................
 1920 00000ce4 00000003 00000000 000001fa  ................
 1930 00000002 00000001 6d6d6340 31000000  ........mmc@1...
 1940 00000003 0000000d 00000006 6d6d632d  ............mmc-
 1950 7370692d 736c6f74 00000000 00000003  spi-slot........
 1960 00000004 000000a2 00000001 00000003  ................
 1970 00000004 000001d9 000f4240 00000003  ..........B@....
 1980 00000008 000001eb 00000ce4 00000ce4  ................
 1990 00000003 00000000 000001fa 00000002  ................
 19a0 00000002 00000002 00000001 63686f73  ............chos
 19b0 656e0000 00000003 00000008 00000205  en..............
 19c0 00000000 80200000 00000003 00000008  ..... ..........
 19d0 00000218 00000000 87000000 00000003  ................
 19e0 00000030 00000229 726f6f74 3d2f6465  ...0...)root=/de
 19f0 762f6d6d 63626c6b 30703220 72772063  v/mmcblk0p2 rw c
 1a00 6f6e736f 6c653d74 74795349 46302072  onsole=ttySIF0 r
 1a10 6f6f7477 61697400 00000003 0000000f  ootwait.........
 1a20 00000232 75617274 30403130 30303130  ...2uart0@100010
 1a30 30300000 00000003 00000004 0000023e  00.............>
 1a40 00000600 00000002 00000001 616c6961  ............alia
 1a50 73657300 00000003 00000020 0000024d  ses........ ...M
 1a60 2f706572 69627573 40303430 30303030  /peribus@0400000
 1a70 302f7561 72744031 30303030 30303000  0/uart@10000000.
 1a80 00000002 00000002 00000009 6d6f6465  ............mode
 1a90 6c00636f 6d706174 69626c65 00236164  l.compatible.#ad
 1aa0 64726573 732d6365 6c6c7300 2373697a  dress-cells.#siz
 1ab0 652d6365 6c6c7300 696e7465 72727570  e-cells.interrup
 1ac0 742d7061 72656e74 0023636c 6f636b2d  t-parent.#clock-
 1ad0 63656c6c 7300636c 6f636b2d 66726571  cells.clock-freq
 1ae0 75656e63 7900636c 6f636b2d 6f757470  uency.clock-outp
 1af0 75742d6e 616d6573 00706861 6e646c65  ut-names.phandle
 1b00 006c696e 75782c70 68616e64 6c650074  .linux,phandle.t
 1b10 696d6562 6173652d 66726571 75656e63  imebase-frequenc
 1b20 79006465 76696365 5f747970 65007265  y.device_type.re
 1b30 67007374 61747573 00692d63 61636865  g.status.i-cache
 1b40 2d626c6f 636b2d73 697a6500 692d6361  -block-size.i-ca
 1b50 6368652d 73657473 00692d63 61636865  che-sets.i-cache
 1b60 2d73697a 6500692d 746c622d 73657473  -size.i-tlb-sets
 1b70 00692d74 6c622d73 697a6500 642d6361  .i-tlb-size.d-ca
 1b80 6368652d 626c6f63 6b2d7369 7a650064  che-block-size.d
 1b90 2d636163 68652d73 65747300 642d6361  -cache-sets.d-ca
 1ba0 6368652d 73697a65 00642d74 6c622d73  che-size.d-tlb-s
 1bb0 65747300 642d746c 622d7369 7a650072  ets.d-tlb-size.r
 1bc0 69736376 2c697361 006d6d75 2d747970  iscv,isa.mmu-typ
 1bd0 65007269 7363762c 706d7072 6567696f  e.riscv,pmpregio
 1be0 6e730072 69736376 2c706d70 6772616e  ns.riscv,pmpgran
 1bf0 756c6172 69747900 6c696e75 782c626f  ularity.linux,bo
 1c00 6f742d63 70750023 696e7465 72727570  ot-cpu.#interrup
 1c10 742d6365 6c6c7300 696e7465 72727570  t-cells.interrup
 1c20 742d636f 6e74726f 6c6c6572 0072616e  t-controller.ran
 1c30 67657300 696e7465 72727570 74732d65  ges.interrupts-e
 1c40 7874656e 64656400 72697363 762c6e64  xtended.riscv,nd
 1c50 65760069 6e746572 72757074 7300636c  ev.interrupts.cl
 1c60 6f636b73 00737069 2d6d6178 2d667265  ocks.spi-max-fre
 1c70 7175656e 63790076 6f6c7461 67652d72  quency.voltage-r
 1c80 616e6765 73006469 7361626c 652d7770  anges.disable-wp
 1c90 00726973 63762c6b 65726e65 6c2d7374  .riscv,kernel-st
 1ca0 61727400 72697363 762c6b65 726e656c  art.riscv,kernel
 1cb0 2d656e64 00626f6f 74617267 73007374  -end.bootargs.st
 1cc0 646f7574 2d706174 68006c69 6e75782c  dout-path.linux,
 1cd0 706c6174 666f726d 00736572 69616c30  platform.serial0
 1ce0 00                                   .               
Contents of section .rodata.str1.8:
 1ce8 46415431 32202020 00000000 00000000  FAT12   ........
 1cf8 46415431 36202020 00000000 00000000  FAT16   ........
 1d08 46415433 32202020 00000000 00000000  FAT32   ........
 1d18 5b42524f 4d5d2055 41525420 696e6974  [BROM] UART init
 1d28 20646f6e 65000000 5b42524f 4d5d2053   done...[BROM] S
 1d38 44206361 72642069 6e697400 00000000  D card init.....
 1d48 5b42524f 4d5d2046 41542042 50422069  [BROM] FAT BPB i
 1d58 6e697400 00000000 5b42524f 4d5d206c  nit.....[BROM] l
 1d68 6f616420 726f6f74 66730000 00000000  oad rootfs......
 1d78 72697363 762e6673 00000000 00000000  riscv.fs........
 1d88 5b42524f 4d5d206c 6f616420 62626c00  [BROM] load bbl.
 1d98 626f6f74 2e62696e 00000000 00000000  boot.bin........
 1da8 5b42524f 4d5d206c 6f616420 766d6c69  [BROM] load vmli
 1db8 6e757800 00000000 766d6c69 6e757800  nux.....vmlinux.
 1dc8 5b42524f 4d5d2062 6f6f7420 726f6d20  [BROM] boot rom 
 1dd8 696e6974 20646f6e 6500               init done.      
Contents of section .comment:
 0000 4743433a 20286731 65613937 38653330  GCC: (g1ea978e30
 0010 36362920 31322e31 2e3000             66) 12.1.0.     
Contents of section .riscv.attributes:
 0000 412e0000 00726973 63760001 24000000  A....riscv..$...
 0010 04100572 76363469 3270305f 6d327030  ...rv64i2p0_m2p0
 0020 5f613270 305f6332 70300008 010a0b    _a2p0_c2p0..... 

Disassembly of section .text:

0000000000000000 <__text_start>:
       0:	4081                	li	ra,0
       2:	4101                	li	sp,0
       4:	4181                	li	gp,0
       6:	4201                	li	tp,0
       8:	4281                	li	t0,0
       a:	4301                	li	t1,0
       c:	4381                	li	t2,0
       e:	4401                	li	s0,0
      10:	4481                	li	s1,0
      12:	4501                	li	a0,0
      14:	4581                	li	a1,0
      16:	4601                	li	a2,0
      18:	4681                	li	a3,0
      1a:	4701                	li	a4,0
      1c:	4781                	li	a5,0
      1e:	4801                	li	a6,0
      20:	4881                	li	a7,0
      22:	4901                	li	s2,0
      24:	4981                	li	s3,0
      26:	4a01                	li	s4,0
      28:	4a81                	li	s5,0
      2a:	4b01                	li	s6,0
      2c:	4b81                	li	s7,0
      2e:	4c01                	li	s8,0
      30:	4c81                	li	s9,0
      32:	4d01                	li	s10,0
      34:	4d81                	li	s11,0
      36:	4e01                	li	t3,0
      38:	4e81                	li	t4,0
      3a:	4f01                	li	t5,0
      3c:	4f81                	li	t6,0

000000000000003e <fill_stack>:
      3e:	0003f517          	auipc	a0,0x3f
      42:	fc250513          	addi	a0,a0,-62 # 3f000 <_stack_end>
      46:	00040597          	auipc	a1,0x40
      4a:	fb658593          	addi	a1,a1,-74 # 3fffc <_stack_end+0xffc>
      4e:	4601                	li	a2,0
      50:	0e2000ef          	jal	ra,132 <fill_block>

0000000000000054 <init_stack>:
      54:	00040117          	auipc	sp,0x40
      58:	fac10113          	addi	sp,sp,-84 # 40000 <__stack>

000000000000005c <init_system>:
      5c:	301022f3          	csrr	t0,misa
      60:	0602c163          	bltz	t0,c2 <rv64>
      64:	001a02b7          	lui	t0,0x1a0
      68:	3c329073          	csrw	0x3c3,t0
      6c:	00000297          	auipc	t0,0x0
      70:	0d42a283          	lw	t0,212(t0) # 140 <sysram_base>
      74:	00000317          	auipc	t1,0x0
      78:	0d432303          	lw	t1,212(t1) # 148 <sysram_size>
      7c:	137d                	addi	t1,t1,-1
      7e:	00135313          	srli	t1,t1,0x1
      82:	0062e2b3          	or	t0,t0,t1
      86:	0022d293          	srli	t0,t0,0x2
      8a:	3de29073          	csrw	0x3de,t0
      8e:	1a0002b7          	lui	t0,0x1a000
      92:	3c32a073          	csrs	0x3c3,t0
      96:	00000297          	auipc	t0,0x0
      9a:	0ba2a283          	lw	t0,186(t0) # 150 <ddr_base>
      9e:	00000317          	auipc	t1,0x0
      a2:	0ba32303          	lw	t1,186(t1) # 158 <ddr_size>
      a6:	137d                	addi	t1,t1,-1
      a8:	00135313          	srli	t1,t1,0x1
      ac:	0062e2b3          	or	t0,t0,t1
      b0:	0022d293          	srli	t0,t0,0x2
      b4:	3df29073          	csrw	0x3df,t0
      b8:	00000417          	auipc	s0,0x0
      bc:	08842403          	lw	s0,136(s0) # 140 <sysram_base>
      c0:	a08d                	j	122 <goto_main>

00000000000000c2 <rv64>:
      c2:	00d0029b          	addiw	t0,zero,13
      c6:	12c6                	slli	t0,t0,0x31
      c8:	3c229073          	csrw	0x3c2,t0
      cc:	00000297          	auipc	t0,0x0
      d0:	0742b283          	ld	t0,116(t0) # 140 <sysram_base>
      d4:	00000317          	auipc	t1,0x0
      d8:	07433303          	ld	t1,116(t1) # 148 <sysram_size>
      dc:	137d                	addi	t1,t1,-1
      de:	00135313          	srli	t1,t1,0x1
      e2:	0062e2b3          	or	t0,t0,t1
      e6:	0022d293          	srli	t0,t0,0x2
      ea:	3de29073          	csrw	0x3de,t0
      ee:	00d0029b          	addiw	t0,zero,13
      f2:	12e6                	slli	t0,t0,0x39
      f4:	3c22a073          	csrs	0x3c2,t0
      f8:	00000297          	auipc	t0,0x0
      fc:	0582b283          	ld	t0,88(t0) # 150 <ddr_base>
     100:	00000317          	auipc	t1,0x0
     104:	05833303          	ld	t1,88(t1) # 158 <ddr_size>
     108:	137d                	addi	t1,t1,-1
     10a:	00135313          	srli	t1,t1,0x1
     10e:	0062e2b3          	or	t0,t0,t1
     112:	0022d293          	srli	t0,t0,0x2
     116:	3df29073          	csrw	0x3df,t0
     11a:	00000417          	auipc	s0,0x0
     11e:	02643403          	ld	s0,38(s0) # 140 <sysram_base>

0000000000000122 <goto_main>:
     122:	f1402573          	csrr	a0,mhartid
     126:	00001597          	auipc	a1,0x1
     12a:	03a58593          	addi	a1,a1,58 # 1160 <__text_end>
     12e:	8402                	jr	s0

0000000000000130 <dead_loop>:
     130:	a001                	j	130 <dead_loop>

0000000000000132 <fill_block>:
     132:	00a5e563          	bltu	a1,a0,13c <fb_end>
     136:	c110                	sw	a2,0(a0)
     138:	0511                	addi	a0,a0,4
     13a:	bfe5                	j	132 <fill_block>

000000000000013c <fb_end>:
     13c:	8082                	ret
     13e:	0001                	nop

0000000000000140 <sysram_base>:
     140:	00020000          	.word	0x00020000
     144:	00000000          	.word	0x00000000

0000000000000148 <sysram_size>:
     148:	00020000          	.word	0x00020000
     14c:	00000000          	.word	0x00000000

0000000000000150 <ddr_base>:
     150:	0000                	unimp
     152:	8000                	.2byte	0x8000
     154:	0000                	unimp
	...

0000000000000158 <ddr_size>:
     158:	0000                	unimp
     15a:	8000                	.2byte	0x8000
	...

0000000000000164 <__elf_loader_reloc>:
     164:	db010113          	addi	sp,sp,-592
     168:	23213823          	sd	s2,560(sp)
     16c:	4601                	li	a2,0
     16e:	892e                	mv	s2,a1
     170:	4581                	li	a1,0
     172:	24113423          	sd	ra,584(sp)
     176:	23413023          	sd	s4,544(sp)
     17a:	21513c23          	sd	s5,536(sp)
     17e:	8a2a                	mv	s4,a0
     180:	24813023          	sd	s0,576(sp)
     184:	22913c23          	sd	s1,568(sp)
     188:	23313423          	sd	s3,552(sp)
     18c:	21613823          	sd	s6,528(sp)
     190:	21713423          	sd	s7,520(sp)
     194:	78e000ef          	jal	ra,922 <__fseek>
     198:	04000613          	li	a2,64
     19c:	858a                	mv	a1,sp
     19e:	8552                	mv	a0,s4
     1a0:	7aa000ef          	jal	ra,94a <__fread>
     1a4:	03815a83          	lhu	s5,56(sp)
     1a8:	0a0a8b63          	beqz	s5,25e <__elf_loader_reloc+0xfa>
     1ac:	4b01                	li	s6,0
     1ae:	4ba1                	li	s7,8
     1b0:	6989                	lui	s3,0x2
     1b2:	416a87bb          	subw	a5,s5,s6
     1b6:	0cfbea63          	bltu	s7,a5,28a <__elf_loader_reloc+0x126>
     1ba:	003a941b          	slliw	s0,s5,0x3
     1be:	4154043b          	subw	s0,s0,s5
     1c2:	0034141b          	slliw	s0,s0,0x3
     1c6:	7582                	ld	a1,32(sp)
     1c8:	003b179b          	slliw	a5,s6,0x3
     1cc:	416787bb          	subw	a5,a5,s6
     1d0:	0037979b          	slliw	a5,a5,0x3
     1d4:	9dbd                	addw	a1,a1,a5
     1d6:	4601                	li	a2,0
     1d8:	8552                	mv	a0,s4
     1da:	003a9493          	slli	s1,s5,0x3
     1de:	744000ef          	jal	ra,922 <__fseek>
     1e2:	415484b3          	sub	s1,s1,s5
     1e6:	8622                	mv	a2,s0
     1e8:	008c                	addi	a1,sp,64
     1ea:	8552                	mv	a0,s4
     1ec:	048e                	slli	s1,s1,0x3
     1ee:	0080                	addi	s0,sp,64
     1f0:	75a000ef          	jal	ra,94a <__fread>
     1f4:	94a2                	add	s1,s1,s0
     1f6:	a029                	j	200 <__elf_loader_reloc+0x9c>
     1f8:	03840413          	addi	s0,s0,56
     1fc:	04848b63          	beq	s1,s0,252 <__elf_loader_reloc+0xee>
     200:	6c1c                	ld	a5,24(s0)
     202:	97ca                	add	a5,a5,s2
     204:	ff37eae3          	bltu	a5,s3,1f8 <__elf_loader_reloc+0x94>
     208:	440c                	lw	a1,8(s0)
     20a:	4601                	li	a2,0
     20c:	8552                	mv	a0,s4
     20e:	714000ef          	jal	ra,922 <__fseek>
     212:	6c0c                	ld	a1,24(s0)
     214:	5010                	lw	a2,32(s0)
     216:	8552                	mv	a0,s4
     218:	95ca                	add	a1,a1,s2
     21a:	730000ef          	jal	ra,94a <__fread>
     21e:	7010                	ld	a2,32(s0)
     220:	7408                	ld	a0,40(s0)
     222:	fca67be3          	bgeu	a2,a0,1f8 <__elf_loader_reloc+0x94>
     226:	6c0c                	ld	a1,24(s0)
     228:	4889                	li	a7,2
     22a:	4809                	li	a6,2
     22c:	95b2                	add	a1,a1,a2
     22e:	4785                	li	a5,1
     230:	40c5063b          	subw	a2,a0,a2
     234:	4709                	li	a4,2
     236:	4685                	li	a3,1
     238:	012585bb          	addw	a1,a1,s2
     23c:	4501                	li	a0,0
     23e:	053000ef          	jal	ra,a90 <__dma_cfg>
     242:	08f000ef          	jal	ra,ad0 <__dma_busy>
     246:	2501                	sext.w	a0,a0
     248:	fd6d                	bnez	a0,242 <__elf_loader_reloc+0xde>
     24a:	03840413          	addi	s0,s0,56
     24e:	fa8499e3          	bne	s1,s0,200 <__elf_loader_reloc+0x9c>
     252:	016a8b3b          	addw	s6,s5,s6
     256:	03815a83          	lhu	s5,56(sp)
     25a:	f55b6ce3          	bltu	s6,s5,1b2 <__elf_loader_reloc+0x4e>
     25e:	24813083          	ld	ra,584(sp)
     262:	24013403          	ld	s0,576(sp)
     266:	6562                	ld	a0,24(sp)
     268:	23813483          	ld	s1,568(sp)
     26c:	23013903          	ld	s2,560(sp)
     270:	22813983          	ld	s3,552(sp)
     274:	22013a03          	ld	s4,544(sp)
     278:	21813a83          	ld	s5,536(sp)
     27c:	21013b03          	ld	s6,528(sp)
     280:	20813b83          	ld	s7,520(sp)
     284:	25010113          	addi	sp,sp,592
     288:	8082                	ret
     28a:	1c000413          	li	s0,448
     28e:	4aa1                	li	s5,8
     290:	bf1d                	j	1c6 <__elf_loader_reloc+0x62>

0000000000000292 <__elf_loader>:
     292:	4581                	li	a1,0
     294:	bdc1                	j	164 <__elf_loader_reloc>

0000000000000296 <__fat_bpb_init>:
     296:	dd010113          	addi	sp,sp,-560
     29a:	22813023          	sd	s0,544(sp)
     29e:	858a                	mv	a1,sp
     2a0:	842a                	mv	s0,a0
     2a2:	4501                	li	a0,0
     2a4:	22113423          	sd	ra,552(sp)
     2a8:	20913c23          	sd	s1,536(sp)
     2ac:	21213823          	sd	s2,528(sp)
     2b0:	21313423          	sd	s3,520(sp)
     2b4:	283000ef          	jal	ra,d36 <__sd_readblk>
     2b8:	c901                	beqz	a0,2c8 <__fat_bpb_init+0x32>
     2ba:	1fe15903          	lhu	s2,510(sp)
     2be:	67ad                	lui	a5,0xb
     2c0:	a5578793          	addi	a5,a5,-1451 # aa55 <__data_end+0x8d74>
     2c4:	02f90063          	beq	s2,a5,2e4 <__fat_bpb_init+0x4e>
     2c8:	22813083          	ld	ra,552(sp)
     2cc:	22013403          	ld	s0,544(sp)
     2d0:	21813483          	ld	s1,536(sp)
     2d4:	21013903          	ld	s2,528(sp)
     2d8:	20813983          	ld	s3,520(sp)
     2dc:	4501                	li	a0,0
     2de:	23010113          	addi	sp,sp,560
     2e2:	8082                	ret
     2e4:	4621                	li	a2,8
     2e6:	00002597          	auipc	a1,0x2
     2ea:	a0258593          	addi	a1,a1,-1534 # 1ce8 <__data_end+0x7>
     2ee:	03610513          	addi	a0,sp,54
     2f2:	48b000ef          	jal	ra,f7c <__strcmp>
     2f6:	0005049b          	sext.w	s1,a0
     2fa:	e8cd                	bnez	s1,3ac <__fat_bpb_init+0x116>
     2fc:	00c14783          	lbu	a5,12(sp)
     300:	00b14703          	lbu	a4,11(sp)
     304:	00d14583          	lbu	a1,13(sp)
     308:	07a2                	slli	a5,a5,0x8
     30a:	8fd9                	or	a5,a5,a4
     30c:	470d                	li	a4,3
     30e:	00e40a23          	sb	a4,20(s0)
     312:	00f41023          	sh	a5,0(s0)
     316:	4981                	li	s3,0
     318:	01615803          	lhu	a6,22(sp)
     31c:	01014503          	lbu	a0,16(sp)
     320:	00e15603          	lhu	a2,14(sp)
     324:	01214683          	lbu	a3,18(sp)
     328:	0305073b          	mulw	a4,a0,a6
     32c:	0136063b          	addw	a2,a2,s3
     330:	01114783          	lbu	a5,17(sp)
     334:	1642                	slli	a2,a2,0x30
     336:	9241                	srli	a2,a2,0x30
     338:	06a2                	slli	a3,a3,0x8
     33a:	8edd                	or	a3,a3,a5
     33c:	0046d79b          	srliw	a5,a3,0x4
     340:	00b40923          	sb	a1,18(s0)
     344:	01041123          	sh	a6,2(s0)
     348:	9f31                	addw	a4,a4,a2
     34a:	1742                	slli	a4,a4,0x30
     34c:	9341                	srli	a4,a4,0x30
     34e:	9fb9                	addw	a5,a5,a4
     350:	17c2                	slli	a5,a5,0x30
     352:	00a409a3          	sb	a0,19(s0)
     356:	00c41223          	sh	a2,4(s0)
     35a:	00e41323          	sh	a4,6(s0)
     35e:	00d41623          	sh	a3,12(s0)
     362:	93c1                	srli	a5,a5,0x30
     364:	5682                	lw	a3,32(sp)
     366:	00f41823          	sh	a5,16(s0)
     36a:	00e41723          	sh	a4,14(s0)
     36e:	e699                	bnez	a3,37c <__fat_bpb_init+0xe6>
     370:	01414683          	lbu	a3,20(sp)
     374:	01314703          	lbu	a4,19(sp)
     378:	06a2                	slli	a3,a3,0x8
     37a:	8ed9                	or	a3,a3,a4
     37c:	40f487bb          	subw	a5,s1,a5
     380:	9fb5                	addw	a5,a5,a3
     382:	02b7d7bb          	divuw	a5,a5,a1
     386:	577d                	li	a4,-1
     388:	22813083          	ld	ra,552(sp)
     38c:	20e41c23          	sh	a4,536(s0)
     390:	21813483          	ld	s1,536(sp)
     394:	21013903          	ld	s2,528(sp)
     398:	20813983          	ld	s3,520(sp)
     39c:	4505                	li	a0,1
     39e:	2789                	addiw	a5,a5,2
     3a0:	c41c                	sw	a5,8(s0)
     3a2:	22013403          	ld	s0,544(sp)
     3a6:	23010113          	addi	sp,sp,560
     3aa:	8082                	ret
     3ac:	4621                	li	a2,8
     3ae:	00002597          	auipc	a1,0x2
     3b2:	94a58593          	addi	a1,a1,-1718 # 1cf8 <__data_end+0x17>
     3b6:	03610513          	addi	a0,sp,54
     3ba:	3c3000ef          	jal	ra,f7c <__strcmp>
     3be:	0005049b          	sext.w	s1,a0
     3c2:	e085                	bnez	s1,3e2 <__fat_bpb_init+0x14c>
     3c4:	00c14783          	lbu	a5,12(sp)
     3c8:	00b14703          	lbu	a4,11(sp)
     3cc:	00d14583          	lbu	a1,13(sp)
     3d0:	07a2                	slli	a5,a5,0x8
     3d2:	8fd9                	or	a5,a5,a4
     3d4:	4711                	li	a4,4
     3d6:	00e40a23          	sb	a4,20(s0)
     3da:	00f41023          	sh	a5,0(s0)
     3de:	4981                	li	s3,0
     3e0:	bf25                	j	318 <__fat_bpb_init+0x82>
     3e2:	4621                	li	a2,8
     3e4:	00002597          	auipc	a1,0x2
     3e8:	92458593          	addi	a1,a1,-1756 # 1d08 <__data_end+0x27>
     3ec:	05210513          	addi	a0,sp,82
     3f0:	38d000ef          	jal	ra,f7c <__strcmp>
     3f4:	0005049b          	sext.w	s1,a0
     3f8:	e0bd                	bnez	s1,45e <__fat_bpb_init+0x1c8>
     3fa:	00c14783          	lbu	a5,12(sp)
     3fe:	00b14703          	lbu	a4,11(sp)
     402:	00d14583          	lbu	a1,13(sp)
     406:	07a2                	slli	a5,a5,0x8
     408:	8fd9                	or	a5,a5,a4
     40a:	4715                	li	a4,5
     40c:	00e40a23          	sb	a4,20(s0)
     410:	00f41023          	sh	a5,0(s0)
     414:	4981                	li	s3,0
     416:	02415803          	lhu	a6,36(sp)
     41a:	01014503          	lbu	a0,16(sp)
     41e:	00e15683          	lhu	a3,14(sp)
     422:	01214603          	lbu	a2,18(sp)
     426:	030507bb          	mulw	a5,a0,a6
     42a:	013686bb          	addw	a3,a3,s3
     42e:	16c2                	slli	a3,a3,0x30
     430:	01114703          	lbu	a4,17(sp)
     434:	92c1                	srli	a3,a3,0x30
     436:	0622                	slli	a2,a2,0x8
     438:	8e59                	or	a2,a2,a4
     43a:	00b40923          	sb	a1,18(s0)
     43e:	02c15703          	lhu	a4,44(sp)
     442:	01041123          	sh	a6,2(s0)
     446:	9fb5                	addw	a5,a5,a3
     448:	17c2                	slli	a5,a5,0x30
     44a:	93c1                	srli	a5,a5,0x30
     44c:	00a409a3          	sb	a0,19(s0)
     450:	00d41223          	sh	a3,4(s0)
     454:	00f41323          	sh	a5,6(s0)
     458:	00c41623          	sh	a2,12(s0)
     45c:	b721                	j	364 <__fat_bpb_init+0xce>
     45e:	1c615983          	lhu	s3,454(sp)
     462:	858a                	mv	a1,sp
     464:	0009849b          	sext.w	s1,s3
     468:	8526                	mv	a0,s1
     46a:	0cd000ef          	jal	ra,d36 <__sd_readblk>
     46e:	e4050de3          	beqz	a0,2c8 <__fat_bpb_init+0x32>
     472:	1fe15783          	lhu	a5,510(sp)
     476:	e52799e3          	bne	a5,s2,2c8 <__fat_bpb_init+0x32>
     47a:	4621                	li	a2,8
     47c:	00002597          	auipc	a1,0x2
     480:	86c58593          	addi	a1,a1,-1940 # 1ce8 <__data_end+0x7>
     484:	03610513          	addi	a0,sp,54
     488:	2f5000ef          	jal	ra,f7c <__strcmp>
     48c:	0005079b          	sext.w	a5,a0
     490:	ef99                	bnez	a5,4ae <__fat_bpb_init+0x218>
     492:	00c14783          	lbu	a5,12(sp)
     496:	00b14703          	lbu	a4,11(sp)
     49a:	00d14583          	lbu	a1,13(sp)
     49e:	07a2                	slli	a5,a5,0x8
     4a0:	8fd9                	or	a5,a5,a4
     4a2:	470d                	li	a4,3
     4a4:	00e40a23          	sb	a4,20(s0)
     4a8:	00f41023          	sh	a5,0(s0)
     4ac:	b5b5                	j	318 <__fat_bpb_init+0x82>
     4ae:	4621                	li	a2,8
     4b0:	00002597          	auipc	a1,0x2
     4b4:	84858593          	addi	a1,a1,-1976 # 1cf8 <__data_end+0x17>
     4b8:	03610513          	addi	a0,sp,54
     4bc:	2c1000ef          	jal	ra,f7c <__strcmp>
     4c0:	0005079b          	sext.w	a5,a0
     4c4:	ef99                	bnez	a5,4e2 <__fat_bpb_init+0x24c>
     4c6:	00c14783          	lbu	a5,12(sp)
     4ca:	00b14703          	lbu	a4,11(sp)
     4ce:	00d14583          	lbu	a1,13(sp)
     4d2:	07a2                	slli	a5,a5,0x8
     4d4:	8fd9                	or	a5,a5,a4
     4d6:	4711                	li	a4,4
     4d8:	00e40a23          	sb	a4,20(s0)
     4dc:	00f41023          	sh	a5,0(s0)
     4e0:	bd25                	j	318 <__fat_bpb_init+0x82>
     4e2:	4621                	li	a2,8
     4e4:	00002597          	auipc	a1,0x2
     4e8:	82458593          	addi	a1,a1,-2012 # 1d08 <__data_end+0x27>
     4ec:	05210513          	addi	a0,sp,82
     4f0:	28d000ef          	jal	ra,f7c <__strcmp>
     4f4:	0005079b          	sext.w	a5,a0
     4f8:	dc0798e3          	bnez	a5,2c8 <__fat_bpb_init+0x32>
     4fc:	00c14783          	lbu	a5,12(sp)
     500:	00b14703          	lbu	a4,11(sp)
     504:	00d14583          	lbu	a1,13(sp)
     508:	07a2                	slli	a5,a5,0x8
     50a:	8fd9                	or	a5,a5,a4
     50c:	4715                	li	a4,5
     50e:	00e40a23          	sb	a4,20(s0)
     512:	00f41023          	sh	a5,0(s0)
     516:	b701                	j	416 <__fat_bpb_init+0x180>

0000000000000518 <__nxt_clst>:
     518:	1101                	addi	sp,sp,-32
     51a:	e822                	sd	s0,16(sp)
     51c:	00e55403          	lhu	s0,14(a0)
     520:	21855683          	lhu	a3,536(a0)
     524:	e426                	sd	s1,8(sp)
     526:	9c2d                	addw	s0,s0,a1
     528:	ec06                	sd	ra,24(sp)
     52a:	0074579b          	srliw	a5,s0,0x7
     52e:	84aa                	mv	s1,a0
     530:	02f69563          	bne	a3,a5,55a <__nxt_clst+0x42>
     534:	07f47413          	andi	s0,s0,127
     538:	0411                	addi	s0,s0,4
     53a:	040a                	slli	s0,s0,0x2
     53c:	9426                	add	s0,s0,s1
     53e:	4408                	lw	a0,8(s0)
     540:	100007b7          	lui	a5,0x10000
     544:	17fd                	addi	a5,a5,-1 # fffffff <__stack+0xffbffff>
     546:	04f50563          	beq	a0,a5,590 <__nxt_clst+0x78>
     54a:	00e4d783          	lhu	a5,14(s1)
     54e:	9d1d                	subw	a0,a0,a5
     550:	60e2                	ld	ra,24(sp)
     552:	6442                	ld	s0,16(sp)
     554:	64a2                	ld	s1,8(sp)
     556:	6105                	addi	sp,sp,32
     558:	8082                	ret
     55a:	00455503          	lhu	a0,4(a0)
     55e:	0074571b          	srliw	a4,s0,0x7
     562:	1742                	slli	a4,a4,0x30
     564:	9341                	srli	a4,a4,0x30
     566:	20f49c23          	sh	a5,536(s1)
     56a:	01848593          	addi	a1,s1,24
     56e:	9d39                	addw	a0,a0,a4
     570:	7c6000ef          	jal	ra,d36 <__sd_readblk>
     574:	87aa                	mv	a5,a0
     576:	4501                	li	a0,0
     578:	dfe1                	beqz	a5,550 <__nxt_clst+0x38>
     57a:	07f47413          	andi	s0,s0,127
     57e:	0411                	addi	s0,s0,4
     580:	040a                	slli	s0,s0,0x2
     582:	9426                	add	s0,s0,s1
     584:	4408                	lw	a0,8(s0)
     586:	100007b7          	lui	a5,0x10000
     58a:	17fd                	addi	a5,a5,-1 # fffffff <__stack+0xffbffff>
     58c:	faf51fe3          	bne	a0,a5,54a <__nxt_clst+0x32>
     590:	60e2                	ld	ra,24(sp)
     592:	6442                	ld	s0,16(sp)
     594:	64a2                	ld	s1,8(sp)
     596:	557d                	li	a0,-1
     598:	6105                	addi	sp,sp,32
     59a:	8082                	ret

000000000000059c <__get_clst>:
     59c:	715d                	addi	sp,sp,-80
     59e:	e062                	sd	s8,0(sp)
     5a0:	6c41                	lui	s8,0x10
     5a2:	ec56                	sd	s5,24(sp)
     5a4:	1c7d                	addi	s8,s8,-1 # ffff <__data_end+0xe31e>
     5a6:	0095da9b          	srliw	s5,a1,0x9
     5aa:	591c                	lw	a5,48(a0)
     5ac:	018afab3          	and	s5,s5,s8
     5b0:	e85a                	sd	s6,16(sp)
     5b2:	e45e                	sd	s7,8(sp)
     5b4:	e486                	sd	ra,72(sp)
     5b6:	e0a2                	sd	s0,64(sp)
     5b8:	fc26                	sd	s1,56(sp)
     5ba:	f84a                	sd	s2,48(sp)
     5bc:	f44e                	sd	s3,40(sp)
     5be:	f052                	sd	s4,32(sp)
     5c0:	2a81                	sext.w	s5,s5
     5c2:	8baa                	mv	s7,a0
     5c4:	8b2e                	mv	s6,a1
     5c6:	13578863          	beq	a5,s5,6f6 <__get_clst+0x15a>
     5ca:	5954                	lw	a3,52(a0)
     5cc:	100009b7          	lui	s3,0x10000
     5d0:	19fd                	addi	s3,s3,-1 # fffffff <__stack+0xffbffff>
     5d2:	0f56f063          	bgeu	a3,s5,6b2 <__get_clst+0x116>
     5d6:	02069793          	slli	a5,a3,0x20
     5da:	9381                	srli	a5,a5,0x20
     5dc:	20c78793          	addi	a5,a5,524
     5e0:	078a                	slli	a5,a5,0x2
     5e2:	97de                	add	a5,a5,s7
     5e4:	4798                	lw	a4,8(a5)
     5e6:	20000913          	li	s2,512
     5ea:	5a7d                	li	s4,-1
     5ec:	020bb483          	ld	s1,32(s7)
     5f0:	00e4d403          	lhu	s0,14(s1)
     5f4:	2184d683          	lhu	a3,536(s1)
     5f8:	01848593          	addi	a1,s1,24
     5fc:	9c39                	addw	s0,s0,a4
     5fe:	0074551b          	srliw	a0,s0,0x7
     602:	0074579b          	srliw	a5,s0,0x7
     606:	00ac7533          	and	a0,s8,a0
     60a:	00f68a63          	beq	a3,a5,61e <__get_clst+0x82>
     60e:	0044d703          	lhu	a4,4(s1)
     612:	20f49c23          	sh	a5,536(s1)
     616:	9d39                	addw	a0,a0,a4
     618:	71e000ef          	jal	ra,d36 <__sd_readblk>
     61c:	c12d                	beqz	a0,67e <__get_clst+0xe2>
     61e:	07f47413          	andi	s0,s0,127
     622:	0411                	addi	s0,s0,4
     624:	040a                	slli	s0,s0,0x2
     626:	9426                	add	s0,s0,s1
     628:	441c                	lw	a5,8(s0)
     62a:	397d                	addiw	s2,s2,-1
     62c:	1942                	slli	s2,s2,0x30
     62e:	03095913          	srli	s2,s2,0x30
     632:	01378a63          	beq	a5,s3,646 <__get_clst+0xaa>
     636:	00e4d703          	lhu	a4,14(s1)
     63a:	40e7873b          	subw	a4,a5,a4
     63e:	04090863          	beqz	s2,68e <__get_clst+0xf2>
     642:	fb4715e3          	bne	a4,s4,5ec <__get_clst+0x50>
     646:	034ba703          	lw	a4,52(s7)
     64a:	2705                	addiw	a4,a4,1
     64c:	02071793          	slli	a5,a4,0x20
     650:	9381                	srli	a5,a5,0x20
     652:	20c78793          	addi	a5,a5,524
     656:	078a                	slli	a5,a5,0x2
     658:	02ebaa23          	sw	a4,52(s7)
     65c:	9bbe                	add	s7,s7,a5
     65e:	57fd                	li	a5,-1
     660:	00fba423          	sw	a5,8(s7)
     664:	557d                	li	a0,-1
     666:	60a6                	ld	ra,72(sp)
     668:	6406                	ld	s0,64(sp)
     66a:	74e2                	ld	s1,56(sp)
     66c:	7942                	ld	s2,48(sp)
     66e:	79a2                	ld	s3,40(sp)
     670:	7a02                	ld	s4,32(sp)
     672:	6ae2                	ld	s5,24(sp)
     674:	6b42                	ld	s6,16(sp)
     676:	6ba2                	ld	s7,8(sp)
     678:	6c02                	ld	s8,0(sp)
     67a:	6161                	addi	sp,sp,80
     67c:	8082                	ret
     67e:	397d                	addiw	s2,s2,-1
     680:	1942                	slli	s2,s2,0x30
     682:	03095913          	srli	s2,s2,0x30
     686:	0a090563          	beqz	s2,730 <__get_clst+0x194>
     68a:	4701                	li	a4,0
     68c:	b785                	j	5ec <__get_clst+0x50>
     68e:	034ba683          	lw	a3,52(s7)
     692:	55fd                	li	a1,-1
     694:	2685                	addiw	a3,a3,1
     696:	02069613          	slli	a2,a3,0x20
     69a:	9201                	srli	a2,a2,0x20
     69c:	20c60613          	addi	a2,a2,524
     6a0:	060a                	slli	a2,a2,0x2
     6a2:	02dbaa23          	sw	a3,52(s7)
     6a6:	965e                	add	a2,a2,s7
     6a8:	c618                	sw	a4,8(a2)
     6aa:	fab70de3          	beq	a4,a1,664 <__get_clst+0xc8>
     6ae:	f356e4e3          	bltu	a3,s5,5d6 <__get_clst+0x3a>
     6b2:	002a9913          	slli	s2,s5,0x2
     6b6:	995e                	add	s2,s2,s7
     6b8:	6785                	lui	a5,0x1
     6ba:	00f90733          	add	a4,s2,a5
     6be:	83872583          	lw	a1,-1992(a4)
     6c2:	577d                	li	a4,-1
     6c4:	fae580e3          	beq	a1,a4,664 <__get_clst+0xc8>
     6c8:	83878793          	addi	a5,a5,-1992 # 838 <__fopen+0xea>
     6cc:	00fb84b3          	add	s1,s7,a5
     6d0:	02bbac23          	sw	a1,56(s7)
     6d4:	03cb8413          	addi	s0,s7,60
     6d8:	4781                	li	a5,0
     6da:	c78d                	beqz	a5,704 <__get_clst+0x168>
     6dc:	c00c                	sw	a1,0(s0)
     6de:	0411                	addi	s0,s0,4
     6e0:	fe849de3          	bne	s1,s0,6da <__get_clst+0x13e>
     6e4:	035ba823          	sw	s5,48(s7)
     6e8:	57fd                	li	a5,-1
     6ea:	02f59863          	bne	a1,a5,71a <__get_clst+0x17e>
     6ee:	6785                	lui	a5,0x1
     6f0:	993e                	add	s2,s2,a5
     6f2:	82b92e23          	sw	a1,-1988(s2)
     6f6:	1ffb7793          	andi	a5,s6,511
     6fa:	07b1                	addi	a5,a5,12 # 100c <__delay+0x2a>
     6fc:	078a                	slli	a5,a5,0x2
     6fe:	97de                	add	a5,a5,s7
     700:	4788                	lw	a0,8(a5)
     702:	b795                	j	666 <__get_clst+0xca>
     704:	020bb503          	ld	a0,32(s7)
     708:	e11ff0ef          	jal	ra,518 <__nxt_clst>
     70c:	0005059b          	sext.w	a1,a0
     710:	00158793          	addi	a5,a1,1
     714:	0017b793          	seqz	a5,a5
     718:	b7d1                	j	6dc <__get_clst+0x140>
     71a:	020bb503          	ld	a0,32(s7)
     71e:	dfbff0ef          	jal	ra,518 <__nxt_clst>
     722:	6785                	lui	a5,0x1
     724:	0005059b          	sext.w	a1,a0
     728:	993e                	add	s2,s2,a5
     72a:	82b92e23          	sw	a1,-1988(s2)
     72e:	b7e1                	j	6f6 <__get_clst+0x15a>
     730:	034ba683          	lw	a3,52(s7)
     734:	2685                	addiw	a3,a3,1
     736:	02069793          	slli	a5,a3,0x20
     73a:	9381                	srli	a5,a5,0x20
     73c:	20c78793          	addi	a5,a5,524 # 120c <__text_end+0xac>
     740:	078a                	slli	a5,a5,0x2
     742:	02dbaa23          	sw	a3,52(s7)
     746:	97de                	add	a5,a5,s7
     748:	0007a423          	sw	zero,8(a5)
     74c:	b559                	j	5d2 <__get_clst+0x36>

000000000000074e <__fopen>:
     74e:	dc010113          	addi	sp,sp,-576
     752:	22913423          	sd	s1,552(sp)
     756:	22113c23          	sd	ra,568(sp)
     75a:	22813823          	sd	s0,560(sp)
     75e:	23213023          	sd	s2,544(sp)
     762:	21313c23          	sd	s3,536(sp)
     766:	84aa                	mv	s1,a0
     768:	0034                	addi	a3,sp,8
     76a:	4781                	li	a5,0
     76c:	02e00893          	li	a7,46
     770:	4321                	li	t1,8
     772:	a011                	j	776 <__fopen+0x28>
     774:	85b2                	mv	a1,a2
     776:	0005c703          	lbu	a4,0(a1)
     77a:	0017851b          	addiw	a0,a5,1
     77e:	00158613          	addi	a2,a1,1
     782:	fdf77813          	andi	a6,a4,-33
     786:	10070063          	beqz	a4,886 <__fopen+0x138>
     78a:	0f170e63          	beq	a4,a7,886 <__fopen+0x138>
     78e:	03051793          	slli	a5,a0,0x30
     792:	01068023          	sb	a6,0(a3)
     796:	93c1                	srli	a5,a5,0x30
     798:	0685                	addi	a3,a3,1
     79a:	fc679de3          	bne	a5,t1,774 <__fopen+0x26>
     79e:	0015c703          	lbu	a4,1(a1)
     7a2:	85b2                	mv	a1,a2
     7a4:	fd270713          	addi	a4,a4,-46
     7a8:	00173713          	seqz	a4,a4
     7ac:	95ba                	add	a1,a1,a4
     7ae:	4781                	li	a5,0
     7b0:	870a                	mv	a4,sp
     7b2:	450d                	li	a0,3
     7b4:	00f586b3          	add	a3,a1,a5
     7b8:	0006c683          	lbu	a3,0(a3)
     7bc:	fdf6f613          	andi	a2,a3,-33
     7c0:	0e068d63          	beqz	a3,8ba <__fopen+0x16c>
     7c4:	00c70023          	sb	a2,0(a4)
     7c8:	0785                	addi	a5,a5,1
     7ca:	0705                	addi	a4,a4,1
     7cc:	fea794e3          	bne	a5,a0,7b4 <__fopen+0x66>
     7d0:	709c                	ld	a5,32(s1)
     7d2:	080c                	addi	a1,sp,16
     7d4:	0107d503          	lhu	a0,16(a5)
     7d8:	55e000ef          	jal	ra,d36 <__sd_readblk>
     7dc:	c559                	beqz	a0,86a <__fopen+0x11c>
     7de:	0800                	addi	s0,sp,16
     7e0:	21010993          	addi	s3,sp,528
     7e4:	0e500913          	li	s2,229
     7e8:	00044783          	lbu	a5,0(s0)
     7ec:	4621                	li	a2,8
     7ee:	002c                	addi	a1,sp,8
     7f0:	8522                	mv	a0,s0
     7f2:	07278863          	beq	a5,s2,862 <__fopen+0x114>
     7f6:	786000ef          	jal	ra,f7c <__strcmp>
     7fa:	87aa                	mv	a5,a0
     7fc:	2781                	sext.w	a5,a5
     7fe:	460d                	li	a2,3
     800:	00840513          	addi	a0,s0,8
     804:	858a                	mv	a1,sp
     806:	efb1                	bnez	a5,862 <__fopen+0x114>
     808:	774000ef          	jal	ra,f7c <__strcmp>
     80c:	2501                	sext.w	a0,a0
     80e:	e931                	bnez	a0,862 <__fopen+0x114>
     810:	85a2                	mv	a1,s0
     812:	02000613          	li	a2,32
     816:	8526                	mv	a0,s1
     818:	798000ef          	jal	ra,fb0 <__memcpy>
     81c:	7098                	ld	a4,32(s1)
     81e:	0144d783          	lhu	a5,20(s1)
     822:	01a4d583          	lhu	a1,26(s1)
     826:	00e75683          	lhu	a3,14(a4)
     82a:	577d                	li	a4,-1
     82c:	02071613          	slli	a2,a4,0x20
     830:	0107979b          	slliw	a5,a5,0x10
     834:	9301                	srli	a4,a4,0x20
     836:	f898                	sd	a4,48(s1)
     838:	23813083          	ld	ra,568(sp)
     83c:	23013403          	ld	s0,560(sp)
     840:	8fcd                	or	a5,a5,a1
     842:	6705                	lui	a4,0x1
     844:	f490                	sd	a2,40(s1)
     846:	9f95                	subw	a5,a5,a3
     848:	94ba                	add	s1,s1,a4
     84a:	82f4ac23          	sw	a5,-1992(s1)
     84e:	22013903          	ld	s2,544(sp)
     852:	22813483          	ld	s1,552(sp)
     856:	21813983          	ld	s3,536(sp)
     85a:	4505                	li	a0,1
     85c:	24010113          	addi	sp,sp,576
     860:	8082                	ret
     862:	02040413          	addi	s0,s0,32
     866:	f93411e3          	bne	s0,s3,7e8 <__fopen+0x9a>
     86a:	23813083          	ld	ra,568(sp)
     86e:	23013403          	ld	s0,560(sp)
     872:	22813483          	ld	s1,552(sp)
     876:	22013903          	ld	s2,544(sp)
     87a:	21813983          	ld	s3,536(sp)
     87e:	4501                	li	a0,0
     880:	24010113          	addi	sp,sp,576
     884:	8082                	ret
     886:	46a1                	li	a3,8
     888:	9e9d                	subw	a3,a3,a5
     88a:	0030                	addi	a2,sp,8
     88c:	16c2                	slli	a3,a3,0x30
     88e:	97b2                	add	a5,a5,a2
     890:	92c1                	srli	a3,a3,0x30
     892:	02000513          	li	a0,32
     896:	00a78023          	sb	a0,0(a5)
     89a:	fff68613          	addi	a2,a3,-1
     89e:	4811                	li	a6,4
     8a0:	0785                	addi	a5,a5,1
     8a2:	05067663          	bgeu	a2,a6,8ee <__fopen+0x1a0>
     8a6:	4689                	li	a3,2
     8a8:	02d67863          	bgeu	a2,a3,8d8 <__fopen+0x18a>
     8ac:	ee060ce3          	beqz	a2,7a4 <__fopen+0x56>
     8b0:	02000693          	li	a3,32
     8b4:	00d78023          	sb	a3,0(a5)
     8b8:	b5f5                	j	7a4 <__fopen+0x56>
     8ba:	470d                	li	a4,3
     8bc:	9f1d                	subw	a4,a4,a5
     8be:	1742                	slli	a4,a4,0x30
     8c0:	9341                	srli	a4,a4,0x30
     8c2:	4689                	li	a3,2
     8c4:	978a                	add	a5,a5,sp
     8c6:	04d77363          	bgeu	a4,a3,90c <__fopen+0x1be>
     8ca:	f00703e3          	beqz	a4,7d0 <__fopen+0x82>
     8ce:	02000713          	li	a4,32
     8d2:	00e78023          	sb	a4,0(a5)
     8d6:	bded                	j	7d0 <__fopen+0x82>
     8d8:	02000693          	li	a3,32
     8dc:	00d78023          	sb	a3,0(a5)
     8e0:	00d780a3          	sb	a3,1(a5)
     8e4:	1679                	addi	a2,a2,-2
     8e6:	0789                	addi	a5,a5,2
     8e8:	ea060ee3          	beqz	a2,7a4 <__fopen+0x56>
     8ec:	b7d1                	j	8b0 <__fopen+0x162>
     8ee:	00a78023          	sb	a0,0(a5)
     8f2:	00a780a3          	sb	a0,1(a5)
     8f6:	00a78123          	sb	a0,2(a5)
     8fa:	00a781a3          	sb	a0,3(a5)
     8fe:	ffb68613          	addi	a2,a3,-5
     902:	4689                	li	a3,2
     904:	0791                	addi	a5,a5,4
     906:	fad663e3          	bltu	a2,a3,8ac <__fopen+0x15e>
     90a:	b7f9                	j	8d8 <__fopen+0x18a>
     90c:	02000693          	li	a3,32
     910:	00d78023          	sb	a3,0(a5)
     914:	00d780a3          	sb	a3,1(a5)
     918:	1779                	addi	a4,a4,-2 # ffe <__delay+0x1c>
     91a:	0789                	addi	a5,a5,2
     91c:	ea070ae3          	beqz	a4,7d0 <__fopen+0x82>
     920:	b77d                	j	8ce <__fopen+0x180>

0000000000000922 <__fseek>:
     922:	4705                	li	a4,1
     924:	87aa                	mv	a5,a0
     926:	00e60863          	beq	a2,a4,936 <__fseek+0x14>
     92a:	4709                	li	a4,2
     92c:	00e60a63          	beq	a2,a4,940 <__fseek+0x1e>
     930:	4501                	li	a0,0
     932:	c601                	beqz	a2,93a <__fseek+0x18>
     934:	8082                	ret
     936:	5518                	lw	a4,40(a0)
     938:	9db9                	addw	a1,a1,a4
     93a:	d78c                	sw	a1,40(a5)
     93c:	4505                	li	a0,1
     93e:	8082                	ret
     940:	4d58                	lw	a4,28(a0)
     942:	4505                	li	a0,1
     944:	9db9                	addw	a1,a1,a4
     946:	d78c                	sw	a1,40(a5)
     948:	8082                	ret

000000000000094a <__fread>:
     94a:	551c                	lw	a5,40(a0)
     94c:	14060063          	beqz	a2,a8c <__fread+0x142>
     950:	711d                	addi	sp,sp,-96
     952:	fc4e                	sd	s3,56(sp)
     954:	6985                	lui	s3,0x1
     956:	03898993          	addi	s3,s3,56 # 1038 <main+0x1c>
     95a:	e8a2                	sd	s0,80(sp)
     95c:	e4a6                	sd	s1,72(sp)
     95e:	e0ca                	sd	s2,64(sp)
     960:	f852                	sd	s4,48(sp)
     962:	f456                	sd	s5,40(sp)
     964:	ec5e                	sd	s7,24(sp)
     966:	e466                	sd	s9,8(sp)
     968:	ec86                	sd	ra,88(sp)
     96a:	f05a                	sd	s6,32(sp)
     96c:	e862                	sd	s8,16(sp)
     96e:	e06a                	sd	s10,0(sp)
     970:	842a                	mv	s0,a0
     972:	8bb2                	mv	s7,a2
     974:	892e                	mv	s2,a1
     976:	1ff7fc93          	andi	s9,a5,511
     97a:	4481                	li	s1,0
     97c:	1ff00a13          	li	s4,511
     980:	99aa                	add	s3,s3,a0
     982:	20000a93          	li	s5,512
     986:	a889                	j	9d8 <__fread+0x8e>
     988:	060c9163          	bnez	s9,9ea <__fread+0xa0>
     98c:	0ee68763          	beq	a3,a4,a7a <__fread+0x130>
     990:	7018                	ld	a4,32(s0)
     992:	8522                	mv	a0,s0
     994:	01274783          	lbu	a5,18(a4)
     998:	01075b03          	lhu	s6,16(a4)
     99c:	02fc55bb          	divuw	a1,s8,a5
     9a0:	02fc77bb          	remuw	a5,s8,a5
     9a4:	00fb0b3b          	addw	s6,s6,a5
     9a8:	bf5ff0ef          	jal	ra,59c <__get_clst>
     9ac:	701c                	ld	a5,32(s0)
     9ae:	85ca                	mv	a1,s2
     9b0:	0127c783          	lbu	a5,18(a5)
     9b4:	02a7853b          	mulw	a0,a5,a0
     9b8:	0165053b          	addw	a0,a0,s6
     9bc:	37a000ef          	jal	ra,d36 <__sd_readblk>
     9c0:	c561                	beqz	a0,a88 <__fread+0x13e>
     9c2:	541c                	lw	a5,40(s0)
     9c4:	2004849b          	addiw	s1,s1,512
     9c8:	20090913          	addi	s2,s2,512
     9cc:	2007879b          	addiw	a5,a5,512
     9d0:	d41c                	sw	a5,40(s0)
     9d2:	4c81                	li	s9,0
     9d4:	0974f263          	bgeu	s1,s7,a58 <__fread+0x10e>
     9d8:	409b8b3b          	subw	s6,s7,s1
     9dc:	5458                	lw	a4,44(s0)
     9de:	0097dc1b          	srliw	s8,a5,0x9
     9e2:	0097d69b          	srliw	a3,a5,0x9
     9e6:	fb6a61e3          	bltu	s4,s6,988 <__fread+0x3e>
     9ea:	02e68e63          	beq	a3,a4,a26 <__fread+0xdc>
     9ee:	7018                	ld	a4,32(s0)
     9f0:	8522                	mv	a0,s0
     9f2:	01274783          	lbu	a5,18(a4)
     9f6:	01075d03          	lhu	s10,16(a4)
     9fa:	02fc55bb          	divuw	a1,s8,a5
     9fe:	02fc77bb          	remuw	a5,s8,a5
     a02:	00fd0d3b          	addw	s10,s10,a5
     a06:	b97ff0ef          	jal	ra,59c <__get_clst>
     a0a:	701c                	ld	a5,32(s0)
     a0c:	85ce                	mv	a1,s3
     a0e:	0127c783          	lbu	a5,18(a5)
     a12:	02a7853b          	mulw	a0,a5,a0
     a16:	01a5053b          	addw	a0,a0,s10
     a1a:	31c000ef          	jal	ra,d36 <__sd_readblk>
     a1e:	c52d                	beqz	a0,a88 <__fread+0x13e>
     a20:	541c                	lw	a5,40(s0)
     a22:	03842623          	sw	s8,44(s0)
     a26:	1ff7f793          	andi	a5,a5,511
     a2a:	40fa87bb          	subw	a5,s5,a5
     a2e:	9cbd                	addw	s1,s1,a5
     a30:	0574f363          	bgeu	s1,s7,a76 <__fread+0x12c>
     a34:	8b3e                	mv	s6,a5
     a36:	854a                	mv	a0,s2
     a38:	019985b3          	add	a1,s3,s9
     a3c:	865a                	mv	a2,s6
     a3e:	572000ef          	jal	ra,fb0 <__memcpy>
     a42:	541c                	lw	a5,40(s0)
     a44:	020b1713          	slli	a4,s6,0x20
     a48:	9301                	srli	a4,a4,0x20
     a4a:	016787bb          	addw	a5,a5,s6
     a4e:	d41c                	sw	a5,40(s0)
     a50:	993a                	add	s2,s2,a4
     a52:	4c81                	li	s9,0
     a54:	f974e2e3          	bltu	s1,s7,9d8 <__fread+0x8e>
     a58:	4505                	li	a0,1
     a5a:	60e6                	ld	ra,88(sp)
     a5c:	6446                	ld	s0,80(sp)
     a5e:	64a6                	ld	s1,72(sp)
     a60:	6906                	ld	s2,64(sp)
     a62:	79e2                	ld	s3,56(sp)
     a64:	7a42                	ld	s4,48(sp)
     a66:	7aa2                	ld	s5,40(sp)
     a68:	7b02                	ld	s6,32(sp)
     a6a:	6be2                	ld	s7,24(sp)
     a6c:	6c42                	ld	s8,16(sp)
     a6e:	6ca2                	ld	s9,8(sp)
     a70:	6d02                	ld	s10,0(sp)
     a72:	6125                	addi	sp,sp,96
     a74:	8082                	ret
     a76:	84de                	mv	s1,s7
     a78:	bf7d                	j	a36 <__fread+0xec>
     a7a:	20000613          	li	a2,512
     a7e:	85ce                	mv	a1,s3
     a80:	854a                	mv	a0,s2
     a82:	52e000ef          	jal	ra,fb0 <__memcpy>
     a86:	bf35                	j	9c2 <__fread+0x78>
     a88:	4501                	li	a0,0
     a8a:	bfc1                	j	a5a <__fread+0x110>
     a8c:	4505                	li	a0,1
     a8e:	8082                	ret

0000000000000a90 <__dma_cfg>:
     a90:	00a8989b          	slliw	a7,a7,0xa
     a94:	0016969b          	slliw	a3,a3,0x1
     a98:	0047171b          	slliw	a4,a4,0x4
     a9c:	00d8e8b3          	or	a7,a7,a3
     aa0:	00e8e8b3          	or	a7,a7,a4
     aa4:	0067979b          	slliw	a5,a5,0x6
     aa8:	10002737          	lui	a4,0x10002
     aac:	00f8e8b3          	or	a7,a7,a5
     ab0:	0088181b          	slliw	a6,a6,0x8
     ab4:	80a72023          	sw	a0,-2048(a4) # 10001800 <__stack+0xffc1800>
     ab8:	0108e8b3          	or	a7,a7,a6
     abc:	80b72223          	sw	a1,-2044(a4)
     ac0:	0018e893          	ori	a7,a7,1
     ac4:	80c72423          	sw	a2,-2040(a4)
     ac8:	2881                	sext.w	a7,a7
     aca:	81172623          	sw	a7,-2036(a4)
     ace:	8082                	ret

0000000000000ad0 <__dma_busy>:
     ad0:	100027b7          	lui	a5,0x10002
     ad4:	80c7a503          	lw	a0,-2036(a5) # 1000180c <__stack+0xffc180c>
     ad8:	01f5551b          	srliw	a0,a0,0x1f
     adc:	8082                	ret

0000000000000ade <__spi_init>:
     ade:	100027b7          	lui	a5,0x10002
     ae2:	8007a823          	sw	zero,-2032(a5) # 10001810 <__stack+0xffc1810>
     ae6:	4705                	li	a4,1
     ae8:	80e7ac23          	sw	a4,-2024(a5)
     aec:	0007a023          	sw	zero,0(a5)
     af0:	04400793          	li	a5,68
     af4:	e501                	bnez	a0,afc <__spi_init+0x1e>
     af6:	67c1                	lui	a5,0x10
     af8:	04478793          	addi	a5,a5,68 # 10044 <__data_end+0xe363>
     afc:	0035151b          	slliw	a0,a0,0x3
     b00:	03857513          	andi	a0,a0,56
     b04:	8d5d                	or	a0,a0,a5
     b06:	100027b7          	lui	a5,0x10002
     b0a:	c388                	sw	a0,0(a5)
     b0c:	4505                	li	a0,1
     b0e:	8082                	ret

0000000000000b10 <__spi_rwbyte>:
     b10:	10002737          	lui	a4,0x10002
     b14:	471c                	lw	a5,8(a4)
     b16:	8b85                	andi	a5,a5,1
     b18:	dff5                	beqz	a5,b14 <__spi_rwbyte+0x4>
     b1a:	2501                	sext.w	a0,a0
     b1c:	c748                	sw	a0,12(a4)
     b1e:	10002737          	lui	a4,0x10002
     b22:	471c                	lw	a5,8(a4)
     b24:	8b89                	andi	a5,a5,2
     b26:	dff5                	beqz	a5,b22 <__spi_rwbyte+0x12>
     b28:	4748                	lw	a0,12(a4)
     b2a:	0ff57513          	zext.b	a0,a0
     b2e:	8082                	ret

0000000000000b30 <__sd_getresp>:
     b30:	c595                	beqz	a1,b5c <__sd_getresp+0x2c>
     b32:	02059693          	slli	a3,a1,0x20
     b36:	9281                	srli	a3,a3,0x20
     b38:	96aa                	add	a3,a3,a0
     b3a:	10002737          	lui	a4,0x10002
     b3e:	0ff00613          	li	a2,255
     b42:	471c                	lw	a5,8(a4)
     b44:	8b85                	andi	a5,a5,1
     b46:	dff5                	beqz	a5,b42 <__sd_getresp+0x12>
     b48:	c750                	sw	a2,12(a4)
     b4a:	471c                	lw	a5,8(a4)
     b4c:	8b89                	andi	a5,a5,2
     b4e:	dff5                	beqz	a5,b4a <__sd_getresp+0x1a>
     b50:	475c                	lw	a5,12(a4)
     b52:	0505                	addi	a0,a0,1
     b54:	fef50fa3          	sb	a5,-1(a0)
     b58:	fed515e3          	bne	a0,a3,b42 <__sd_getresp+0x12>
     b5c:	4505                	li	a0,1
     b5e:	8082                	ret

0000000000000b60 <__sd_sendcmd>:
     b60:	04056513          	ori	a0,a0,64
     b64:	10002737          	lui	a4,0x10002
     b68:	471c                	lw	a5,8(a4)
     b6a:	8b85                	andi	a5,a5,1
     b6c:	dff5                	beqz	a5,b68 <__sd_sendcmd+0x8>
     b6e:	0005079b          	sext.w	a5,a0
     b72:	c75c                	sw	a5,12(a4)
     b74:	10002737          	lui	a4,0x10002
     b78:	471c                	lw	a5,8(a4)
     b7a:	8b89                	andi	a5,a5,2
     b7c:	dff5                	beqz	a5,b78 <__sd_sendcmd+0x18>
     b7e:	475c                	lw	a5,12(a4)
     b80:	0185d69b          	srliw	a3,a1,0x18
     b84:	10002737          	lui	a4,0x10002
     b88:	471c                	lw	a5,8(a4)
     b8a:	8b85                	andi	a5,a5,1
     b8c:	dff5                	beqz	a5,b88 <_binary_tmp_size+0x7>
     b8e:	c754                	sw	a3,12(a4)
     b90:	10002737          	lui	a4,0x10002
     b94:	471c                	lw	a5,8(a4)
     b96:	8b89                	andi	a5,a5,2
     b98:	dff5                	beqz	a5,b94 <_binary_tmp_size+0x13>
     b9a:	475c                	lw	a5,12(a4)
     b9c:	0105d69b          	srliw	a3,a1,0x10
     ba0:	10002737          	lui	a4,0x10002
     ba4:	471c                	lw	a5,8(a4)
     ba6:	8b85                	andi	a5,a5,1
     ba8:	dff5                	beqz	a5,ba4 <_binary_tmp_size+0x23>
     baa:	0ff6f793          	zext.b	a5,a3
     bae:	c75c                	sw	a5,12(a4)
     bb0:	10002737          	lui	a4,0x10002
     bb4:	471c                	lw	a5,8(a4)
     bb6:	8b89                	andi	a5,a5,2
     bb8:	dff5                	beqz	a5,bb4 <_binary_tmp_size+0x33>
     bba:	475c                	lw	a5,12(a4)
     bbc:	0085d69b          	srliw	a3,a1,0x8
     bc0:	10002737          	lui	a4,0x10002
     bc4:	471c                	lw	a5,8(a4)
     bc6:	8b85                	andi	a5,a5,1
     bc8:	dff5                	beqz	a5,bc4 <_binary_tmp_size+0x43>
     bca:	0ff6f793          	zext.b	a5,a3
     bce:	c75c                	sw	a5,12(a4)
     bd0:	10002737          	lui	a4,0x10002
     bd4:	471c                	lw	a5,8(a4)
     bd6:	8b89                	andi	a5,a5,2
     bd8:	dff5                	beqz	a5,bd4 <_binary_tmp_size+0x53>
     bda:	475c                	lw	a5,12(a4)
     bdc:	10002737          	lui	a4,0x10002
     be0:	471c                	lw	a5,8(a4)
     be2:	8b85                	andi	a5,a5,1
     be4:	dff5                	beqz	a5,be0 <_binary_tmp_size+0x5f>
     be6:	0ff5f593          	zext.b	a1,a1
     bea:	c74c                	sw	a1,12(a4)
     bec:	10002737          	lui	a4,0x10002
     bf0:	471c                	lw	a5,8(a4)
     bf2:	8b89                	andi	a5,a5,2
     bf4:	dff5                	beqz	a5,bf0 <_binary_tmp_size+0x6f>
     bf6:	475c                	lw	a5,12(a4)
     bf8:	00166613          	ori	a2,a2,1
     bfc:	10002737          	lui	a4,0x10002
     c00:	471c                	lw	a5,8(a4)
     c02:	8b85                	andi	a5,a5,1
     c04:	dff5                	beqz	a5,c00 <_binary_tmp_size+0x7f>
     c06:	0006079b          	sext.w	a5,a2
     c0a:	c75c                	sw	a5,12(a4)
     c0c:	10002737          	lui	a4,0x10002
     c10:	471c                	lw	a5,8(a4)
     c12:	8b89                	andi	a5,a5,2
     c14:	dff5                	beqz	a5,c10 <_binary_tmp_size+0x8f>
     c16:	475c                	lw	a5,12(a4)
     c18:	10002737          	lui	a4,0x10002
     c1c:	471c                	lw	a5,8(a4)
     c1e:	8b85                	andi	a5,a5,1
     c20:	dff5                	beqz	a5,c1c <_binary_tmp_size+0x9b>
     c22:	0ff00793          	li	a5,255
     c26:	c75c                	sw	a5,12(a4)
     c28:	10002737          	lui	a4,0x10002
     c2c:	471c                	lw	a5,8(a4)
     c2e:	8b89                	andi	a5,a5,2
     c30:	dff5                	beqz	a5,c2c <_binary_tmp_size+0xab>
     c32:	4748                	lw	a0,12(a4)
     c34:	00857793          	andi	a5,a0,8
     c38:	0ff57513          	zext.b	a0,a0
     c3c:	c79d                	beqz	a5,c6a <_binary_tmp_size+0xe9>
     c3e:	6685                	lui	a3,0x1
     c40:	38868693          	addi	a3,a3,904 # 1388 <__text_end+0x228>
     c44:	10002737          	lui	a4,0x10002
     c48:	0ff00613          	li	a2,255
     c4c:	471c                	lw	a5,8(a4)
     c4e:	8b85                	andi	a5,a5,1
     c50:	dff5                	beqz	a5,c4c <_binary_tmp_size+0xcb>
     c52:	c750                	sw	a2,12(a4)
     c54:	471c                	lw	a5,8(a4)
     c56:	8b89                	andi	a5,a5,2
     c58:	dff5                	beqz	a5,c54 <_binary_tmp_size+0xd3>
     c5a:	4748                	lw	a0,12(a4)
     c5c:	00857793          	andi	a5,a0,8
     c60:	0ff57513          	zext.b	a0,a0
     c64:	c399                	beqz	a5,c6a <_binary_tmp_size+0xe9>
     c66:	36fd                	addiw	a3,a3,-1
     c68:	f2f5                	bnez	a3,c4c <_binary_tmp_size+0xcb>
     c6a:	8082                	ret

0000000000000c6c <__sd_rcvdata>:
     c6c:	10002737          	lui	a4,0x10002
     c70:	435c                	lw	a5,4(a4)
     c72:	6685                	lui	a3,0x1
     c74:	88aa                	mv	a7,a0
     c76:	0047e793          	ori	a5,a5,4
     c7a:	c35c                	sw	a5,4(a4)
     c7c:	38a68693          	addi	a3,a3,906 # 138a <__text_end+0x22a>
     c80:	0ff00593          	li	a1,255
     c84:	0fe00813          	li	a6,254
     c88:	471c                	lw	a5,8(a4)
     c8a:	8b85                	andi	a5,a5,1
     c8c:	dff5                	beqz	a5,c88 <__sd_rcvdata+0x1c>
     c8e:	c74c                	sw	a1,12(a4)
     c90:	471c                	lw	a5,8(a4)
     c92:	8b89                	andi	a5,a5,2
     c94:	dff5                	beqz	a5,c90 <__sd_rcvdata+0x24>
     c96:	4748                	lw	a0,12(a4)
     c98:	36fd                	addiw	a3,a3,-1
     c9a:	0ff57513          	zext.b	a0,a0
     c9e:	caa5                	beqz	a3,d0e <__sd_rcvdata+0xa2>
     ca0:	ff0514e3          	bne	a0,a6,c88 <__sd_rcvdata+0x1c>
     ca4:	57fd                	li	a5,-1
     ca6:	80f72023          	sw	a5,-2048(a4) # 10001800 <__stack+0xffc1800>
     caa:	0008851b          	sext.w	a0,a7
     cae:	80a72223          	sw	a0,-2044(a4)
     cb2:	20000793          	li	a5,512
     cb6:	80f72423          	sw	a5,-2040(a4)
     cba:	6785                	lui	a5,0x1
     cbc:	a6178793          	addi	a5,a5,-1439 # a61 <__fread+0x117>
     cc0:	80f72623          	sw	a5,-2036(a4)
     cc4:	10002737          	lui	a4,0x10002
     cc8:	80c72783          	lw	a5,-2036(a4) # 1000180c <__stack+0xffc180c>
     ccc:	01f7d79b          	srliw	a5,a5,0x1f
     cd0:	ffe5                	bnez	a5,cc8 <__sd_rcvdata+0x5c>
     cd2:	10002737          	lui	a4,0x10002
     cd6:	471c                	lw	a5,8(a4)
     cd8:	8b85                	andi	a5,a5,1
     cda:	dff5                	beqz	a5,cd6 <__sd_rcvdata+0x6a>
     cdc:	0ff00793          	li	a5,255
     ce0:	c75c                	sw	a5,12(a4)
     ce2:	10002737          	lui	a4,0x10002
     ce6:	471c                	lw	a5,8(a4)
     ce8:	8b89                	andi	a5,a5,2
     cea:	dff5                	beqz	a5,ce6 <__sd_rcvdata+0x7a>
     cec:	475c                	lw	a5,12(a4)
     cee:	10002737          	lui	a4,0x10002
     cf2:	471c                	lw	a5,8(a4)
     cf4:	8b85                	andi	a5,a5,1
     cf6:	dff5                	beqz	a5,cf2 <__sd_rcvdata+0x86>
     cf8:	0ff00793          	li	a5,255
     cfc:	c75c                	sw	a5,12(a4)
     cfe:	10002737          	lui	a4,0x10002
     d02:	471c                	lw	a5,8(a4)
     d04:	8b89                	andi	a5,a5,2
     d06:	dff5                	beqz	a5,d02 <__sd_rcvdata+0x96>
     d08:	475c                	lw	a5,12(a4)
     d0a:	e219                	bnez	a2,d10 <__sd_rcvdata+0xa4>
     d0c:	4505                	li	a0,1
     d0e:	8082                	ret
     d10:	435c                	lw	a5,4(a4)
     d12:	100026b7          	lui	a3,0x10002
     d16:	9bed                	andi	a5,a5,-5
     d18:	c35c                	sw	a5,4(a4)
     d1a:	469c                	lw	a5,8(a3)
     d1c:	8b85                	andi	a5,a5,1
     d1e:	dff5                	beqz	a5,d1a <__sd_rcvdata+0xae>
     d20:	0ff00793          	li	a5,255
     d24:	c6dc                	sw	a5,12(a3)
     d26:	10002737          	lui	a4,0x10002
     d2a:	471c                	lw	a5,8(a4)
     d2c:	8b89                	andi	a5,a5,2
     d2e:	dff5                	beqz	a5,d2a <__sd_rcvdata+0xbe>
     d30:	475c                	lw	a5,12(a4)
     d32:	4505                	li	a0,1
     d34:	bfe9                	j	d0e <__sd_rcvdata+0xa2>

0000000000000d36 <__sd_readblk>:
     d36:	100026b7          	lui	a3,0x10002
     d3a:	42dc                	lw	a5,4(a3)
     d3c:	1141                	addi	sp,sp,-16
     d3e:	e022                	sd	s0,0(sp)
     d40:	e406                	sd	ra,8(sp)
     d42:	0047e793          	ori	a5,a5,4
     d46:	842e                	mv	s0,a1
     d48:	c2dc                	sw	a5,4(a3)
     d4a:	85aa                	mv	a1,a0
     d4c:	4601                	li	a2,0
     d4e:	4545                	li	a0,17
     d50:	e11ff0ef          	jal	ra,b60 <__sd_sendcmd>
     d54:	c511                	beqz	a0,d60 <__sd_readblk+0x2a>
     d56:	60a2                	ld	ra,8(sp)
     d58:	6402                	ld	s0,0(sp)
     d5a:	4501                	li	a0,0
     d5c:	0141                	addi	sp,sp,16
     d5e:	8082                	ret
     d60:	8522                	mv	a0,s0
     d62:	6402                	ld	s0,0(sp)
     d64:	60a2                	ld	ra,8(sp)
     d66:	4605                	li	a2,1
     d68:	20000593          	li	a1,512
     d6c:	0141                	addi	sp,sp,16
     d6e:	bdfd                	j	c6c <__sd_rcvdata>

0000000000000d70 <__sd_init>:
     d70:	7139                	addi	sp,sp,-64
     d72:	f822                	sd	s0,48(sp)
     d74:	f426                	sd	s1,40(sp)
     d76:	fc06                	sd	ra,56(sp)
     d78:	100024b7          	lui	s1,0x10002
     d7c:	f04a                	sd	s2,32(sp)
     d7e:	ec4e                	sd	s3,24(sp)
     d80:	8004a823          	sw	zero,-2032(s1) # 10001810 <__stack+0xffc1810>
     d84:	4785                	li	a5,1
     d86:	80f4ac23          	sw	a5,-2024(s1)
     d8a:	0004a023          	sw	zero,0(s1)
     d8e:	07c00793          	li	a5,124
     d92:	c09c                	sw	a5,0(s1)
     d94:	842a                	mv	s0,a0
     d96:	4505                	li	a0,1
     d98:	24a000ef          	jal	ra,fe2 <__delay>
     d9c:	40dc                	lw	a5,4(s1)
     d9e:	46a9                	li	a3,10
     da0:	10002737          	lui	a4,0x10002
     da4:	9bed                	andi	a5,a5,-5
     da6:	c0dc                	sw	a5,4(s1)
     da8:	0ff00613          	li	a2,255
     dac:	471c                	lw	a5,8(a4)
     dae:	8b85                	andi	a5,a5,1
     db0:	dff5                	beqz	a5,dac <__sd_init+0x3c>
     db2:	c750                	sw	a2,12(a4)
     db4:	471c                	lw	a5,8(a4)
     db6:	8b89                	andi	a5,a5,2
     db8:	dff5                	beqz	a5,db4 <__sd_init+0x44>
     dba:	36fd                	addiw	a3,a3,-1 # 10001fff <__stack+0xffc1fff>
     dbc:	475c                	lw	a5,12(a4)
     dbe:	0ff6f693          	zext.b	a3,a3
     dc2:	f6ed                	bnez	a3,dac <__sd_init+0x3c>
     dc4:	435c                	lw	a5,4(a4)
     dc6:	3ea00493          	li	s1,1002
     dca:	4905                	li	s2,1
     dcc:	0047e793          	ori	a5,a5,4
     dd0:	c35c                	sw	a5,4(a4)
     dd2:	09500613          	li	a2,149
     dd6:	4581                	li	a1,0
     dd8:	4501                	li	a0,0
     dda:	34fd                	addiw	s1,s1,-1
     ddc:	d85ff0ef          	jal	ra,b60 <__sd_sendcmd>
     de0:	c8c1                	beqz	s1,e70 <__sd_init+0x100>
     de2:	ff2518e3          	bne	a0,s2,dd2 <__sd_init+0x62>
     de6:	08700613          	li	a2,135
     dea:	1aa00593          	li	a1,426
     dee:	4521                	li	a0,8
     df0:	d71ff0ef          	jal	ra,b60 <__sd_sendcmd>
     df4:	4795                	li	a5,5
     df6:	04f50763          	beq	a0,a5,e44 <__sd_init+0xd4>
     dfa:	09250363          	beq	a0,s2,e80 <__sd_init+0x110>
     dfe:	100027b7          	lui	a5,0x10002
     e02:	8007a823          	sw	zero,-2032(a5) # 10001810 <__stack+0xffc1810>
     e06:	4705                	li	a4,1
     e08:	80e7ac23          	sw	a4,-2024(a5)
     e0c:	6741                	lui	a4,0x10
     e0e:	0007a023          	sw	zero,0(a5)
     e12:	04470713          	addi	a4,a4,68 # 10044 <__data_end+0xe363>
     e16:	09500613          	li	a2,149
     e1a:	4581                	li	a1,0
     e1c:	c398                	sw	a4,0(a5)
     e1e:	03b00513          	li	a0,59
     e22:	d3fff0ef          	jal	ra,b60 <__sd_sendcmd>
     e26:	09500613          	li	a2,149
     e2a:	20000593          	li	a1,512
     e2e:	4541                	li	a0,16
     e30:	d31ff0ef          	jal	ra,b60 <__sd_sendcmd>
     e34:	70e2                	ld	ra,56(sp)
     e36:	7442                	ld	s0,48(sp)
     e38:	74a2                	ld	s1,40(sp)
     e3a:	7902                	ld	s2,32(sp)
     e3c:	69e2                	ld	s3,24(sp)
     e3e:	4509                	li	a0,2
     e40:	6121                	addi	sp,sp,64
     e42:	8082                	ret
     e44:	0034                	addi	a3,sp,8
     e46:	006c                	addi	a1,sp,12
     e48:	10002737          	lui	a4,0x10002
     e4c:	0ff00613          	li	a2,255
     e50:	471c                	lw	a5,8(a4)
     e52:	8b85                	andi	a5,a5,1
     e54:	dff5                	beqz	a5,e50 <__sd_init+0xe0>
     e56:	c750                	sw	a2,12(a4)
     e58:	471c                	lw	a5,8(a4)
     e5a:	8b89                	andi	a5,a5,2
     e5c:	dff5                	beqz	a5,e58 <__sd_init+0xe8>
     e5e:	475c                	lw	a5,12(a4)
     e60:	0685                	addi	a3,a3,1
     e62:	fef68fa3          	sb	a5,-1(a3)
     e66:	fed595e3          	bne	a1,a3,e50 <__sd_init+0xe0>
     e6a:	00040023          	sb	zero,0(s0)
     e6e:	bf41                	j	dfe <__sd_init+0x8e>
     e70:	70e2                	ld	ra,56(sp)
     e72:	7442                	ld	s0,48(sp)
     e74:	74a2                	ld	s1,40(sp)
     e76:	7902                	ld	s2,32(sp)
     e78:	69e2                	ld	s3,24(sp)
     e7a:	4505                	li	a0,1
     e7c:	6121                	addi	sp,sp,64
     e7e:	8082                	ret
     e80:	0024                	addi	s1,sp,8
     e82:	00c10913          	addi	s2,sp,12
     e86:	86a6                	mv	a3,s1
     e88:	10002737          	lui	a4,0x10002
     e8c:	0ff00613          	li	a2,255
     e90:	471c                	lw	a5,8(a4)
     e92:	8b85                	andi	a5,a5,1
     e94:	dff5                	beqz	a5,e90 <__sd_init+0x120>
     e96:	c750                	sw	a2,12(a4)
     e98:	471c                	lw	a5,8(a4)
     e9a:	8b89                	andi	a5,a5,2
     e9c:	dff5                	beqz	a5,e98 <__sd_init+0x128>
     e9e:	475c                	lw	a5,12(a4)
     ea0:	0685                	addi	a3,a3,1
     ea2:	fef68fa3          	sb	a5,-1(a3)
     ea6:	ff2695e3          	bne	a3,s2,e90 <__sd_init+0x120>
     eaa:	3e900993          	li	s3,1001
     eae:	4601                	li	a2,0
     eb0:	4581                	li	a1,0
     eb2:	03700513          	li	a0,55
     eb6:	cabff0ef          	jal	ra,b60 <__sd_sendcmd>
     eba:	4601                	li	a2,0
     ebc:	400005b7          	lui	a1,0x40000
     ec0:	02900513          	li	a0,41
     ec4:	39fd                	addiw	s3,s3,-1
     ec6:	c9bff0ef          	jal	ra,b60 <__sd_sendcmd>
     eca:	00098363          	beqz	s3,ed0 <__sd_init+0x160>
     ece:	f165                	bnez	a0,eae <__sd_init+0x13e>
     ed0:	3e900993          	li	s3,1001
     ed4:	4601                	li	a2,0
     ed6:	4581                	li	a1,0
     ed8:	03a00513          	li	a0,58
     edc:	39fd                	addiw	s3,s3,-1
     ede:	c83ff0ef          	jal	ra,b60 <__sd_sendcmd>
     ee2:	00098363          	beqz	s3,ee8 <__sd_init+0x178>
     ee6:	f57d                	bnez	a0,ed4 <__sd_init+0x164>
     ee8:	10002737          	lui	a4,0x10002
     eec:	0ff00693          	li	a3,255
     ef0:	471c                	lw	a5,8(a4)
     ef2:	8b85                	andi	a5,a5,1
     ef4:	dff5                	beqz	a5,ef0 <__sd_init+0x180>
     ef6:	c754                	sw	a3,12(a4)
     ef8:	471c                	lw	a5,8(a4)
     efa:	8b89                	andi	a5,a5,2
     efc:	dff5                	beqz	a5,ef8 <__sd_init+0x188>
     efe:	475c                	lw	a5,12(a4)
     f00:	0485                	addi	s1,s1,1
     f02:	fef48fa3          	sb	a5,-1(s1)
     f06:	ff2495e3          	bne	s1,s2,ef0 <__sd_init+0x180>
     f0a:	00814783          	lbu	a5,8(sp)
     f0e:	0407f793          	andi	a5,a5,64
     f12:	00f037b3          	snez	a5,a5
     f16:	0789                	addi	a5,a5,2
     f18:	00f40023          	sb	a5,0(s0)
     f1c:	b5cd                	j	dfe <__sd_init+0x8e>

0000000000000f1e <__uart_init>:
     f1e:	100007b7          	lui	a5,0x10000
     f22:	4705                	li	a4,1
     f24:	c798                	sw	a4,8(a5)
     f26:	c7d8                	sw	a4,12(a5)
     f28:	0007a823          	sw	zero,16(a5) # 10000010 <__stack+0xffc0010>
     f2c:	10000737          	lui	a4,0x10000
     f30:	435c                	lw	a5,4(a4)
     f32:	fef04fe3          	bgtz	a5,f30 <__uart_init+0x12>
     f36:	8082                	ret

0000000000000f38 <__putch>:
     f38:	10000737          	lui	a4,0x10000
     f3c:	40a727af          	amoor.w	a5,a0,(a4)
     f40:	2781                	sext.w	a5,a5
     f42:	fe07cde3          	bltz	a5,f3c <__putch+0x4>
     f46:	8082                	ret

0000000000000f48 <__puts>:
     f48:	00054683          	lbu	a3,0(a0)
     f4c:	862a                	mv	a2,a0
     f4e:	4501                	li	a0,0
     f50:	ce89                	beqz	a3,f6a <__puts+0x22>
     f52:	10000737          	lui	a4,0x10000
     f56:	0605                	addi	a2,a2,1
     f58:	40d727af          	amoor.w	a5,a3,(a4)
     f5c:	2781                	sext.w	a5,a5
     f5e:	fe07cde3          	bltz	a5,f58 <__puts+0x10>
     f62:	00064683          	lbu	a3,0(a2)
     f66:	2505                	addiw	a0,a0,1
     f68:	f6fd                	bnez	a3,f56 <__puts+0xe>
     f6a:	10000737          	lui	a4,0x10000
     f6e:	46a9                	li	a3,10
     f70:	40d727af          	amoor.w	a5,a3,(a4)
     f74:	2781                	sext.w	a5,a5
     f76:	fe07cde3          	bltz	a5,f70 <__puts+0x28>
     f7a:	8082                	ret

0000000000000f7c <__strcmp>:
     f7c:	fff6069b          	addiw	a3,a2,-1
     f80:	c605                	beqz	a2,fa8 <__strcmp+0x2c>
     f82:	1682                	slli	a3,a3,0x20
     f84:	9281                	srli	a3,a3,0x20
     f86:	0685                	addi	a3,a3,1
     f88:	96aa                	add	a3,a3,a0
     f8a:	a029                	j	f94 <__strcmp+0x18>
     f8c:	02e7e063          	bltu	a5,a4,fac <__strcmp+0x30>
     f90:	00d50c63          	beq	a0,a3,fa8 <__strcmp+0x2c>
     f94:	00054703          	lbu	a4,0(a0)
     f98:	0005c783          	lbu	a5,0(a1) # 40000000 <__stack+0x3ffc0000>
     f9c:	0505                	addi	a0,a0,1
     f9e:	0585                	addi	a1,a1,1
     fa0:	fef776e3          	bgeu	a4,a5,f8c <__strcmp+0x10>
     fa4:	557d                	li	a0,-1
     fa6:	8082                	ret
     fa8:	4501                	li	a0,0
     faa:	8082                	ret
     fac:	4505                	li	a0,1
     fae:	8082                	ret

0000000000000fb0 <__memcpy>:
     fb0:	1141                	addi	sp,sp,-16
     fb2:	832e                	mv	t1,a1
     fb4:	e022                	sd	s0,0(sp)
     fb6:	0005059b          	sext.w	a1,a0
     fba:	842a                	mv	s0,a0
     fbc:	4889                	li	a7,2
     fbe:	4809                	li	a6,2
     fc0:	4785                	li	a5,1
     fc2:	4705                	li	a4,1
     fc4:	4685                	li	a3,1
     fc6:	0003051b          	sext.w	a0,t1
     fca:	e406                	sd	ra,8(sp)
     fcc:	ac5ff0ef          	jal	ra,a90 <__dma_cfg>
     fd0:	b01ff0ef          	jal	ra,ad0 <__dma_busy>
     fd4:	2501                	sext.w	a0,a0
     fd6:	fd6d                	bnez	a0,fd0 <__memcpy+0x20>
     fd8:	60a2                	ld	ra,8(sp)
     fda:	8522                	mv	a0,s0
     fdc:	6402                	ld	s0,0(sp)
     fde:	0141                	addi	sp,sp,16
     fe0:	8082                	ret

0000000000000fe2 <__delay>:
     fe2:	000f47b7          	lui	a5,0xf4
     fe6:	2407879b          	addiw	a5,a5,576 # f4240 <__stack+0xb4240>
     fea:	02a787bb          	mulw	a5,a5,a0
     fee:	3e800613          	li	a2,1000
     ff2:	0800c737          	lui	a4,0x800c
     ff6:	ff873683          	ld	a3,-8(a4) # 800bff8 <__stack+0x7fcbff8>
     ffa:	08000713          	li	a4,128
     ffe:	02c7d7bb          	divuw	a5,a5,a2
    1002:	1782                	slli	a5,a5,0x20
    1004:	9381                	srli	a5,a5,0x20
    1006:	97b6                	add	a5,a5,a3
    1008:	080046b7          	lui	a3,0x8004
    100c:	e29c                	sd	a5,0(a3)
    100e:	30472073          	csrs	mie,a4
    1012:	10500073          	wfi
    1016:	30473073          	csrc	mie,a4
    101a:	8082                	ret

000000000000101c <main>:
    101c:	b8010113          	addi	sp,sp,-1152
    1020:	46813823          	sd	s0,1136(sp)
    1024:	47213023          	sd	s2,1120(sp)
    1028:	747d                	lui	s0,0xfffff
    102a:	6905                	lui	s2,0x1
    102c:	72fd                	lui	t0,0xfffff
    102e:	46913423          	sd	s1,1128(sp)
    1032:	46090793          	addi	a5,s2,1120 # 1460 <__text_end+0x300>
    1036:	ba840493          	addi	s1,s0,-1112 # ffffffffffffeba8 <__stack+0xfffffffffffbeba8>
    103a:	46113c23          	sd	ra,1144(sp)
    103e:	97a6                	add	a5,a5,s1
    1040:	9116                	add	sp,sp,t0
    1042:	002784b3          	add	s1,a5,sp
    1046:	577d                	li	a4,-1
    1048:	0c0017b7          	lui	a5,0xc001
    104c:	24913423          	sd	s1,584(sp)
    1050:	08e7a023          	sw	a4,128(a5) # c001080 <__stack+0xbfc1080>
    1054:	ecbff0ef          	jal	ra,f1e <__uart_init>
    1058:	00001517          	auipc	a0,0x1
    105c:	cc050513          	addi	a0,a0,-832 # 1d18 <__data_end+0x37>
    1060:	ee9ff0ef          	jal	ra,f48 <__puts>
    1064:	00001517          	auipc	a0,0x1
    1068:	ccc50513          	addi	a0,a0,-820 # 1d30 <__data_end+0x4f>
    106c:	eddff0ef          	jal	ra,f48 <__puts>
    1070:	ba740513          	addi	a0,s0,-1113
    1074:	46090793          	addi	a5,s2,1120
    1078:	97aa                	add	a5,a5,a0
    107a:	00278533          	add	a0,a5,sp
    107e:	cf3ff0ef          	jal	ra,d70 <__sd_init>
    1082:	00001517          	auipc	a0,0x1
    1086:	cc650513          	addi	a0,a0,-826 # 1d48 <__data_end+0x67>
    108a:	ebfff0ef          	jal	ra,f48 <__puts>
    108e:	8526                	mv	a0,s1
    1090:	a06ff0ef          	jal	ra,296 <__fat_bpb_init>
    1094:	040004b7          	lui	s1,0x4000
    1098:	489c                	lw	a5,16(s1)
    109a:	c3c9                	beqz	a5,111c <main+0x100>
    109c:	00001517          	auipc	a0,0x1
    10a0:	cec50513          	addi	a0,a0,-788 # 1d88 <__data_end+0xa7>
    10a4:	ea5ff0ef          	jal	ra,f48 <__puts>
    10a8:	747d                	lui	s0,0xfffff
    10aa:	6785                	lui	a5,0x1
    10ac:	dc840413          	addi	s0,s0,-568 # ffffffffffffedc8 <__stack+0xfffffffffffbedc8>
    10b0:	46078793          	addi	a5,a5,1120 # 1460 <__text_end+0x300>
    10b4:	97a2                	add	a5,a5,s0
    10b6:	00278433          	add	s0,a5,sp
    10ba:	00001597          	auipc	a1,0x1
    10be:	cde58593          	addi	a1,a1,-802 # 1d98 <__data_end+0xb7>
    10c2:	8522                	mv	a0,s0
    10c4:	e8aff0ef          	jal	ra,74e <__fopen>
    10c8:	8522                	mv	a0,s0
    10ca:	9c8ff0ef          	jal	ra,292 <__elf_loader>
    10ce:	00001517          	auipc	a0,0x1
    10d2:	cda50513          	addi	a0,a0,-806 # 1da8 <__data_end+0xc7>
    10d6:	e73ff0ef          	jal	ra,f48 <__puts>
    10da:	00001597          	auipc	a1,0x1
    10de:	ce658593          	addi	a1,a1,-794 # 1dc0 <__data_end+0xdf>
    10e2:	8522                	mv	a0,s0
    10e4:	e6aff0ef          	jal	ra,74e <__fopen>
    10e8:	40100593          	li	a1,1025
    10ec:	05d6                	slli	a1,a1,0x15
    10ee:	8522                	mv	a0,s0
    10f0:	874ff0ef          	jal	ra,164 <__elf_loader_reloc>
    10f4:	00001517          	auipc	a0,0x1
    10f8:	cd450513          	addi	a0,a0,-812 # 1dc8 <__data_end+0xe7>
    10fc:	e4dff0ef          	jal	ra,f48 <__puts>
    1100:	6285                	lui	t0,0x1
    1102:	9116                	add	sp,sp,t0
    1104:	47813083          	ld	ra,1144(sp)
    1108:	47013403          	ld	s0,1136(sp)
    110c:	46813483          	ld	s1,1128(sp)
    1110:	46013903          	ld	s2,1120(sp)
    1114:	4501                	li	a0,0
    1116:	48010113          	addi	sp,sp,1152
    111a:	8082                	ret
    111c:	00001517          	auipc	a0,0x1
    1120:	c4450513          	addi	a0,a0,-956 # 1d60 <__data_end+0x7f>
    1124:	e25ff0ef          	jal	ra,f48 <__puts>
    1128:	6785                	lui	a5,0x1
    112a:	dc840413          	addi	s0,s0,-568
    112e:	46078793          	addi	a5,a5,1120 # 1460 <__text_end+0x300>
    1132:	97a2                	add	a5,a5,s0
    1134:	00278433          	add	s0,a5,sp
    1138:	00001597          	auipc	a1,0x1
    113c:	c4058593          	addi	a1,a1,-960 # 1d78 <__data_end+0x97>
    1140:	8522                	mv	a0,s0
    1142:	e0cff0ef          	jal	ra,74e <__fopen>
    1146:	24412603          	lw	a2,580(sp)
    114a:	45a5                	li	a1,9
    114c:	05f2                	slli	a1,a1,0x1c
    114e:	8522                	mv	a0,s0
    1150:	ffaff0ef          	jal	ra,94a <__fread>
    1154:	cafed7b7          	lui	a5,0xcafed
    1158:	afe78793          	addi	a5,a5,-1282 # ffffffffcafecafe <__stack+0xffffffffcafacafe>
    115c:	c89c                	sw	a5,16(s1)
    115e:	bf3d                	j	109c <main+0x80>
