
main:     file format elf64-littleriscv
main
architecture: riscv:rv64, flags 0x00000112:
EXEC_P, HAS_SYMS, D_PAGED
start address 0x0000000000000000

Program Header:
0x70000003 off    0x0000000000002ca5 vaddr 0x0000000000000000 paddr 0x0000000000000000 align 2**0
         filesz 0x0000000000000044 memsz 0x0000000000000000 flags r--
    LOAD off    0x0000000000001000 vaddr 0x0000000000000000 paddr 0x0000000000000000 align 2**12
         filesz 0x0000000000001c8a memsz 0x0000000000001c8a flags rwx
    LOAD off    0x0000000000000000 vaddr 0x0000000000020000 paddr 0x0000000000020000 align 2**12
         filesz 0x0000000000000000 memsz 0x0000000000020000 flags rw-

Sections:
Idx Name          Size      VMA               LMA               File off  Algn
  0 .text         0000112c  0000000000000000  0000000000000000  00001000  2**3
                  CONTENTS, ALLOC, LOAD, READONLY, CODE
  1 .data         00000a5d  0000000000001130  0000000000001130  00002130  2**3
                  CONTENTS, ALLOC, LOAD, DATA
  2 .rodata.str1.8 000000fa  0000000000001b90  0000000000001b90  00002b90  2**3
                  CONTENTS, ALLOC, LOAD, READONLY, DATA
  3 .stack        00020000  0000000000020000  0000000000020000  00003000  2**0
                  ALLOC
  4 .comment      0000001b  0000000000000000  0000000000000000  00002c8a  2**0
                  CONTENTS, READONLY
  5 .riscv.attributes 00000044  0000000000000000  0000000000000000  00002ca5  2**0
                  CONTENTS, READONLY
SYMBOL TABLE:
0000000000000000 l    d  .text	0000000000000000 .text
0000000000001130 l    d  .data	0000000000000000 .data
0000000000001b90 l    d  .rodata.str1.8	0000000000000000 .rodata.str1.8
0000000000020000 l    d  .stack	0000000000000000 .stack
0000000000000000 l    d  .comment	0000000000000000 .comment
0000000000000000 l    d  .riscv.attributes	0000000000000000 .riscv.attributes
0000000000000000 l    df *ABS*	0000000000000000 setup.o
000000000000003e l       .text	0000000000000000 fill_stack
00000000000000dc l       .text	0000000000000000 fill_block
0000000000000054 l       .text	0000000000000000 init_stack
000000000000005c l       .text	0000000000000000 init_system
0000000000000098 l       .text	0000000000000000 rv64
00000000000000e8 l       .text	0000000000000000 sysram_base
00000000000000f0 l       .text	0000000000000000 sysram_size
00000000000000cc l       .text	0000000000000000 goto_main
00000000000000da l       .text	0000000000000000 dead_loop
00000000000000e6 l       .text	0000000000000000 fb_end
0000000000000000 l    df *ABS*	0000000000000000 main.c
0000000000000000 l    df *ABS*	0000000000000000 elf_loader.c
0000000000000000 l    df *ABS*	0000000000000000 iolib.c
0000000000000000 l    df *ABS*	0000000000000000 spi.c
0000000000000000 l    df *ABS*	0000000000000000 uart.c
0000000000000000 l    df *ABS*	0000000000000000 util.c
0000000000000f24 g     F .text	0000000000000034 .hidden __puts
0000000000000a5d g       *ABS*	0000000000000000 _binary_tmp_size
0000000000000a8c g     F .text	000000000000000e .hidden __dma_busy
0000000000000a9a g     F .text	000000000000001a .hidden __spi_init
0000000000001130 g       *ABS*	0000000000000000 __data_paddr_start
0000000000000fb8 g     F .text	000000000000003a .hidden __delay
0000000000000000 g       .text	0000000000000000 __text_start
000000000000090e g     F .text	0000000000000146 .hidden __fread
0000000000000d1c g     F .text	00000000000001de .hidden __sd_init
0000000000000536 g     F .text	0000000000000210 .hidden __get_clst
0000000000000ce2 g     F .text	000000000000003a .hidden __sd_readblk
0000000000000f58 g     F .text	0000000000000030 .hidden __strcmp
00000000000004b2 g     F .text	0000000000000084 .hidden __nxt_clst
0000000000000000 g       .text	0000000000000000 _start
000000000000021c g     F .text	0000000000000004 .hidden __elf_loader
0000000000001130 g       .data	0000000000000000 _binary_tmp_start
0000000000000220 g     F .text	0000000000000292 .hidden __fat_bpb_init
0000000000001130 g       .data	0000000000000000 _DTB
0000000000001b8d g       .data	0000000000000000 __data_end
00000000000000f8 g     F .text	0000000000000124 .hidden __elf_loader_reloc
0000000000000a54 g     F .text	0000000000000038 .hidden __dma_cfg
0000000000000b0a g     F .text	000000000000010c .hidden __sd_sendcmd
0000000000000f88 g     F .text	0000000000000030 .hidden __memcpy
000000000000112c g       .text	0000000000000000 __text_end
0000000000000ff2 g     F .text	000000000000013a .hidden main
0000000000000efa g     F .text	000000000000001a .hidden __uart_init
000000000003f000 g       .stack	0000000000000000 _stack_end
0000000000000f14 g     F .text	0000000000000010 .hidden __putch
0000000000000ab4 g     F .text	0000000000000020 .hidden __spi_rwbyte
0000000000040000 g       .stack	0000000000000000 __stack
0000000000001b8d g       .data	0000000000000000 _binary_tmp_end
0000000000000746 g     F .text	000000000000019a .hidden __fopen
0000000000000c16 g     F .text	00000000000000cc .hidden __sd_rcvdata
0000000000040000 g       .stack	0000000000000000 _stack
0000000000001130 g       .data	0000000000000000 __data_start
0000000000000ad4 g     F .text	0000000000000036 .hidden __sd_getresp
00000000000008e0 g     F .text	000000000000002e .hidden __fseek


Contents of section .text:
 0000 81400141 81410142 81420143 81430144  .@.A.A.B.B.C.C.D
 0010 81440145 81450146 81460147 81470148  .D.E.E.F.F.G.G.H
 0020 81480149 8149014a 814a014b 814b014c  .H.I.I.J.J.K.K.L
 0030 814c014d 814d014e 814e014f 814f17f5  .L.M.M.N.N.O.O..
 0040 03001305 25fc9705 04009385 65fb0146  ....%.......e..F
 0050 ef00c008 17010400 1301c1fa f3221030  .............".0
 0060 63cc0202 b702001a 7390323c 97020000  c.......s.2<....
 0070 83a2c207 17030000 0323c307 7d131353  .........#..}..S
 0080 1300b3e2 620093d2 22007390 f23d1704  ....b...".s..=..
 0090 00000324 a4051da8 9b02d000 e6127390  ...$..........s.
 00a0 223c9702 000083b2 62041703 00000333  "<......b......3
 00b0 63047d13 13531300 b3e26200 93d22200  c.}..S....b...".
 00c0 7390f23d 17040000 03344402 732540f1  s..=.....4D.s%@.
 00d0 97150000 93850506 028401a0 63e5a500  ............c...
 00e0 10c11105 e5bf8280 00000200 00000000  ................
 00f0 00000200 00000000 130101dc 233c3121  ............#<1!
 0100 0146ae89 8145233c 11222334 91222338  .F...E#<."#4."#8
 0110 4121aa84 23388122 23302123 23345121  A!..#8."#0!##4Q!
 0120 23306121 ef00c07b 13060004 8a852685  #0a!...{......&.
 0130 ef00e07d 035a8103 630a0a0a 814a214b  ...}.Z..c....J!K
 0140 bb075a41 6368fb0c 1b143a00 3b044441  ..ZAch....:.;.DA
 0150 1b143400 82759b97 3a00bb87 57419b97  ..4..u..:...WA..
 0160 3700bd9d 01462685 ef008077 22868c00  7....F&....w"...
 0170 2685ef00 c0799b07 faff8217 81931399  &....y..........
 0180 37003309 f9400e09 bc188000 3e9929a0  7.3..@......>.).
 0190 13048403 63068904 0c440146 2685ef00  ....c....D.F&...
 01a0 20740c6c 10502685 ce95ef00 40761070   t.l.P&.....@v.p
 01b0 0874e37f a6fc0c6c 09488947 b2950547  .t.....l.H.G...G
 01c0 3b06c540 8d46bb85 35010145 ef009008  ;..@.F..5..E....
 01d0 ef00d00b 01256dfd 13048403 e31e89fa  .....%m.........
 01e0 bb0a5a01 035a8103 e3ec4af5 83308123  ..Z..Z....J..0.#
 01f0 03340123 62658334 81220339 01228339  .4.#be.4.".9.".9
 0200 8121033a 0121833a 8120033b 01201301  .!.:.!.:. .;. ..
 0210 01248280 1304001c 214a2dbf 8145e9bd  .$......!J-..E..
 0220 130101dd 23308122 8a852a84 01452334  ....#0."..*..E#4
 0230 1122233c 91202338 21212334 3121ef00  ."#<. #8!!#41!..
 0240 502a01c9 0359e11f ad679387 57a56300  P*...Y...g..W.c.
 0250 f9028330 81220334 01228334 81210339  ...0.".4.".4.!.9
 0260 01218339 81200145 13010123 82802146  .!.9. .E...#..!F
 0270 97250000 93850592 13056103 ef00d04d  .%........a....M
 0280 9b040500 cde88347 c1000347 b1008345  .......G...G...E
 0290 d100a207 d98f0d47 230ae400 2310f400  .......G#...#...
 02a0 2309b400 81490358 61010345 01010356  #....I.Xa..E...V
 02b0 e1008346 21013b07 05033b06 36018347  ...F!.;...;.6..G
 02c0 11014216 4192a206 dd8e9bd7 46002311  ..B.A.......F.#.
 02d0 0401a309 a400319f 42174193 b99fc217  ......1.B.A.....
 02e0 2312c400 2313e400 2316d400 c1938256  #...#...#......V
 02f0 2317e400 2318f400 99e68346 41010347  #...#......FA..G
 0300 3101a206 d98ebb87 f440b59f bbd7b702  1........@......
 0310 7d578330 8122231c e4208334 81210339  }W.0."#.. .4.!.9
 0320 01218339 81200545 89271cc4 03340122  .!.9. .E.'...4."
 0330 13010123 82802146 97250000 93858586  ...#..!F.%......
 0340 13056103 ef005041 9b040500 95e08347  ..a...PA.......G
 0350 c1000347 b1008345 d100a207 d98f1147  ...G...E.......G
 0360 230ae400 2310f400 2309b400 814925bf  #...#...#....I%.
 0370 21469725 00009385 e5831305 2105ef00  !F.%........!...
 0380 b03d9b04 0500bde0 8347c100 0347b100  .=.......G...G..
 0390 8345d100 a207d98f 1547230a e4002310  .E.......G#...#.
 03a0 f4002309 b4008149 03584102 03450101  ..#....I.XA..E..
 03b0 8356e100 03462101 bb070503 bb863601  .V...F!.......6.
 03c0 c2160347 1101c192 2206598e 23110401  ...G....".Y.#...
 03d0 0357c102 a309a400 b59fc217 c1932312  .W............#.
 03e0 d4002313 f4002316 c40011b7 8359611c  ..#...#......Ya.
 03f0 8a859b84 09002685 ef00b00e e30b05e4  ......&.........
 0400 8357e11f e39727e5 21469715 00009385  .W....'.!F......
 0410 65781305 6103ef00 30349b07 05008de3  ex..a...04......
 0420 8347c100 0347b100 8345d100 a207d98f  .G...G...E......
 0430 0d47230a e4002310 f4002309 b400a5b5  .G#...#...#.....
 0440 21469715 00009385 e5751305 6103ef00  !F.......u..a...
 0450 b0309b07 05008de3 8347c100 0347b100  .0.......G...G..
 0460 8345d100 a207d98f 1147230a e4002310  .E.......G#...#.
 0470 f4002309 b40005bd 21469715 00009385  ..#.....!F......
 0480 65731305 2105ef00 302d9b07 0500e392  es..!...0-......
 0490 07dc8347 c1000347 b1008345 d100a207  ...G...G...E....
 04a0 d98f1547 230ae400 2310f400 2309b400  ...G#...#...#...
 04b0 e5bd0111 22e80354 e5008356 852126e4  ...."..T...V.!&.
 04c0 2d9c06ec 9b577400 aa846395 f6021374  -....Wt...c....t
 04d0 f4071104 0a042694 0844b707 0010fd17  ......&..D......
 04e0 6305f504 83d7e400 1d9de260 4264a264  c..........`Bd.d
 04f0 05618280 03554500 1b577400 42174193  .a...UE..Wt.B.A.
 0500 239cf420 93858401 399def00 807daa87  #.. ....9....}..
 0510 0145e1df 1374f407 11040a04 26940844  .E...t......&..D
 0520 b7070010 fd17e31f f5fae260 4264a264  ...........`Bd.d
 0530 7d550561 82801d71 66e4c16c 56f4fd1c  }U.a...qf..lV...
 0540 9bda9500 1c59b3fa 9a015af0 62e886ec  .....Y....Z.b...
 0550 a2e8a6e4 cae04efc 52f85eec 812a2a8c  ......N.R.^..**.
 0560 2e8b6385 57175859 37090010 93090020  ..c.W.XY7...... 
 0570 7d19637c 570d9317 07028193 9387c720  }.c|W.......... 
 0580 8a07e297 9c47854b 7d5a8334 0c0203d4  .....G.K}Z.4....
 0590 e40003d7 84219385 84013d9c 1b557400  .....!....=..Ut.
 05a0 9b577400 33f5ac00 630af700 03d74400  .Wt.3...c.....D.
 05b0 239cf420 399def00 c07221cd 1374f407  #.. 9....r!..t..
 05c0 11040a04 26941c44 1b871b00 638e2701  ....&..D....c.'.
 05d0 83d6e400 959f6388 3b05931b 070393db  ......c.;.......
 05e0 0b03e394 47fb31a0 93070020 638efb10  ....G.1.... c...
 05f0 fd578326 4c038526 13970602 01931307  .W.&L..&........
 0600 c7200a07 232adc02 3a9c2324 fc007d55  . ..#*..:.#$..}U
 0610 e1a09b87 1b006389 3b11939b 070393db  ......c.;.......
 0620 0b038147 9db70327 4c037d56 05279316  ...G...'L.}V.'..
 0630 07028192 9386c620 8a06232a ec02e296  ....... ..#*....
 0640 9cc6e386 c7fce368 57f31394 2a006294  .......hW...*.b.
 0650 8567a297 83a58783 fd57e38a f5fa232c  .g.......W....#,
 0660 bc028544 81468547 13090020 15a80335  ...D.F.G... ...5
 0670 0c02eff0 1fe49b05 05009386 15002687  ..............&.
 0680 9b870400 93b61600 b1078a07 0527e297  .............'..
 0690 93140703 c1908cc7 9b870400 638f2401  ............c.$.
 06a0 1b871400 42174193 f9d2b107 8a07e297  ....B.A.........
 06b0 8cc79b07 0700e319 27fd2328 5c03fd57  ........'.#(\..W
 06c0 6399f502 85673e94 232eb482 9377fb1f  c....g>.#....w..
 06d0 b1078a07 e2978847 e6604664 a6640669  .......G.`Fd.d.i
 06e0 e279427a a27a027b e26b426c a26c2561  .yBz.z.{.kBl.l%a
 06f0 82800335 0c02eff0 dfdb8567 9b050500  ...5.......g....
 0700 3e94232e b482d9b7 03274c03 7d550527  >.#......'L.}U.'
 0710 93170702 81939387 c7208a07 232aec02  ......... ..#*..
 0720 e2977d57 98c74dbf 03274c03 05279317  ..}W..M..'L..'..
 0730 07028193 9387c720 8a07232a ec02e297  ....... ..#*....
 0740 23a40700 3db51301 01dc2334 9122233c  #...=.....#4."#<
 0750 11222338 81222330 2123233c 3121aa84  ."#8."#0!##<1!..
 0760 38008147 9308e002 214311a0 c28583c6  8..G....!C......
 0770 05001b86 17001388 150013f5 f6fd6388  ..............c.
 0780 06106386 16119317 06032300 a700c193  ..c.......#.....
 0790 0507e39d 67fc83c6 1500c285 9307e002  ....g...........
 07a0 6383f60e 638c0612 83c71500 93f6f6fd  c...c...........
 07b0 2300d100 638d070e 03c72500 93f7f7fd  #...c.....%.....
 07c0 a300f100 63070710 1377f7fd 2301e100  ....c....w..#...
 07d0 9c700c08 03d50701 ef00a050 15cd0008  .p.........P....
 07e0 93090121 1309500e 83470400 21462c00  ...!..P..G..!F,.
 07f0 2285638f 2701ef00 2076aa87 81270d46  ".c.'... v...'.F
 0800 13058400 8a8589e7 ef000075 01251dc1  ...........u.%..
 0810 13040402 e39a89fc 83308123 03340123  .........0.#.4.#
 0820 83348122 03390122 83398121 01451301  .4.".9.".9.!.E..
 0830 01248280 a2851306 00022685 ef00c074  .$........&....t
 0840 987083d7 440183d5 a4018356 e7007d57  .p..D......V..}W
 0850 13160702 9b970701 019398f8 83308123  .............0.#
 0860 03340123 cd8f0567 90f4959f ba9423ac  .4.#...g......#.
 0870 f4820339 01228334 81228339 81210545  ...9.".4.".9.!.E
 0880 13010124 828083c6 15008505 21bf1305  ...$........!...
 0890 00022146 1b870700 13070721 85270a97  ..!F.......!.'..
 08a0 c217c193 230ca7de e396c7fe c5bd8547  ....#..........G
 08b0 93050002 0d469b86 17009387 07213387  .....F.......!3.
 08c0 27009397 0603c193 2308b7de e395c7fe  '.......#.......
 08d0 01b79307 00022301 f100ddbd 8147c9bf  ......#......G..
 08e0 0547aa87 6300e602 09476308 e6000145  .G..c....Gc....E
 08f0 11c28280 8cd70545 8280584d 05452d9f  .......E..XM.E-.
 0900 98d78280 18550545 2d9f98d7 82801c55  .....U.E-......U
 0910 63000614 1d714efc 85699389 8903a2e8  c....qN..i......
 0920 a6e452f8 56f45af0 5eec66e4 86eccae0  ..R.V.Z.^.f.....
 0930 62e86ae0 2a84328b ae8b93fc f71f8144  b.j.*.2........D
 0940 130af01f aa99930a 002089a8 63910c06  ......... ..c...
 0950 6387e60e 18702285 83472701 03590701  c....p"..G'..Y..
 0960 bb55fc02 bb77fc02 3b09f900 eff0bfbc  .U...w..;.......
 0970 1c70de85 83c72701 3b85a702 3b052501  .p....'.;...;.%.
 0980 ef002036 61c51c54 9b840420 938b0b20  .. 6a..T... ... 
 0990 9b870720 1cd4814c 63f26409 3b099b40  ... ...Lc.d.;..@
 09a0 58541bdc 97009bd6 9700e361 2afb638e  XT.........a*.c.
 09b0 e6021870 22858347 2701035d 0701bb55  ...p"..G'..]...U
 09c0 fc02bb77 fc023b0d fd00eff0 dfb61c70  ...w..;........p
 09d0 ce8583c7 27013b85 a7023b05 a501ef00  ....'.;...;.....
 09e0 40302dc5 1c542326 840393f7 f71fbb87  @0-..T#&........
 09f0 fa40bd9c 63f36405 3e895e85 b3859901  .@..c.d.>.^.....
 0a00 4a86ef00 60581c54 13170902 0193bb87  J...`X.T........
 0a10 27011cd4 ba9b814c e3e264f9 0545e660  '......L..d..E.`
 0a20 4664a664 0669e279 427aa27a 027be26b  Fd.d.i.yBz.z.{.k
 0a30 426ca26c 026d2561 8280da84 7dbf1306  Bl.l.m%a....}...
 0a40 0020ce85 5e85ef00 205435bf 0145c1bf  . ..^... T5..E..
 0a50 05458280 9b964600 1b18a800 3368d800  .E....F.....3h..
 0a60 1b176700 b7260010 3368e800 9b978700  ..g..&..3h......
 0a70 23a0a680 3368f800 23a2b680 13681800  #...3h..#....h..
 0a80 23a4c680 012823a6 06818280 b7270010  #....(#......'..
 0a90 03a5c780 1b55f501 82801b15 3500b717  .....U......5...
 0aa0 00101375 850323a0 07001365 450488c3  ...u..#....eE...
 0ab0 05458280 37170010 1c47858b f5df0125  .E..7....G.....%
 0ac0 48c73717 00101c47 898bf5df 48471375  H.7....G....HG.u
 0ad0 f50f8280 8dc99b87 f5ff8217 93061500  ................
 0ae0 8193be96 37170010 1306f00f 1c47858b  ....7........G..
 0af0 f5df50c7 1c47898b f5df5c47 0505a30f  ..P..G....\G....
 0b00 f5fee315 d5fe0545 82801365 05043717  .......E...e..7.
 0b10 00101c47 858bf5df 9b070500 5cc73717  ...G........\.7.
 0b20 00101c47 898bf5df 5c479bd6 85013717  ...G....\G....7.
 0b30 00101c47 858bf5df 54c73717 00101c47  ...G....T.7....G
 0b40 898bf5df 5c479bd6 05013717 00101c47  ....\G....7....G
 0b50 858bf5df 93f7f60f 5cc73717 00101c47  ........\.7....G
 0b60 898bf5df 5c479bd6 85003717 00101c47  ....\G....7....G
 0b70 858bf5df 93f7f60f 5cc73717 00101c47  ........\.7....G
 0b80 898bf5df 5c473717 00101c47 858bf5df  ....\G7....G....
 0b90 93f5f50f 4cc73717 00101c47 898bf5df  ....L.7....G....
 0ba0 5c471366 16003717 00101c47 858bf5df  \G.f..7....G....
 0bb0 9b070600 5cc73717 00101c47 898bf5df  ....\.7....G....
 0bc0 5c473717 00101c47 858bf5df 9307f00f  \G7....G........
 0bd0 5cc73717 00101c47 898bf5df 48479377  \.7....G....HG.w
 0be0 85001375 f50f9dc7 85669386 86383717  ...u.....f...87.
 0bf0 00101306 f00f1c47 858bf5df 50c71c47  .......G....P..G
 0c00 898bf5df 48479377 85001375 f50f99c3  ....HG.w...u....
 0c10 fd36f5f2 82803717 00105c43 8566aa88  .6....7...\C.f..
 0c20 93e74700 5cc39386 a6389305 f00f1308  ..G.\....8......
 0c30 e00f1c47 858bf5df 4cc71c47 898bf5df  ...G....L..G....
 0c40 4847fd36 1375f50f adcae314 05ffb727  HG.6.u.........'
 0c50 001023a0 07801b85 080023a2 a7801307  ..#.......#.....
 0c60 002023a4 e7800567 13071786 23a6e780  . #....g....#...
 0c70 37270010 8327c780 9bd7f701 e5ff3717  7'...'........7.
 0c80 00101c47 858bf5df 9307f00f 5cc73717  ...G........\.7.
 0c90 00101c47 898bf5df 5c473717 00101c47  ...G....\G7....G
 0ca0 858bf5df 9307f00f 5cc73717 00101c47  ........\.7....G
 0cb0 898bf5df 5c470545 11e28280 5c43b716  ....\G.E....\C..
 0cc0 0010ed9b 5cc39c46 858bf5df 9307f00f  ....\..F........
 0cd0 dcc63717 00101c47 898bf5df 5c470545  ..7....G....\G.E
 0ce0 8280b716 0010dc42 411122e0 06e493e7  .......BA.".....
 0cf0 47002e84 dcc2aa85 01464545 eff0ffe0  G........FEE....
 0d00 11c5a260 02640145 41018280 22850264  ...`.d.EA..."..d
 0d10 a2600546 93050020 4101f5bd 397122f8  .`.F... A...9q".
 0d20 26f43714 001006fc 4af04eec 9307c007  &.7.....J.N.....
 0d30 23200400 1cc0aa84 0545ef00 e0275c40  # .......E...'\@
 0d40 a9463717 0010ed9b 5cc01306 f00f1c47  .F7.....\......G
 0d50 858bf5df 50c71c47 898bf5df fd365c47  ....P..G.....6\G
 0d60 93f6f60f edf65c43 13065009 814593e7  ......\C..P..E..
 0d70 47005cc3 0145eff0 5fd92a84 1309903e  G.\..E.._.*....>
 0d80 854931a0 eff07fd8 2a846308 09081306  .I1.....*.c.....
 0d90 50098145 01457d39 e31634ff 13067008  P..E.E}9..4...p.
 0da0 9305a01a 2145eff0 5fd69547 6301f504  ....!E.._..Gc...
 0db0 630d8506 b7170010 23a00700 13074005  c.......#.....@.
 0dc0 13065009 814598c3 1305b003 eff0ffd3  ..P..E..........
 0dd0 13065009 93050020 4145eff0 1fd3e270  ..P.... AE.....p
 0de0 4274a274 0279e269 09452161 82803400  Bt.t.y.i.E!a..4.
 0df0 6c003717 00101306 f00f1c47 858bf5df  l.7........G....
 0e00 50c71c47 898bf5df 5c478506 a38ff6fe  P..G....\G......
 0e10 e395b6fe 23800400 71bfe270 4274a274  ....#...q..pBt.t
 0e20 0279e269 05452161 82802000 1309c100  .y.i.E!a.. .....
 0e30 a2863717 00101306 f00f1c47 858bf5df  ..7........G....
 0e40 50c71c47 898bf5df 5c478506 a38ff6fe  P..G....\G......
 0e50 e39526ff 01468145 13057003 eff0ffca  ..&..F.E..p.....
 0e60 0146b705 00401305 9002eff0 1fcaaa87  .F...@..........
 0e70 9309803e 29a8eff0 5fc90146 b7050040  ...>)..._..F...@
 0e80 13059002 eff07fc8 aa876388 09000146  ..........c....F
 0e90 81451305 7003fd39 f9ff0146 81451305  .E..p..9...F.E..
 0ea0 a003eff0 9fc6aa87 9309803e 31a0eff0  ...........>1...
 0eb0 dfc5aa87 63880900 01468145 1305a003  ....c....F.E....
 0ec0 fd39f5f7 37170010 9306f00f 1c47858b  .9..7........G..
 0ed0 f5df54c7 1c47898b f5df5c47 0504a30f  ..T..G....\G....
 0ee0 f4fee315 24ff8347 810093f7 0704b337  ....$..G.......7
 0ef0 f0008907 2380f400 75bdb707 00100547  ....#...u......G
 0f00 98c7d8c7 23a80700 37070010 5c43e34f  ....#...7...\C.O
 0f10 f0fe8280 37070010 af27a740 8127e3cd  ....7....'.@.'..
 0f20 07fe8280 83460500 2a860145 89ce3707  .....F..*..E..7.
 0f30 00100506 af27d740 8127e3cd 07fe8346  .....'.@.'.....F
 0f40 06000525 fdf63707 0010a946 af27d740  ...%..7....F.'.@
 0f50 8127e3cd 07fe8280 05c60216 0192b306  .'..............
 0f60 c50029a0 63e0e702 630cd500 03470500  ..).c...c....G..
 0f70 83c70500 05058505 e376f7fe 7d558280  .........v..}U..
 0f80 01458280 05458280 4111ae88 22e09b05  .E...E..A..."...
 0f90 05002a84 09488947 05478546 1b850800  ..*..H.G.G.F....
 0fa0 06e4eff0 3fabeff0 7fae0125 6dfda260  ....?......%m..`
 0fb0 22850264 41018280 b7470f00 9b870724  "..dA....G.....$
 0fc0 bb87a702 1306803e 37c70008 833687ff  .......>7....6..
 0fd0 13070008 bbd7c702 82178193 b697b746  ...............F
 0fe0 00089ce2 73204730 73005010 73304730  ....s G0s.P.s0G0
 0ff0 82801301 01b82338 81462330 21477d74  ......#8.F#0!G}t
 1000 0569fd72 23349146 93070946 930484ba  .i.r#4.F...F....
 1010 233c1146 a6971691 b3842700 23349124  #<.F......'.#4.$
 1020 eff0bfed 17150000 1305c5b9 eff09fef  ................
 1030 17150000 130585ba eff0dfee 130574ba  ..............t.
 1040 93070946 aa973385 2700eff0 3fcd1715  ...F..3.'...?...
 1050 00001305 25baeff0 ffec2685 eff04f9c  ....%.....&...O.
 1060 b7040004 9c48adc3 17150000 130585be  .....H..........
 1070 eff05feb 7d748567 130484dc 93870746  .._.}t.g.......F
 1080 a2973384 27009715 00009385 25be2285  ..3.'.......%.".
 1090 eff06feb 93051040 d6052285 eff0cf85  ..o....@..".....
 10a0 17150000 130505bd eff0dfe7 85621691  .............b..
 10b0 83308147 03340147 83348146 03390146  .0.G.4.G.4.F.9.F
 10c0 01451301 01488280 17150000 130505b4  .E...H..........
 10d0 eff05fe5 85671304 84dc9387 0746a297  .._..g.......F..
 10e0 33842700 97150000 938545b3 2285eff0  3.'.......E."...
 10f0 8fe52285 eff08f92 17150000 130505b3  ..".............
 1100 eff05fe2 97150000 9385c5b3 2285eff0  .._........."...
 1110 8fe30326 4124a545 f2052285 eff02fff  ...&A$.E..".../.
 1120 b7d7feca 9387e7af 9cc83dbf           ..........=.    
Contents of section .data:
 1130 d00dfeed 00000a5d 00000038 0000083c  .......]...8...<
 1140 00000028 00000011 00000010 00000000  ...(............
 1150 00000221 00000804 00000000 00000000  ...!............
 1160 00000000 00000000 00000001 00000000  ................
 1170 00000003 00000008 00000000 79745f72  ............yt_r
 1180 76363400 00000003 0000000f 00000006  v64.............
 1190 7975746f 6e670079 745f7276 36340000  yutong.yt_rv64..
 11a0 00000003 00000004 00000011 00000002  ................
 11b0 00000003 00000004 00000020 00000002  ........... ....
 11c0 00000003 00000004 0000002c 00000002  ...........,....
 11d0 00000001 72746363 6c6b0000 00000003  ....rtcclk......
 11e0 0000000c 00000006 66697865 642d636c  ........fixed-cl
 11f0 6f636b00 00000003 00000004 0000003d  ock............=
 1200 00000001 00000003 00000004 0000004a  ...............J
 1210 000f4240 00000003 00000007 0000005a  ..B@...........Z
 1220 72746363 6c6b0000 00000003 00000004  rtcclk..........
 1230 0000006d 00000005 00000003 00000004  ...m............
 1240 00000073 00000005 00000002 00000001  ...s............
 1250 63707573 00000000 00000003 00000004  cpus............
 1260 0000006d 00000001 00000003 00000004  ...m............
 1270 00000011 00000001 00000003 00000004  ................
 1280 00000020 00000000 00000003 00000004  ... ............
 1290 0000007b 000f4240 00000001 63707540  ...{..B@....cpu@
 12a0 30000000 00000003 00000004 0000008e  0...............
 12b0 63707500 00000003 00000004 0000009a  cpu.............
 12c0 00000000 00000003 00000005 0000009e  ................
 12d0 6f6b6179 00000000 00000003 00000006  okay............
 12e0 00000006 72697363 76000000 00000003  ....riscv.......
 12f0 00000004 000000a5 00000010 00000003  ................
 1300 00000004 000000b8 00000040 00000003  ...........@....
 1310 00000004 000000c5 00000400 00000003  ................
 1320 00000004 000000d2 00000020 00000003  ........... ....
 1330 00000004 000000dd 00000080 00000003  ................
 1340 00000004 000000e8 00000010 00000003  ................
 1350 00000004 000000fb 00000040 00000003  ...........@....
 1360 00000004 00000108 00000400 00000003  ................
 1370 00000004 00000115 00000020 00000003  ........... ....
 1380 00000004 00000120 00000080 00000003  ....... ........
 1390 0000000b 0000012b 72763634 696d6163  .......+rv64imac
 13a0 66640000 00000003 0000000b 00000135  fd.............5
 13b0 72697363 762c7376 34380000 00000003  riscv,sv48......
 13c0 00000004 0000013e 00000010 00000003  .......>........
 13d0 00000004 0000014f 00000004 00000003  .......O........
 13e0 00000004 0000004a 01f78a40 00000003  .......J...@....
 13f0 00000000 00000164 00000003 00000004  .......d........
 1400 0000006d 00000003 00000003 00000004  ...m............
 1410 00000073 00000003 00000001 696e7465  ...s........inte
 1420 72727570 742d636f 6e74726f 6c6c6572  rrupt-controller
 1430 00000000 00000003 00000004 00000173  ...............s
 1440 00000001 00000003 00000000 00000184  ................
 1450 00000003 0000000f 00000006 72697363  ............risc
 1460 762c6370 752d696e 74630000 00000003  v,cpu-intc......
 1470 00000004 0000006d 00000004 00000003  .......m........
 1480 00000004 00000073 00000004 00000002  .......s........
 1490 00000002 00000001 6370752d 6d617000  ........cpu-map.
 14a0 00000001 636c7573 74657230 00000000  ....cluster0....
 14b0 00000001 636f7265 30000000 00000003  ....core0.......
 14c0 00000004 0000016f 00000003 00000002  .......o........
 14d0 00000002 00000002 00000002 00000001  ................
 14e0 626f6f74 726f6d40 30000000 00000003  bootrom@0.......
 14f0 00000008 0000008e 626f6f74 726f6d00  ........bootrom.
 1500 00000003 00000010 0000009a 00000000  ................
 1510 00000000 00000000 00002000 00000002  .......... .....
 1520 00000001 73797372 616d4031 30303030  ....sysram@10000
 1530 00000000 00000003 00000007 0000008e  ................
 1540 6d656d6f 72790000 00000003 00000010  memory..........
 1550 0000009a 00000000 00020000 00000000  ................
 1560 00020000 00000002 00000001 64647240  ............ddr@
 1570 38303030 30303030 00000000 00000003  80000000........
 1580 00000007 0000008e 6d656d6f 72790000  ........memory..
 1590 00000003 00000010 0000009a 00000000  ................
 15a0 80000000 00000000 08000000 00000002  ................
 15b0 00000001 666c6173 68403834 30303030  ....flash@840000
 15c0 30300000 00000003 0000000e 00000006  00..............
 15d0 73696d70 6c652c66 6c617368 30000000  simple,flash0...
 15e0 00000003 00000010 0000009a 00000000  ................
 15f0 90000000 00000000 08000000 00000002  ................
 1600 00000001 70657269 62757340 30343030  ....peribus@0400
 1610 30303030 00000000 00000003 0000000b  0000............
 1620 00000006 73696d70 6c652d62 75730000  ....simple-bus..
 1630 00000003 00000004 00000011 00000001  ................
 1640 00000003 00000004 00000020 00000001  ........... ....
 1650 00000003 00000000 00000199 00000001  ................
 1660 63666772 65674030 34303030 30303000  cfgreg@04000000.
 1670 00000003 0000000d 00000006 72697363  ............risc
 1680 762c6366 67726567 00000000 00000003  v,cfgreg........
 1690 00000008 0000009a 04000000 00001000  ................
 16a0 00000002 00000001 63707573 74617472  ........cpustatr
 16b0 65674030 34303031 30303000 00000003  eg@04001000.....
 16c0 00000011 00000006 72697363 762c6370  ........riscv,cp
 16d0 75737461 74726567 00000000 00000003  ustatreg........
 16e0 00000008 0000009a 04001000 00001000  ................
 16f0 00000002 00000001 636c696e 74403038  ........clint@08
 1700 30303030 30300000 00000003 0000000d  000000..........
 1710 00000006 72697363 762c636c 696e7430  ....riscv,clint0
 1720 00000000 00000003 00000008 0000009a  ................
 1730 08000000 00010000 00000003 00000010  ................
 1740 000001a0 00000004 00000007 00000004  ................
 1750 00000003 00000002 00000001 696e7465  ............inte
 1760 72727570 742d636f 6e74726f 6c6c6572  rrupt-controller
 1770 40306330 30303030 30000000 00000003  @0c000000.......
 1780 00000004 00000173 00000001 00000003  .......s........
 1790 00000000 00000184 00000003 0000000c  ................
 17a0 00000006 72697363 762c706c 69633000  ....riscv,plic0.
 17b0 00000003 00000004 000001b4 00000020  ............... 
 17c0 00000003 00000008 0000009a 0c000000  ................
 17d0 04000000 00000003 00000010 000001a0  ................
 17e0 00000004 0000000b 00000004 00000009  ................
 17f0 00000003 00000004 0000006d 00000002  ...........m....
 1800 00000003 00000004 00000073 00000002  ...........s....
 1810 00000002 00000001 75617274 40313030  ........uart@100
 1820 30303030 30000000 00000003 00000004  00000...........
 1830 000001bf 00000001 00000003 00000004  ................
 1840 0000002c 00000002 00000003 0000000d  ...,............
 1850 00000006 73696669 76652c75 61727430  ....sifive,uart0
 1860 00000000 00000003 00000008 000001ca  ................
 1870 00000005 00000000 00000003 00000008  ................
 1880 0000009a 10000000 00001000 00000002  ................
 1890 00000002 00000001 63686f73 656e0000  ........chosen..
 18a0 00000003 00000008 000001d1 00000000  ................
 18b0 80200000 00000003 00000008 000001e4  . ..............
 18c0 00000000 87000000 00000003 00000022  ..............."
 18d0 000001f5 726f6f74 3d2f6465 762f7372  ....root=/dev/sr
 18e0 64612072 6f20636f 6e736f6c 653d7474  da ro console=tt
 18f0 79534946 30000000 00000003 0000000f  ySIF0...........
 1900 000001fe 75617274 30403130 30303130  ....uart0@100010
 1910 30300000 00000003 00000004 0000020a  00..............
 1920 00000600 00000002 00000001 616c6961  ............alia
 1930 73657300 00000003 00000020 00000219  ses........ ....
 1940 2f706572 69627573 40303430 30303030  /peribus@0400000
 1950 302f7561 72744031 30303030 30303000  0/uart@10000000.
 1960 00000002 00000002 00000009 6d6f6465  ............mode
 1970 6c00636f 6d706174 69626c65 00236164  l.compatible.#ad
 1980 64726573 732d6365 6c6c7300 2373697a  dress-cells.#siz
 1990 652d6365 6c6c7300 696e7465 72727570  e-cells.interrup
 19a0 742d7061 72656e74 0023636c 6f636b2d  t-parent.#clock-
 19b0 63656c6c 7300636c 6f636b2d 66726571  cells.clock-freq
 19c0 75656e63 7900636c 6f636b2d 6f757470  uency.clock-outp
 19d0 75742d6e 616d6573 006c696e 75782c70  ut-names.linux,p
 19e0 68616e64 6c650074 696d6562 6173652d  handle.timebase-
 19f0 66726571 75656e63 79006465 76696365  frequency.device
 1a00 5f747970 65007265 67007374 61747573  _type.reg.status
 1a10 00692d63 61636865 2d626c6f 636b2d73  .i-cache-block-s
 1a20 697a6500 692d6361 6368652d 73657473  ize.i-cache-sets
 1a30 00692d63 61636865 2d73697a 6500692d  .i-cache-size.i-
 1a40 746c622d 73657473 00692d74 6c622d73  tlb-sets.i-tlb-s
 1a50 697a6500 642d6361 6368652d 626c6f63  ize.d-cache-bloc
 1a60 6b2d7369 7a650064 2d636163 68652d73  k-size.d-cache-s
 1a70 65747300 642d6361 6368652d 73697a65  ets.d-cache-size
 1a80 00642d74 6c622d73 65747300 642d746c  .d-tlb-sets.d-tl
 1a90 622d7369 7a650072 69736376 2c697361  b-size.riscv,isa
 1aa0 006d6d75 2d747970 65007269 7363762c  .mmu-type.riscv,
 1ab0 706d7072 6567696f 6e730072 69736376  pmpregions.riscv
 1ac0 2c706d70 6772616e 756c6172 69747900  ,pmpgranularity.
 1ad0 6c696e75 782c626f 6f742d63 70750023  linux,boot-cpu.#
 1ae0 696e7465 72727570 742d6365 6c6c7300  interrupt-cells.
 1af0 696e7465 72727570 742d636f 6e74726f  interrupt-contro
 1b00 6c6c6572 0072616e 67657300 696e7465  ller.ranges.inte
 1b10 72727570 74732d65 7874656e 64656400  rrupts-extended.
 1b20 72697363 762c6e64 65760069 6e746572  riscv,ndev.inter
 1b30 72757074 7300636c 6f636b73 00726973  rupts.clocks.ris
 1b40 63762c6b 65726e65 6c2d7374 61727400  cv,kernel-start.
 1b50 72697363 762c6b65 726e656c 2d656e64  riscv,kernel-end
 1b60 00626f6f 74617267 73007374 646f7574  .bootargs.stdout
 1b70 2d706174 68006c69 6e75782c 706c6174  -path.linux,plat
 1b80 666f726d 00736572 69616c30 00        form.serial0.   
Contents of section .rodata.str1.8:
 1b90 46415431 32202020 00000000 00000000  FAT12   ........
 1ba0 46415431 36202020 00000000 00000000  FAT16   ........
 1bb0 46415433 32202020 00000000 00000000  FAT32   ........
 1bc0 5b42524f 4d5d2055 41525420 696e6974  [BROM] UART init
 1bd0 20646f6e 65000000 5b42524f 4d5d2053   done...[BROM] S
 1be0 44206361 72642069 6e697400 00000000  D card init.....
 1bf0 5b42524f 4d5d2046 41542042 50422069  [BROM] FAT BPB i
 1c00 6e697400 00000000 5b42524f 4d5d206c  nit.....[BROM] l
 1c10 6f616420 62626c00 626f6f74 2e62696e  oad bbl.boot.bin
 1c20 00000000 00000000 5b42524f 4d5d206c  ........[BROM] l
 1c30 6f616420 726f6f74 66730000 00000000  oad rootfs......
 1c40 72697363 762e6673 00000000 00000000  riscv.fs........
 1c50 5b42524f 4d5d206c 6f616420 766d6c69  [BROM] load vmli
 1c60 6e757800 00000000 766d6c69 6e757800  nux.....vmlinux.
 1c70 5b42524f 4d5d2062 6f6f7420 726f6d20  [BROM] boot rom 
 1c80 696e6974 20646f6e 6500               init done.      
Contents of section .comment:
 0000 4743433a 20286735 39363462 35636437  GCC: (g5964b5cd7
 0010 32372920 31312e31 2e3000             27) 11.1.0.     
Contents of section .riscv.attributes:
 0000 41430000 00726973 63760001 39000000  AC...riscv..9...
 0010 04100572 76363469 3270315f 6d327030  ...rv64i2p1_m2p0
 0020 5f613270 315f6332 70305f7a 69637372  _a2p1_c2p0_zicsr
 0030 3270305f 7a696665 6e636569 32703000  2p0_zifencei2p0.
 0040 08010a0b                             ....            

Disassembly of section .text:

0000000000000000 <__text_start>:
       0:	4081                	li	ra,0
       2:	4101                	li	sp,0
       4:	4181                	li	gp,0
       6:	4201                	li	tp,0
       8:	4281                	li	t0,0
       a:	4301                	li	t1,0
       c:	4381                	li	t2,0
       e:	4401                	li	s0,0
      10:	4481                	li	s1,0
      12:	4501                	li	a0,0
      14:	4581                	li	a1,0
      16:	4601                	li	a2,0
      18:	4681                	li	a3,0
      1a:	4701                	li	a4,0
      1c:	4781                	li	a5,0
      1e:	4801                	li	a6,0
      20:	4881                	li	a7,0
      22:	4901                	li	s2,0
      24:	4981                	li	s3,0
      26:	4a01                	li	s4,0
      28:	4a81                	li	s5,0
      2a:	4b01                	li	s6,0
      2c:	4b81                	li	s7,0
      2e:	4c01                	li	s8,0
      30:	4c81                	li	s9,0
      32:	4d01                	li	s10,0
      34:	4d81                	li	s11,0
      36:	4e01                	li	t3,0
      38:	4e81                	li	t4,0
      3a:	4f01                	li	t5,0
      3c:	4f81                	li	t6,0

000000000000003e <fill_stack>:
      3e:	0003f517          	auipc	a0,0x3f
      42:	fc250513          	addi	a0,a0,-62 # 3f000 <_stack_end>
      46:	00040597          	auipc	a1,0x40
      4a:	fb658593          	addi	a1,a1,-74 # 3fffc <_stack_end+0xffc>
      4e:	4601                	li	a2,0
      50:	08c000ef          	jal	ra,dc <fill_block>

0000000000000054 <init_stack>:
      54:	00040117          	auipc	sp,0x40
      58:	fac10113          	addi	sp,sp,-84 # 40000 <__stack>

000000000000005c <init_system>:
      5c:	301022f3          	csrr	t0,misa
      60:	0202cc63          	bltz	t0,98 <rv64>
      64:	1a0002b7          	lui	t0,0x1a000
      68:	3c329073          	csrw	0x3c3,t0
      6c:	00000297          	auipc	t0,0x0
      70:	07c2a283          	lw	t0,124(t0) # e8 <sysram_base>
      74:	00000317          	auipc	t1,0x0
      78:	07c32303          	lw	t1,124(t1) # f0 <sysram_size>
      7c:	137d                	addi	t1,t1,-1
      7e:	00135313          	srli	t1,t1,0x1
      82:	0062e2b3          	or	t0,t0,t1
      86:	0022d293          	srli	t0,t0,0x2
      8a:	3df29073          	csrw	0x3df,t0
      8e:	00000417          	auipc	s0,0x0
      92:	05a42403          	lw	s0,90(s0) # e8 <sysram_base>
      96:	a81d                	j	cc <goto_main>

0000000000000098 <rv64>:
      98:	00d0029b          	addiw	t0,zero,13
      9c:	12e6                	slli	t0,t0,0x39
      9e:	3c229073          	csrw	0x3c2,t0
      a2:	00000297          	auipc	t0,0x0
      a6:	0462b283          	ld	t0,70(t0) # e8 <sysram_base>
      aa:	00000317          	auipc	t1,0x0
      ae:	04633303          	ld	t1,70(t1) # f0 <sysram_size>
      b2:	137d                	addi	t1,t1,-1
      b4:	00135313          	srli	t1,t1,0x1
      b8:	0062e2b3          	or	t0,t0,t1
      bc:	0022d293          	srli	t0,t0,0x2
      c0:	3df29073          	csrw	0x3df,t0
      c4:	00000417          	auipc	s0,0x0
      c8:	02443403          	ld	s0,36(s0) # e8 <sysram_base>

00000000000000cc <goto_main>:
      cc:	f1402573          	csrr	a0,mhartid
      d0:	00001597          	auipc	a1,0x1
      d4:	06058593          	addi	a1,a1,96 # 1130 <_DTB>
      d8:	8402                	jr	s0

00000000000000da <dead_loop>:
      da:	a001                	j	da <dead_loop>

00000000000000dc <fill_block>:
      dc:	00a5e563          	bltu	a1,a0,e6 <fb_end>
      e0:	c110                	sw	a2,0(a0)
      e2:	0511                	addi	a0,a0,4
      e4:	bfe5                	j	dc <fill_block>

00000000000000e6 <fb_end>:
      e6:	8082                	ret

00000000000000e8 <sysram_base>:
      e8:	00020000          	.word	0x00020000
      ec:	00000000          	.word	0x00000000

00000000000000f0 <sysram_size>:
      f0:	00020000          	.word	0x00020000
      f4:	00000000          	.word	0x00000000

00000000000000f8 <__elf_loader_reloc>:
      f8:	dc010113          	addi	sp,sp,-576
      fc:	21313c23          	sd	s3,536(sp)
     100:	4601                	li	a2,0
     102:	89ae                	mv	s3,a1
     104:	4581                	li	a1,0
     106:	22113c23          	sd	ra,568(sp)
     10a:	22913423          	sd	s1,552(sp)
     10e:	21413823          	sd	s4,528(sp)
     112:	84aa                	mv	s1,a0
     114:	22813823          	sd	s0,560(sp)
     118:	23213023          	sd	s2,544(sp)
     11c:	21513423          	sd	s5,520(sp)
     120:	21613023          	sd	s6,512(sp)
     124:	7bc000ef          	jal	ra,8e0 <__fseek>
     128:	04000613          	li	a2,64
     12c:	858a                	mv	a1,sp
     12e:	8526                	mv	a0,s1
     130:	7de000ef          	jal	ra,90e <__fread>
     134:	03815a03          	lhu	s4,56(sp)
     138:	0a0a0a63          	beqz	s4,1ec <__elf_loader_reloc+0xf4>
     13c:	4a81                	li	s5,0
     13e:	4b21                	li	s6,8
     140:	415a07bb          	subw	a5,s4,s5
     144:	0cfb6863          	bltu	s6,a5,214 <__elf_loader_reloc+0x11c>
     148:	003a141b          	slliw	s0,s4,0x3
     14c:	4144043b          	subw	s0,s0,s4
     150:	0034141b          	slliw	s0,s0,0x3
     154:	7582                	ld	a1,32(sp)
     156:	003a979b          	slliw	a5,s5,0x3
     15a:	415787bb          	subw	a5,a5,s5
     15e:	0037979b          	slliw	a5,a5,0x3
     162:	9dbd                	addw	a1,a1,a5
     164:	4601                	li	a2,0
     166:	8526                	mv	a0,s1
     168:	778000ef          	jal	ra,8e0 <__fseek>
     16c:	8622                	mv	a2,s0
     16e:	008c                	addi	a1,sp,64
     170:	8526                	mv	a0,s1
     172:	79c000ef          	jal	ra,90e <__fread>
     176:	fffa079b          	addiw	a5,s4,-1
     17a:	1782                	slli	a5,a5,0x20
     17c:	9381                	srli	a5,a5,0x20
     17e:	00379913          	slli	s2,a5,0x3
     182:	40f90933          	sub	s2,s2,a5
     186:	090e                	slli	s2,s2,0x3
     188:	18bc                	addi	a5,sp,120
     18a:	0080                	addi	s0,sp,64
     18c:	993e                	add	s2,s2,a5
     18e:	a029                	j	198 <__elf_loader_reloc+0xa0>
     190:	03840413          	addi	s0,s0,56
     194:	04890663          	beq	s2,s0,1e0 <__elf_loader_reloc+0xe8>
     198:	440c                	lw	a1,8(s0)
     19a:	4601                	li	a2,0
     19c:	8526                	mv	a0,s1
     19e:	742000ef          	jal	ra,8e0 <__fseek>
     1a2:	6c0c                	ld	a1,24(s0)
     1a4:	5010                	lw	a2,32(s0)
     1a6:	8526                	mv	a0,s1
     1a8:	95ce                	add	a1,a1,s3
     1aa:	764000ef          	jal	ra,90e <__fread>
     1ae:	7010                	ld	a2,32(s0)
     1b0:	7408                	ld	a0,40(s0)
     1b2:	fca67fe3          	bgeu	a2,a0,190 <__elf_loader_reloc+0x98>
     1b6:	6c0c                	ld	a1,24(s0)
     1b8:	4809                	li	a6,2
     1ba:	4789                	li	a5,2
     1bc:	95b2                	add	a1,a1,a2
     1be:	4705                	li	a4,1
     1c0:	40c5063b          	subw	a2,a0,a2
     1c4:	468d                	li	a3,3
     1c6:	013585bb          	addw	a1,a1,s3
     1ca:	4501                	li	a0,0
     1cc:	089000ef          	jal	ra,a54 <__dma_cfg>
     1d0:	0bd000ef          	jal	ra,a8c <__dma_busy>
     1d4:	2501                	sext.w	a0,a0
     1d6:	fd6d                	bnez	a0,1d0 <__elf_loader_reloc+0xd8>
     1d8:	03840413          	addi	s0,s0,56
     1dc:	fa891ee3          	bne	s2,s0,198 <__elf_loader_reloc+0xa0>
     1e0:	015a0abb          	addw	s5,s4,s5
     1e4:	03815a03          	lhu	s4,56(sp)
     1e8:	f54aece3          	bltu	s5,s4,140 <__elf_loader_reloc+0x48>
     1ec:	23813083          	ld	ra,568(sp)
     1f0:	23013403          	ld	s0,560(sp)
     1f4:	6562                	ld	a0,24(sp)
     1f6:	22813483          	ld	s1,552(sp)
     1fa:	22013903          	ld	s2,544(sp)
     1fe:	21813983          	ld	s3,536(sp)
     202:	21013a03          	ld	s4,528(sp)
     206:	20813a83          	ld	s5,520(sp)
     20a:	20013b03          	ld	s6,512(sp)
     20e:	24010113          	addi	sp,sp,576
     212:	8082                	ret
     214:	1c000413          	li	s0,448
     218:	4a21                	li	s4,8
     21a:	bf2d                	j	154 <__elf_loader_reloc+0x5c>

000000000000021c <__elf_loader>:
     21c:	4581                	li	a1,0
     21e:	bde9                	j	f8 <__elf_loader_reloc>

0000000000000220 <__fat_bpb_init>:
     220:	dd010113          	addi	sp,sp,-560
     224:	22813023          	sd	s0,544(sp)
     228:	858a                	mv	a1,sp
     22a:	842a                	mv	s0,a0
     22c:	4501                	li	a0,0
     22e:	22113423          	sd	ra,552(sp)
     232:	20913c23          	sd	s1,536(sp)
     236:	21213823          	sd	s2,528(sp)
     23a:	21313423          	sd	s3,520(sp)
     23e:	2a5000ef          	jal	ra,ce2 <__sd_readblk>
     242:	c901                	beqz	a0,252 <__fat_bpb_init+0x32>
     244:	1fe15903          	lhu	s2,510(sp)
     248:	67ad                	lui	a5,0xb
     24a:	a5578793          	addi	a5,a5,-1451 # aa55 <__data_end+0x8ec8>
     24e:	02f90063          	beq	s2,a5,26e <__fat_bpb_init+0x4e>
     252:	22813083          	ld	ra,552(sp)
     256:	22013403          	ld	s0,544(sp)
     25a:	21813483          	ld	s1,536(sp)
     25e:	21013903          	ld	s2,528(sp)
     262:	20813983          	ld	s3,520(sp)
     266:	4501                	li	a0,0
     268:	23010113          	addi	sp,sp,560
     26c:	8082                	ret
     26e:	4621                	li	a2,8
     270:	00002597          	auipc	a1,0x2
     274:	92058593          	addi	a1,a1,-1760 # 1b90 <__data_end+0x3>
     278:	03610513          	addi	a0,sp,54
     27c:	4dd000ef          	jal	ra,f58 <__strcmp>
     280:	0005049b          	sext.w	s1,a0
     284:	e8cd                	bnez	s1,336 <__fat_bpb_init+0x116>
     286:	00c14783          	lbu	a5,12(sp)
     28a:	00b14703          	lbu	a4,11(sp)
     28e:	00d14583          	lbu	a1,13(sp)
     292:	07a2                	slli	a5,a5,0x8
     294:	8fd9                	or	a5,a5,a4
     296:	470d                	li	a4,3
     298:	00e40a23          	sb	a4,20(s0)
     29c:	00f41023          	sh	a5,0(s0)
     2a0:	00b40923          	sb	a1,18(s0)
     2a4:	4981                	li	s3,0
     2a6:	01615803          	lhu	a6,22(sp)
     2aa:	01014503          	lbu	a0,16(sp)
     2ae:	00e15603          	lhu	a2,14(sp)
     2b2:	01214683          	lbu	a3,18(sp)
     2b6:	0305073b          	mulw	a4,a0,a6
     2ba:	0136063b          	addw	a2,a2,s3
     2be:	01114783          	lbu	a5,17(sp)
     2c2:	1642                	slli	a2,a2,0x30
     2c4:	9241                	srli	a2,a2,0x30
     2c6:	06a2                	slli	a3,a3,0x8
     2c8:	8edd                	or	a3,a3,a5
     2ca:	0046d79b          	srliw	a5,a3,0x4
     2ce:	01041123          	sh	a6,2(s0)
     2d2:	00a409a3          	sb	a0,19(s0)
     2d6:	9f31                	addw	a4,a4,a2
     2d8:	1742                	slli	a4,a4,0x30
     2da:	9341                	srli	a4,a4,0x30
     2dc:	9fb9                	addw	a5,a5,a4
     2de:	17c2                	slli	a5,a5,0x30
     2e0:	00c41223          	sh	a2,4(s0)
     2e4:	00e41323          	sh	a4,6(s0)
     2e8:	00d41623          	sh	a3,12(s0)
     2ec:	93c1                	srli	a5,a5,0x30
     2ee:	5682                	lw	a3,32(sp)
     2f0:	00e41723          	sh	a4,14(s0)
     2f4:	00f41823          	sh	a5,16(s0)
     2f8:	e699                	bnez	a3,306 <__fat_bpb_init+0xe6>
     2fa:	01414683          	lbu	a3,20(sp)
     2fe:	01314703          	lbu	a4,19(sp)
     302:	06a2                	slli	a3,a3,0x8
     304:	8ed9                	or	a3,a3,a4
     306:	40f487bb          	subw	a5,s1,a5
     30a:	9fb5                	addw	a5,a5,a3
     30c:	02b7d7bb          	divuw	a5,a5,a1
     310:	577d                	li	a4,-1
     312:	22813083          	ld	ra,552(sp)
     316:	20e41c23          	sh	a4,536(s0)
     31a:	21813483          	ld	s1,536(sp)
     31e:	21013903          	ld	s2,528(sp)
     322:	20813983          	ld	s3,520(sp)
     326:	4505                	li	a0,1
     328:	2789                	addiw	a5,a5,2
     32a:	c41c                	sw	a5,8(s0)
     32c:	22013403          	ld	s0,544(sp)
     330:	23010113          	addi	sp,sp,560
     334:	8082                	ret
     336:	4621                	li	a2,8
     338:	00002597          	auipc	a1,0x2
     33c:	86858593          	addi	a1,a1,-1944 # 1ba0 <__data_end+0x13>
     340:	03610513          	addi	a0,sp,54
     344:	415000ef          	jal	ra,f58 <__strcmp>
     348:	0005049b          	sext.w	s1,a0
     34c:	e095                	bnez	s1,370 <__fat_bpb_init+0x150>
     34e:	00c14783          	lbu	a5,12(sp)
     352:	00b14703          	lbu	a4,11(sp)
     356:	00d14583          	lbu	a1,13(sp)
     35a:	07a2                	slli	a5,a5,0x8
     35c:	8fd9                	or	a5,a5,a4
     35e:	4711                	li	a4,4
     360:	00e40a23          	sb	a4,20(s0)
     364:	00f41023          	sh	a5,0(s0)
     368:	00b40923          	sb	a1,18(s0)
     36c:	4981                	li	s3,0
     36e:	bf25                	j	2a6 <__fat_bpb_init+0x86>
     370:	4621                	li	a2,8
     372:	00002597          	auipc	a1,0x2
     376:	83e58593          	addi	a1,a1,-1986 # 1bb0 <__data_end+0x23>
     37a:	05210513          	addi	a0,sp,82
     37e:	3db000ef          	jal	ra,f58 <__strcmp>
     382:	0005049b          	sext.w	s1,a0
     386:	e0bd                	bnez	s1,3ec <__fat_bpb_init+0x1cc>
     388:	00c14783          	lbu	a5,12(sp)
     38c:	00b14703          	lbu	a4,11(sp)
     390:	00d14583          	lbu	a1,13(sp)
     394:	07a2                	slli	a5,a5,0x8
     396:	8fd9                	or	a5,a5,a4
     398:	4715                	li	a4,5
     39a:	00e40a23          	sb	a4,20(s0)
     39e:	00f41023          	sh	a5,0(s0)
     3a2:	00b40923          	sb	a1,18(s0)
     3a6:	4981                	li	s3,0
     3a8:	02415803          	lhu	a6,36(sp)
     3ac:	01014503          	lbu	a0,16(sp)
     3b0:	00e15683          	lhu	a3,14(sp)
     3b4:	01214603          	lbu	a2,18(sp)
     3b8:	030507bb          	mulw	a5,a0,a6
     3bc:	013686bb          	addw	a3,a3,s3
     3c0:	16c2                	slli	a3,a3,0x30
     3c2:	01114703          	lbu	a4,17(sp)
     3c6:	92c1                	srli	a3,a3,0x30
     3c8:	0622                	slli	a2,a2,0x8
     3ca:	8e59                	or	a2,a2,a4
     3cc:	01041123          	sh	a6,2(s0)
     3d0:	02c15703          	lhu	a4,44(sp)
     3d4:	00a409a3          	sb	a0,19(s0)
     3d8:	9fb5                	addw	a5,a5,a3
     3da:	17c2                	slli	a5,a5,0x30
     3dc:	93c1                	srli	a5,a5,0x30
     3de:	00d41223          	sh	a3,4(s0)
     3e2:	00f41323          	sh	a5,6(s0)
     3e6:	00c41623          	sh	a2,12(s0)
     3ea:	b711                	j	2ee <__fat_bpb_init+0xce>
     3ec:	1c615983          	lhu	s3,454(sp)
     3f0:	858a                	mv	a1,sp
     3f2:	0009849b          	sext.w	s1,s3
     3f6:	8526                	mv	a0,s1
     3f8:	0eb000ef          	jal	ra,ce2 <__sd_readblk>
     3fc:	e4050be3          	beqz	a0,252 <__fat_bpb_init+0x32>
     400:	1fe15783          	lhu	a5,510(sp)
     404:	e52797e3          	bne	a5,s2,252 <__fat_bpb_init+0x32>
     408:	4621                	li	a2,8
     40a:	00001597          	auipc	a1,0x1
     40e:	78658593          	addi	a1,a1,1926 # 1b90 <__data_end+0x3>
     412:	03610513          	addi	a0,sp,54
     416:	343000ef          	jal	ra,f58 <__strcmp>
     41a:	0005079b          	sext.w	a5,a0
     41e:	e38d                	bnez	a5,440 <__fat_bpb_init+0x220>
     420:	00c14783          	lbu	a5,12(sp)
     424:	00b14703          	lbu	a4,11(sp)
     428:	00d14583          	lbu	a1,13(sp)
     42c:	07a2                	slli	a5,a5,0x8
     42e:	8fd9                	or	a5,a5,a4
     430:	470d                	li	a4,3
     432:	00e40a23          	sb	a4,20(s0)
     436:	00f41023          	sh	a5,0(s0)
     43a:	00b40923          	sb	a1,18(s0)
     43e:	b5a5                	j	2a6 <__fat_bpb_init+0x86>
     440:	4621                	li	a2,8
     442:	00001597          	auipc	a1,0x1
     446:	75e58593          	addi	a1,a1,1886 # 1ba0 <__data_end+0x13>
     44a:	03610513          	addi	a0,sp,54
     44e:	30b000ef          	jal	ra,f58 <__strcmp>
     452:	0005079b          	sext.w	a5,a0
     456:	e38d                	bnez	a5,478 <__fat_bpb_init+0x258>
     458:	00c14783          	lbu	a5,12(sp)
     45c:	00b14703          	lbu	a4,11(sp)
     460:	00d14583          	lbu	a1,13(sp)
     464:	07a2                	slli	a5,a5,0x8
     466:	8fd9                	or	a5,a5,a4
     468:	4711                	li	a4,4
     46a:	00e40a23          	sb	a4,20(s0)
     46e:	00f41023          	sh	a5,0(s0)
     472:	00b40923          	sb	a1,18(s0)
     476:	bd05                	j	2a6 <__fat_bpb_init+0x86>
     478:	4621                	li	a2,8
     47a:	00001597          	auipc	a1,0x1
     47e:	73658593          	addi	a1,a1,1846 # 1bb0 <__data_end+0x23>
     482:	05210513          	addi	a0,sp,82
     486:	2d3000ef          	jal	ra,f58 <__strcmp>
     48a:	0005079b          	sext.w	a5,a0
     48e:	dc0792e3          	bnez	a5,252 <__fat_bpb_init+0x32>
     492:	00c14783          	lbu	a5,12(sp)
     496:	00b14703          	lbu	a4,11(sp)
     49a:	00d14583          	lbu	a1,13(sp)
     49e:	07a2                	slli	a5,a5,0x8
     4a0:	8fd9                	or	a5,a5,a4
     4a2:	4715                	li	a4,5
     4a4:	00e40a23          	sb	a4,20(s0)
     4a8:	00f41023          	sh	a5,0(s0)
     4ac:	00b40923          	sb	a1,18(s0)
     4b0:	bde5                	j	3a8 <__fat_bpb_init+0x188>

00000000000004b2 <__nxt_clst>:
     4b2:	1101                	addi	sp,sp,-32
     4b4:	e822                	sd	s0,16(sp)
     4b6:	00e55403          	lhu	s0,14(a0)
     4ba:	21855683          	lhu	a3,536(a0)
     4be:	e426                	sd	s1,8(sp)
     4c0:	9c2d                	addw	s0,s0,a1
     4c2:	ec06                	sd	ra,24(sp)
     4c4:	0074579b          	srliw	a5,s0,0x7
     4c8:	84aa                	mv	s1,a0
     4ca:	02f69563          	bne	a3,a5,4f4 <__nxt_clst+0x42>
     4ce:	07f47413          	andi	s0,s0,127
     4d2:	0411                	addi	s0,s0,4
     4d4:	040a                	slli	s0,s0,0x2
     4d6:	9426                	add	s0,s0,s1
     4d8:	4408                	lw	a0,8(s0)
     4da:	100007b7          	lui	a5,0x10000
     4de:	17fd                	addi	a5,a5,-1 # fffffff <__stack+0xffbffff>
     4e0:	04f50563          	beq	a0,a5,52a <__nxt_clst+0x78>
     4e4:	00e4d783          	lhu	a5,14(s1)
     4e8:	9d1d                	subw	a0,a0,a5
     4ea:	60e2                	ld	ra,24(sp)
     4ec:	6442                	ld	s0,16(sp)
     4ee:	64a2                	ld	s1,8(sp)
     4f0:	6105                	addi	sp,sp,32
     4f2:	8082                	ret
     4f4:	00455503          	lhu	a0,4(a0)
     4f8:	0074571b          	srliw	a4,s0,0x7
     4fc:	1742                	slli	a4,a4,0x30
     4fe:	9341                	srli	a4,a4,0x30
     500:	20f49c23          	sh	a5,536(s1)
     504:	01848593          	addi	a1,s1,24
     508:	9d39                	addw	a0,a0,a4
     50a:	7d8000ef          	jal	ra,ce2 <__sd_readblk>
     50e:	87aa                	mv	a5,a0
     510:	4501                	li	a0,0
     512:	dfe1                	beqz	a5,4ea <__nxt_clst+0x38>
     514:	07f47413          	andi	s0,s0,127
     518:	0411                	addi	s0,s0,4
     51a:	040a                	slli	s0,s0,0x2
     51c:	9426                	add	s0,s0,s1
     51e:	4408                	lw	a0,8(s0)
     520:	100007b7          	lui	a5,0x10000
     524:	17fd                	addi	a5,a5,-1 # fffffff <__stack+0xffbffff>
     526:	faf51fe3          	bne	a0,a5,4e4 <__nxt_clst+0x32>
     52a:	60e2                	ld	ra,24(sp)
     52c:	6442                	ld	s0,16(sp)
     52e:	64a2                	ld	s1,8(sp)
     530:	557d                	li	a0,-1
     532:	6105                	addi	sp,sp,32
     534:	8082                	ret

0000000000000536 <__get_clst>:
     536:	711d                	addi	sp,sp,-96
     538:	e466                	sd	s9,8(sp)
     53a:	6cc1                	lui	s9,0x10
     53c:	f456                	sd	s5,40(sp)
     53e:	1cfd                	addi	s9,s9,-1 # ffff <__data_end+0xe472>
     540:	0095da9b          	srliw	s5,a1,0x9
     544:	591c                	lw	a5,48(a0)
     546:	019afab3          	and	s5,s5,s9
     54a:	f05a                	sd	s6,32(sp)
     54c:	e862                	sd	s8,16(sp)
     54e:	ec86                	sd	ra,88(sp)
     550:	e8a2                	sd	s0,80(sp)
     552:	e4a6                	sd	s1,72(sp)
     554:	e0ca                	sd	s2,64(sp)
     556:	fc4e                	sd	s3,56(sp)
     558:	f852                	sd	s4,48(sp)
     55a:	ec5e                	sd	s7,24(sp)
     55c:	2a81                	sext.w	s5,s5
     55e:	8c2a                	mv	s8,a0
     560:	8b2e                	mv	s6,a1
     562:	17578563          	beq	a5,s5,6cc <__get_clst+0x196>
     566:	5958                	lw	a4,52(a0)
     568:	10000937          	lui	s2,0x10000
     56c:	20000993          	li	s3,512
     570:	197d                	addi	s2,s2,-1 # fffffff <__stack+0xffbffff>
     572:	0d577c63          	bgeu	a4,s5,64a <__get_clst+0x114>
     576:	02071793          	slli	a5,a4,0x20
     57a:	9381                	srli	a5,a5,0x20
     57c:	20c78793          	addi	a5,a5,524
     580:	078a                	slli	a5,a5,0x2
     582:	97e2                	add	a5,a5,s8
     584:	479c                	lw	a5,8(a5)
     586:	4b85                	li	s7,1
     588:	5a7d                	li	s4,-1
     58a:	020c3483          	ld	s1,32(s8)
     58e:	00e4d403          	lhu	s0,14(s1)
     592:	2184d703          	lhu	a4,536(s1)
     596:	01848593          	addi	a1,s1,24
     59a:	9c3d                	addw	s0,s0,a5
     59c:	0074551b          	srliw	a0,s0,0x7
     5a0:	0074579b          	srliw	a5,s0,0x7
     5a4:	00acf533          	and	a0,s9,a0
     5a8:	00f70a63          	beq	a4,a5,5bc <__get_clst+0x86>
     5ac:	0044d703          	lhu	a4,4(s1)
     5b0:	20f49c23          	sh	a5,536(s1)
     5b4:	9d39                	addw	a0,a0,a4
     5b6:	72c000ef          	jal	ra,ce2 <__sd_readblk>
     5ba:	cd21                	beqz	a0,612 <__get_clst+0xdc>
     5bc:	07f47413          	andi	s0,s0,127
     5c0:	0411                	addi	s0,s0,4
     5c2:	040a                	slli	s0,s0,0x2
     5c4:	9426                	add	s0,s0,s1
     5c6:	441c                	lw	a5,8(s0)
     5c8:	001b871b          	addiw	a4,s7,1
     5cc:	01278e63          	beq	a5,s2,5e8 <__get_clst+0xb2>
     5d0:	00e4d683          	lhu	a3,14(s1)
     5d4:	9f95                	subw	a5,a5,a3
     5d6:	053b8863          	beq	s7,s3,626 <__get_clst+0xf0>
     5da:	03071b93          	slli	s7,a4,0x30
     5de:	030bdb93          	srli	s7,s7,0x30
     5e2:	fb4794e3          	bne	a5,s4,58a <__get_clst+0x54>
     5e6:	a031                	j	5f2 <__get_clst+0xbc>
     5e8:	20000793          	li	a5,512
     5ec:	10fb8e63          	beq	s7,a5,708 <__get_clst+0x1d2>
     5f0:	57fd                	li	a5,-1
     5f2:	034c2683          	lw	a3,52(s8)
     5f6:	2685                	addiw	a3,a3,1
     5f8:	02069713          	slli	a4,a3,0x20
     5fc:	9301                	srli	a4,a4,0x20
     5fe:	20c70713          	addi	a4,a4,524
     602:	070a                	slli	a4,a4,0x2
     604:	02dc2a23          	sw	a3,52(s8)
     608:	9c3a                	add	s8,s8,a4
     60a:	00fc2423          	sw	a5,8(s8)
     60e:	557d                	li	a0,-1
     610:	a0e1                	j	6d8 <__get_clst+0x1a2>
     612:	001b879b          	addiw	a5,s7,1
     616:	113b8963          	beq	s7,s3,728 <__get_clst+0x1f2>
     61a:	03079b93          	slli	s7,a5,0x30
     61e:	030bdb93          	srli	s7,s7,0x30
     622:	4781                	li	a5,0
     624:	b79d                	j	58a <__get_clst+0x54>
     626:	034c2703          	lw	a4,52(s8)
     62a:	567d                	li	a2,-1
     62c:	2705                	addiw	a4,a4,1
     62e:	02071693          	slli	a3,a4,0x20
     632:	9281                	srli	a3,a3,0x20
     634:	20c68693          	addi	a3,a3,524
     638:	068a                	slli	a3,a3,0x2
     63a:	02ec2a23          	sw	a4,52(s8)
     63e:	96e2                	add	a3,a3,s8
     640:	c69c                	sw	a5,8(a3)
     642:	fcc786e3          	beq	a5,a2,60e <__get_clst+0xd8>
     646:	f35768e3          	bltu	a4,s5,576 <__get_clst+0x40>
     64a:	002a9413          	slli	s0,s5,0x2
     64e:	9462                	add	s0,s0,s8
     650:	6785                	lui	a5,0x1
     652:	97a2                	add	a5,a5,s0
     654:	8387a583          	lw	a1,-1992(a5) # 838 <__fopen+0xf2>
     658:	57fd                	li	a5,-1
     65a:	faf58ae3          	beq	a1,a5,60e <__get_clst+0xd8>
     65e:	02bc2c23          	sw	a1,56(s8)
     662:	4485                	li	s1,1
     664:	4681                	li	a3,0
     666:	4785                	li	a5,1
     668:	20000913          	li	s2,512
     66c:	a815                	j	6a0 <__get_clst+0x16a>
     66e:	020c3503          	ld	a0,32(s8)
     672:	e41ff0ef          	jal	ra,4b2 <__nxt_clst>
     676:	0005059b          	sext.w	a1,a0
     67a:	00158693          	addi	a3,a1,1
     67e:	8726                	mv	a4,s1
     680:	0004879b          	sext.w	a5,s1
     684:	0016b693          	seqz	a3,a3
     688:	07b1                	addi	a5,a5,12
     68a:	078a                	slli	a5,a5,0x2
     68c:	2705                	addiw	a4,a4,1
     68e:	97e2                	add	a5,a5,s8
     690:	03071493          	slli	s1,a4,0x30
     694:	90c1                	srli	s1,s1,0x30
     696:	c78c                	sw	a1,8(a5)
     698:	0004879b          	sext.w	a5,s1
     69c:	01248f63          	beq	s1,s2,6ba <__get_clst+0x184>
     6a0:	0014871b          	addiw	a4,s1,1
     6a4:	1742                	slli	a4,a4,0x30
     6a6:	9341                	srli	a4,a4,0x30
     6a8:	d2f9                	beqz	a3,66e <__get_clst+0x138>
     6aa:	07b1                	addi	a5,a5,12
     6ac:	078a                	slli	a5,a5,0x2
     6ae:	97e2                	add	a5,a5,s8
     6b0:	c78c                	sw	a1,8(a5)
     6b2:	0007079b          	sext.w	a5,a4
     6b6:	fd2719e3          	bne	a4,s2,688 <__get_clst+0x152>
     6ba:	035c2823          	sw	s5,48(s8)
     6be:	57fd                	li	a5,-1
     6c0:	02f59963          	bne	a1,a5,6f2 <__get_clst+0x1bc>
     6c4:	6785                	lui	a5,0x1
     6c6:	943e                	add	s0,s0,a5
     6c8:	82b42e23          	sw	a1,-1988(s0)
     6cc:	1ffb7793          	andi	a5,s6,511
     6d0:	07b1                	addi	a5,a5,12 # 100c <main+0x1a>
     6d2:	078a                	slli	a5,a5,0x2
     6d4:	97e2                	add	a5,a5,s8
     6d6:	4788                	lw	a0,8(a5)
     6d8:	60e6                	ld	ra,88(sp)
     6da:	6446                	ld	s0,80(sp)
     6dc:	64a6                	ld	s1,72(sp)
     6de:	6906                	ld	s2,64(sp)
     6e0:	79e2                	ld	s3,56(sp)
     6e2:	7a42                	ld	s4,48(sp)
     6e4:	7aa2                	ld	s5,40(sp)
     6e6:	7b02                	ld	s6,32(sp)
     6e8:	6be2                	ld	s7,24(sp)
     6ea:	6c42                	ld	s8,16(sp)
     6ec:	6ca2                	ld	s9,8(sp)
     6ee:	6125                	addi	sp,sp,96
     6f0:	8082                	ret
     6f2:	020c3503          	ld	a0,32(s8)
     6f6:	dbdff0ef          	jal	ra,4b2 <__nxt_clst>
     6fa:	6785                	lui	a5,0x1
     6fc:	0005059b          	sext.w	a1,a0
     700:	943e                	add	s0,s0,a5
     702:	82b42e23          	sw	a1,-1988(s0)
     706:	b7d9                	j	6cc <__get_clst+0x196>
     708:	034c2703          	lw	a4,52(s8)
     70c:	557d                	li	a0,-1
     70e:	2705                	addiw	a4,a4,1
     710:	02071793          	slli	a5,a4,0x20
     714:	9381                	srli	a5,a5,0x20
     716:	20c78793          	addi	a5,a5,524 # 120c <_DTB+0xdc>
     71a:	078a                	slli	a5,a5,0x2
     71c:	02ec2a23          	sw	a4,52(s8)
     720:	97e2                	add	a5,a5,s8
     722:	577d                	li	a4,-1
     724:	c798                	sw	a4,8(a5)
     726:	bf4d                	j	6d8 <__get_clst+0x1a2>
     728:	034c2703          	lw	a4,52(s8)
     72c:	2705                	addiw	a4,a4,1
     72e:	02071793          	slli	a5,a4,0x20
     732:	9381                	srli	a5,a5,0x20
     734:	20c78793          	addi	a5,a5,524
     738:	078a                	slli	a5,a5,0x2
     73a:	02ec2a23          	sw	a4,52(s8)
     73e:	97e2                	add	a5,a5,s8
     740:	0007a423          	sw	zero,8(a5)
     744:	b53d                	j	572 <__get_clst+0x3c>

0000000000000746 <__fopen>:
     746:	dc010113          	addi	sp,sp,-576
     74a:	22913423          	sd	s1,552(sp)
     74e:	22113c23          	sd	ra,568(sp)
     752:	22813823          	sd	s0,560(sp)
     756:	23213023          	sd	s2,544(sp)
     75a:	21313c23          	sd	s3,536(sp)
     75e:	84aa                	mv	s1,a0
     760:	0038                	addi	a4,sp,8
     762:	4781                	li	a5,0
     764:	02e00893          	li	a7,46
     768:	4321                	li	t1,8
     76a:	a011                	j	76e <__fopen+0x28>
     76c:	85c2                	mv	a1,a6
     76e:	0005c683          	lbu	a3,0(a1)
     772:	0017861b          	addiw	a2,a5,1
     776:	00158813          	addi	a6,a1,1
     77a:	fdf6f513          	andi	a0,a3,-33
     77e:	10068863          	beqz	a3,88e <__fopen+0x148>
     782:	11168663          	beq	a3,a7,88e <__fopen+0x148>
     786:	03061793          	slli	a5,a2,0x30
     78a:	00a70023          	sb	a0,0(a4)
     78e:	93c1                	srli	a5,a5,0x30
     790:	0705                	addi	a4,a4,1
     792:	fc679de3          	bne	a5,t1,76c <__fopen+0x26>
     796:	0015c683          	lbu	a3,1(a1)
     79a:	85c2                	mv	a1,a6
     79c:	02e00793          	li	a5,46
     7a0:	0ef68363          	beq	a3,a5,886 <__fopen+0x140>
     7a4:	12068c63          	beqz	a3,8dc <__fopen+0x196>
     7a8:	0015c783          	lbu	a5,1(a1)
     7ac:	fdf6f693          	andi	a3,a3,-33
     7b0:	00d10023          	sb	a3,0(sp)
     7b4:	0e078d63          	beqz	a5,8ae <__fopen+0x168>
     7b8:	0025c703          	lbu	a4,2(a1)
     7bc:	fdf7f793          	andi	a5,a5,-33
     7c0:	00f100a3          	sb	a5,1(sp)
     7c4:	10070763          	beqz	a4,8d2 <__fopen+0x18c>
     7c8:	fdf77713          	andi	a4,a4,-33
     7cc:	00e10123          	sb	a4,2(sp)
     7d0:	709c                	ld	a5,32(s1)
     7d2:	080c                	addi	a1,sp,16
     7d4:	0107d503          	lhu	a0,16(a5)
     7d8:	50a000ef          	jal	ra,ce2 <__sd_readblk>
     7dc:	cd15                	beqz	a0,818 <__fopen+0xd2>
     7de:	0800                	addi	s0,sp,16
     7e0:	21010993          	addi	s3,sp,528
     7e4:	0e500913          	li	s2,229
     7e8:	00044783          	lbu	a5,0(s0)
     7ec:	4621                	li	a2,8
     7ee:	002c                	addi	a1,sp,8
     7f0:	8522                	mv	a0,s0
     7f2:	01278f63          	beq	a5,s2,810 <__fopen+0xca>
     7f6:	762000ef          	jal	ra,f58 <__strcmp>
     7fa:	87aa                	mv	a5,a0
     7fc:	2781                	sext.w	a5,a5
     7fe:	460d                	li	a2,3
     800:	00840513          	addi	a0,s0,8
     804:	858a                	mv	a1,sp
     806:	e789                	bnez	a5,810 <__fopen+0xca>
     808:	750000ef          	jal	ra,f58 <__strcmp>
     80c:	2501                	sext.w	a0,a0
     80e:	c11d                	beqz	a0,834 <__fopen+0xee>
     810:	02040413          	addi	s0,s0,32
     814:	fc899ae3          	bne	s3,s0,7e8 <__fopen+0xa2>
     818:	23813083          	ld	ra,568(sp)
     81c:	23013403          	ld	s0,560(sp)
     820:	22813483          	ld	s1,552(sp)
     824:	22013903          	ld	s2,544(sp)
     828:	21813983          	ld	s3,536(sp)
     82c:	4501                	li	a0,0
     82e:	24010113          	addi	sp,sp,576
     832:	8082                	ret
     834:	85a2                	mv	a1,s0
     836:	02000613          	li	a2,32
     83a:	8526                	mv	a0,s1
     83c:	74c000ef          	jal	ra,f88 <__memcpy>
     840:	7098                	ld	a4,32(s1)
     842:	0144d783          	lhu	a5,20(s1)
     846:	01a4d583          	lhu	a1,26(s1)
     84a:	00e75683          	lhu	a3,14(a4)
     84e:	577d                	li	a4,-1
     850:	02071613          	slli	a2,a4,0x20
     854:	0107979b          	slliw	a5,a5,0x10
     858:	9301                	srli	a4,a4,0x20
     85a:	f898                	sd	a4,48(s1)
     85c:	23813083          	ld	ra,568(sp)
     860:	23013403          	ld	s0,560(sp)
     864:	8fcd                	or	a5,a5,a1
     866:	6705                	lui	a4,0x1
     868:	f490                	sd	a2,40(s1)
     86a:	9f95                	subw	a5,a5,a3
     86c:	94ba                	add	s1,s1,a4
     86e:	82f4ac23          	sw	a5,-1992(s1)
     872:	22013903          	ld	s2,544(sp)
     876:	22813483          	ld	s1,552(sp)
     87a:	21813983          	ld	s3,536(sp)
     87e:	4505                	li	a0,1
     880:	24010113          	addi	sp,sp,576
     884:	8082                	ret
     886:	0015c683          	lbu	a3,1(a1)
     88a:	0585                	addi	a1,a1,1
     88c:	bf21                	j	7a4 <__fopen+0x5e>
     88e:	02000513          	li	a0,32
     892:	4621                	li	a2,8
     894:	0007871b          	sext.w	a4,a5
     898:	21070713          	addi	a4,a4,528 # 1210 <_DTB+0xe0>
     89c:	2785                	addiw	a5,a5,1
     89e:	970a                	add	a4,a4,sp
     8a0:	17c2                	slli	a5,a5,0x30
     8a2:	93c1                	srli	a5,a5,0x30
     8a4:	dea70c23          	sb	a0,-520(a4)
     8a8:	fec796e3          	bne	a5,a2,894 <__fopen+0x14e>
     8ac:	bdc5                	j	79c <__fopen+0x56>
     8ae:	4785                	li	a5,1
     8b0:	02000593          	li	a1,32
     8b4:	460d                	li	a2,3
     8b6:	0017869b          	addiw	a3,a5,1
     8ba:	21078793          	addi	a5,a5,528
     8be:	00278733          	add	a4,a5,sp
     8c2:	03069793          	slli	a5,a3,0x30
     8c6:	93c1                	srli	a5,a5,0x30
     8c8:	deb70823          	sb	a1,-528(a4)
     8cc:	fec795e3          	bne	a5,a2,8b6 <__fopen+0x170>
     8d0:	b701                	j	7d0 <__fopen+0x8a>
     8d2:	02000793          	li	a5,32
     8d6:	00f10123          	sb	a5,2(sp)
     8da:	bddd                	j	7d0 <__fopen+0x8a>
     8dc:	4781                	li	a5,0
     8de:	bfc9                	j	8b0 <__fopen+0x16a>

00000000000008e0 <__fseek>:
     8e0:	4705                	li	a4,1
     8e2:	87aa                	mv	a5,a0
     8e4:	02e60063          	beq	a2,a4,904 <__fseek+0x24>
     8e8:	4709                	li	a4,2
     8ea:	00e60863          	beq	a2,a4,8fa <__fseek+0x1a>
     8ee:	4501                	li	a0,0
     8f0:	c211                	beqz	a2,8f4 <__fseek+0x14>
     8f2:	8082                	ret
     8f4:	d78c                	sw	a1,40(a5)
     8f6:	4505                	li	a0,1
     8f8:	8082                	ret
     8fa:	4d58                	lw	a4,28(a0)
     8fc:	4505                	li	a0,1
     8fe:	9f2d                	addw	a4,a4,a1
     900:	d798                	sw	a4,40(a5)
     902:	8082                	ret
     904:	5518                	lw	a4,40(a0)
     906:	4505                	li	a0,1
     908:	9f2d                	addw	a4,a4,a1
     90a:	d798                	sw	a4,40(a5)
     90c:	8082                	ret

000000000000090e <__fread>:
     90e:	551c                	lw	a5,40(a0)
     910:	14060063          	beqz	a2,a50 <__fread+0x142>
     914:	711d                	addi	sp,sp,-96
     916:	fc4e                	sd	s3,56(sp)
     918:	6985                	lui	s3,0x1
     91a:	03898993          	addi	s3,s3,56 # 1038 <main+0x46>
     91e:	e8a2                	sd	s0,80(sp)
     920:	e4a6                	sd	s1,72(sp)
     922:	f852                	sd	s4,48(sp)
     924:	f456                	sd	s5,40(sp)
     926:	f05a                	sd	s6,32(sp)
     928:	ec5e                	sd	s7,24(sp)
     92a:	e466                	sd	s9,8(sp)
     92c:	ec86                	sd	ra,88(sp)
     92e:	e0ca                	sd	s2,64(sp)
     930:	e862                	sd	s8,16(sp)
     932:	e06a                	sd	s10,0(sp)
     934:	842a                	mv	s0,a0
     936:	8b32                	mv	s6,a2
     938:	8bae                	mv	s7,a1
     93a:	1ff7fc93          	andi	s9,a5,511
     93e:	4481                	li	s1,0
     940:	1ff00a13          	li	s4,511
     944:	99aa                	add	s3,s3,a0
     946:	20000a93          	li	s5,512
     94a:	a889                	j	99c <__fread+0x8e>
     94c:	060c9163          	bnez	s9,9ae <__fread+0xa0>
     950:	0ee68763          	beq	a3,a4,a3e <__fread+0x130>
     954:	7018                	ld	a4,32(s0)
     956:	8522                	mv	a0,s0
     958:	01274783          	lbu	a5,18(a4)
     95c:	01075903          	lhu	s2,16(a4)
     960:	02fc55bb          	divuw	a1,s8,a5
     964:	02fc77bb          	remuw	a5,s8,a5
     968:	00f9093b          	addw	s2,s2,a5
     96c:	bcbff0ef          	jal	ra,536 <__get_clst>
     970:	701c                	ld	a5,32(s0)
     972:	85de                	mv	a1,s7
     974:	0127c783          	lbu	a5,18(a5)
     978:	02a7853b          	mulw	a0,a5,a0
     97c:	0125053b          	addw	a0,a0,s2
     980:	362000ef          	jal	ra,ce2 <__sd_readblk>
     984:	c561                	beqz	a0,a4c <__fread+0x13e>
     986:	541c                	lw	a5,40(s0)
     988:	2004849b          	addiw	s1,s1,512
     98c:	200b8b93          	addi	s7,s7,512
     990:	2007879b          	addiw	a5,a5,512
     994:	d41c                	sw	a5,40(s0)
     996:	4c81                	li	s9,0
     998:	0964f263          	bgeu	s1,s6,a1c <__fread+0x10e>
     99c:	409b093b          	subw	s2,s6,s1
     9a0:	5458                	lw	a4,44(s0)
     9a2:	0097dc1b          	srliw	s8,a5,0x9
     9a6:	0097d69b          	srliw	a3,a5,0x9
     9aa:	fb2a61e3          	bltu	s4,s2,94c <__fread+0x3e>
     9ae:	02e68e63          	beq	a3,a4,9ea <__fread+0xdc>
     9b2:	7018                	ld	a4,32(s0)
     9b4:	8522                	mv	a0,s0
     9b6:	01274783          	lbu	a5,18(a4)
     9ba:	01075d03          	lhu	s10,16(a4)
     9be:	02fc55bb          	divuw	a1,s8,a5
     9c2:	02fc77bb          	remuw	a5,s8,a5
     9c6:	00fd0d3b          	addw	s10,s10,a5
     9ca:	b6dff0ef          	jal	ra,536 <__get_clst>
     9ce:	701c                	ld	a5,32(s0)
     9d0:	85ce                	mv	a1,s3
     9d2:	0127c783          	lbu	a5,18(a5)
     9d6:	02a7853b          	mulw	a0,a5,a0
     9da:	01a5053b          	addw	a0,a0,s10
     9de:	304000ef          	jal	ra,ce2 <__sd_readblk>
     9e2:	c52d                	beqz	a0,a4c <__fread+0x13e>
     9e4:	541c                	lw	a5,40(s0)
     9e6:	03842623          	sw	s8,44(s0)
     9ea:	1ff7f793          	andi	a5,a5,511
     9ee:	40fa87bb          	subw	a5,s5,a5
     9f2:	9cbd                	addw	s1,s1,a5
     9f4:	0564f363          	bgeu	s1,s6,a3a <__fread+0x12c>
     9f8:	893e                	mv	s2,a5
     9fa:	855e                	mv	a0,s7
     9fc:	019985b3          	add	a1,s3,s9
     a00:	864a                	mv	a2,s2
     a02:	586000ef          	jal	ra,f88 <__memcpy>
     a06:	541c                	lw	a5,40(s0)
     a08:	02091713          	slli	a4,s2,0x20
     a0c:	9301                	srli	a4,a4,0x20
     a0e:	012787bb          	addw	a5,a5,s2
     a12:	d41c                	sw	a5,40(s0)
     a14:	9bba                	add	s7,s7,a4
     a16:	4c81                	li	s9,0
     a18:	f964e2e3          	bltu	s1,s6,99c <__fread+0x8e>
     a1c:	4505                	li	a0,1
     a1e:	60e6                	ld	ra,88(sp)
     a20:	6446                	ld	s0,80(sp)
     a22:	64a6                	ld	s1,72(sp)
     a24:	6906                	ld	s2,64(sp)
     a26:	79e2                	ld	s3,56(sp)
     a28:	7a42                	ld	s4,48(sp)
     a2a:	7aa2                	ld	s5,40(sp)
     a2c:	7b02                	ld	s6,32(sp)
     a2e:	6be2                	ld	s7,24(sp)
     a30:	6c42                	ld	s8,16(sp)
     a32:	6ca2                	ld	s9,8(sp)
     a34:	6d02                	ld	s10,0(sp)
     a36:	6125                	addi	sp,sp,96
     a38:	8082                	ret
     a3a:	84da                	mv	s1,s6
     a3c:	bf7d                	j	9fa <__fread+0xec>
     a3e:	20000613          	li	a2,512
     a42:	85ce                	mv	a1,s3
     a44:	855e                	mv	a0,s7
     a46:	542000ef          	jal	ra,f88 <__memcpy>
     a4a:	bf35                	j	986 <__fread+0x78>
     a4c:	4501                	li	a0,0
     a4e:	bfc1                	j	a1e <__fread+0x110>
     a50:	4505                	li	a0,1
     a52:	8082                	ret

0000000000000a54 <__dma_cfg>:
     a54:	0046969b          	slliw	a3,a3,0x4
     a58:	00a8181b          	slliw	a6,a6,0xa
     a5c:	00d86833          	or	a6,a6,a3
     a60:	0067171b          	slliw	a4,a4,0x6
     a64:	100026b7          	lui	a3,0x10002
     a68:	00e86833          	or	a6,a6,a4
     a6c:	0087979b          	slliw	a5,a5,0x8
     a70:	80a6a023          	sw	a0,-2048(a3) # 10001800 <__stack+0xffc1800>
     a74:	00f86833          	or	a6,a6,a5
     a78:	80b6a223          	sw	a1,-2044(a3)
     a7c:	00186813          	ori	a6,a6,1
     a80:	80c6a423          	sw	a2,-2040(a3)
     a84:	2801                	sext.w	a6,a6
     a86:	8106a623          	sw	a6,-2036(a3)
     a8a:	8082                	ret

0000000000000a8c <__dma_busy>:
     a8c:	100027b7          	lui	a5,0x10002
     a90:	80c7a503          	lw	a0,-2036(a5) # 1000180c <__stack+0xffc180c>
     a94:	01f5551b          	srliw	a0,a0,0x1f
     a98:	8082                	ret

0000000000000a9a <__spi_init>:
     a9a:	0035151b          	slliw	a0,a0,0x3
     a9e:	100017b7          	lui	a5,0x10001
     aa2:	03857513          	andi	a0,a0,56
     aa6:	0007a023          	sw	zero,0(a5) # 10001000 <__stack+0xffc1000>
     aaa:	04456513          	ori	a0,a0,68
     aae:	c388                	sw	a0,0(a5)
     ab0:	4505                	li	a0,1
     ab2:	8082                	ret

0000000000000ab4 <__spi_rwbyte>:
     ab4:	10001737          	lui	a4,0x10001
     ab8:	471c                	lw	a5,8(a4)
     aba:	8b85                	andi	a5,a5,1
     abc:	dff5                	beqz	a5,ab8 <__spi_rwbyte+0x4>
     abe:	2501                	sext.w	a0,a0
     ac0:	c748                	sw	a0,12(a4)
     ac2:	10001737          	lui	a4,0x10001
     ac6:	471c                	lw	a5,8(a4)
     ac8:	8b89                	andi	a5,a5,2
     aca:	dff5                	beqz	a5,ac6 <__spi_rwbyte+0x12>
     acc:	4748                	lw	a0,12(a4)
     ace:	0ff57513          	zext.b	a0,a0
     ad2:	8082                	ret

0000000000000ad4 <__sd_getresp>:
     ad4:	c98d                	beqz	a1,b06 <__sd_getresp+0x32>
     ad6:	fff5879b          	addiw	a5,a1,-1
     ada:	1782                	slli	a5,a5,0x20
     adc:	00150693          	addi	a3,a0,1
     ae0:	9381                	srli	a5,a5,0x20
     ae2:	96be                	add	a3,a3,a5
     ae4:	10001737          	lui	a4,0x10001
     ae8:	0ff00613          	li	a2,255
     aec:	471c                	lw	a5,8(a4)
     aee:	8b85                	andi	a5,a5,1
     af0:	dff5                	beqz	a5,aec <__sd_getresp+0x18>
     af2:	c750                	sw	a2,12(a4)
     af4:	471c                	lw	a5,8(a4)
     af6:	8b89                	andi	a5,a5,2
     af8:	dff5                	beqz	a5,af4 <__sd_getresp+0x20>
     afa:	475c                	lw	a5,12(a4)
     afc:	0505                	addi	a0,a0,1
     afe:	fef50fa3          	sb	a5,-1(a0)
     b02:	fed515e3          	bne	a0,a3,aec <__sd_getresp+0x18>
     b06:	4505                	li	a0,1
     b08:	8082                	ret

0000000000000b0a <__sd_sendcmd>:
     b0a:	04056513          	ori	a0,a0,64
     b0e:	10001737          	lui	a4,0x10001
     b12:	471c                	lw	a5,8(a4)
     b14:	8b85                	andi	a5,a5,1
     b16:	dff5                	beqz	a5,b12 <__sd_sendcmd+0x8>
     b18:	0005079b          	sext.w	a5,a0
     b1c:	c75c                	sw	a5,12(a4)
     b1e:	10001737          	lui	a4,0x10001
     b22:	471c                	lw	a5,8(a4)
     b24:	8b89                	andi	a5,a5,2
     b26:	dff5                	beqz	a5,b22 <__sd_sendcmd+0x18>
     b28:	475c                	lw	a5,12(a4)
     b2a:	0185d69b          	srliw	a3,a1,0x18
     b2e:	10001737          	lui	a4,0x10001
     b32:	471c                	lw	a5,8(a4)
     b34:	8b85                	andi	a5,a5,1
     b36:	dff5                	beqz	a5,b32 <__sd_sendcmd+0x28>
     b38:	c754                	sw	a3,12(a4)
     b3a:	10001737          	lui	a4,0x10001
     b3e:	471c                	lw	a5,8(a4)
     b40:	8b89                	andi	a5,a5,2
     b42:	dff5                	beqz	a5,b3e <__sd_sendcmd+0x34>
     b44:	475c                	lw	a5,12(a4)
     b46:	0105d69b          	srliw	a3,a1,0x10
     b4a:	10001737          	lui	a4,0x10001
     b4e:	471c                	lw	a5,8(a4)
     b50:	8b85                	andi	a5,a5,1
     b52:	dff5                	beqz	a5,b4e <__sd_sendcmd+0x44>
     b54:	0ff6f793          	zext.b	a5,a3
     b58:	c75c                	sw	a5,12(a4)
     b5a:	10001737          	lui	a4,0x10001
     b5e:	471c                	lw	a5,8(a4)
     b60:	8b89                	andi	a5,a5,2
     b62:	dff5                	beqz	a5,b5e <__sd_sendcmd+0x54>
     b64:	475c                	lw	a5,12(a4)
     b66:	0085d69b          	srliw	a3,a1,0x8
     b6a:	10001737          	lui	a4,0x10001
     b6e:	471c                	lw	a5,8(a4)
     b70:	8b85                	andi	a5,a5,1
     b72:	dff5                	beqz	a5,b6e <__sd_sendcmd+0x64>
     b74:	0ff6f793          	zext.b	a5,a3
     b78:	c75c                	sw	a5,12(a4)
     b7a:	10001737          	lui	a4,0x10001
     b7e:	471c                	lw	a5,8(a4)
     b80:	8b89                	andi	a5,a5,2
     b82:	dff5                	beqz	a5,b7e <__sd_sendcmd+0x74>
     b84:	475c                	lw	a5,12(a4)
     b86:	10001737          	lui	a4,0x10001
     b8a:	471c                	lw	a5,8(a4)
     b8c:	8b85                	andi	a5,a5,1
     b8e:	dff5                	beqz	a5,b8a <__sd_sendcmd+0x80>
     b90:	0ff5f593          	zext.b	a1,a1
     b94:	c74c                	sw	a1,12(a4)
     b96:	10001737          	lui	a4,0x10001
     b9a:	471c                	lw	a5,8(a4)
     b9c:	8b89                	andi	a5,a5,2
     b9e:	dff5                	beqz	a5,b9a <__sd_sendcmd+0x90>
     ba0:	475c                	lw	a5,12(a4)
     ba2:	00166613          	ori	a2,a2,1
     ba6:	10001737          	lui	a4,0x10001
     baa:	471c                	lw	a5,8(a4)
     bac:	8b85                	andi	a5,a5,1
     bae:	dff5                	beqz	a5,baa <__sd_sendcmd+0xa0>
     bb0:	0006079b          	sext.w	a5,a2
     bb4:	c75c                	sw	a5,12(a4)
     bb6:	10001737          	lui	a4,0x10001
     bba:	471c                	lw	a5,8(a4)
     bbc:	8b89                	andi	a5,a5,2
     bbe:	dff5                	beqz	a5,bba <__sd_sendcmd+0xb0>
     bc0:	475c                	lw	a5,12(a4)
     bc2:	10001737          	lui	a4,0x10001
     bc6:	471c                	lw	a5,8(a4)
     bc8:	8b85                	andi	a5,a5,1
     bca:	dff5                	beqz	a5,bc6 <__sd_sendcmd+0xbc>
     bcc:	0ff00793          	li	a5,255
     bd0:	c75c                	sw	a5,12(a4)
     bd2:	10001737          	lui	a4,0x10001
     bd6:	471c                	lw	a5,8(a4)
     bd8:	8b89                	andi	a5,a5,2
     bda:	dff5                	beqz	a5,bd6 <__sd_sendcmd+0xcc>
     bdc:	4748                	lw	a0,12(a4)
     bde:	00857793          	andi	a5,a0,8
     be2:	0ff57513          	zext.b	a0,a0
     be6:	c79d                	beqz	a5,c14 <__sd_sendcmd+0x10a>
     be8:	6685                	lui	a3,0x1
     bea:	38868693          	addi	a3,a3,904 # 1388 <_DTB+0x258>
     bee:	10001737          	lui	a4,0x10001
     bf2:	0ff00613          	li	a2,255
     bf6:	471c                	lw	a5,8(a4)
     bf8:	8b85                	andi	a5,a5,1
     bfa:	dff5                	beqz	a5,bf6 <__sd_sendcmd+0xec>
     bfc:	c750                	sw	a2,12(a4)
     bfe:	471c                	lw	a5,8(a4)
     c00:	8b89                	andi	a5,a5,2
     c02:	dff5                	beqz	a5,bfe <__sd_sendcmd+0xf4>
     c04:	4748                	lw	a0,12(a4)
     c06:	00857793          	andi	a5,a0,8
     c0a:	0ff57513          	zext.b	a0,a0
     c0e:	c399                	beqz	a5,c14 <__sd_sendcmd+0x10a>
     c10:	36fd                	addiw	a3,a3,-1
     c12:	f2f5                	bnez	a3,bf6 <__sd_sendcmd+0xec>
     c14:	8082                	ret

0000000000000c16 <__sd_rcvdata>:
     c16:	10001737          	lui	a4,0x10001
     c1a:	435c                	lw	a5,4(a4)
     c1c:	6685                	lui	a3,0x1
     c1e:	88aa                	mv	a7,a0
     c20:	0047e793          	ori	a5,a5,4
     c24:	c35c                	sw	a5,4(a4)
     c26:	38a68693          	addi	a3,a3,906 # 138a <_DTB+0x25a>
     c2a:	0ff00593          	li	a1,255
     c2e:	0fe00813          	li	a6,254
     c32:	471c                	lw	a5,8(a4)
     c34:	8b85                	andi	a5,a5,1
     c36:	dff5                	beqz	a5,c32 <__sd_rcvdata+0x1c>
     c38:	c74c                	sw	a1,12(a4)
     c3a:	471c                	lw	a5,8(a4)
     c3c:	8b89                	andi	a5,a5,2
     c3e:	dff5                	beqz	a5,c3a <__sd_rcvdata+0x24>
     c40:	4748                	lw	a0,12(a4)
     c42:	36fd                	addiw	a3,a3,-1
     c44:	0ff57513          	zext.b	a0,a0
     c48:	caad                	beqz	a3,cba <__sd_rcvdata+0xa4>
     c4a:	ff0514e3          	bne	a0,a6,c32 <__sd_rcvdata+0x1c>
     c4e:	100027b7          	lui	a5,0x10002
     c52:	8007a023          	sw	zero,-2048(a5) # 10001800 <__stack+0xffc1800>
     c56:	0008851b          	sext.w	a0,a7
     c5a:	80a7a223          	sw	a0,-2044(a5)
     c5e:	20000713          	li	a4,512
     c62:	80e7a423          	sw	a4,-2040(a5)
     c66:	6705                	lui	a4,0x1
     c68:	86170713          	addi	a4,a4,-1951 # 861 <__fopen+0x11b>
     c6c:	80e7a623          	sw	a4,-2036(a5)
     c70:	10002737          	lui	a4,0x10002
     c74:	80c72783          	lw	a5,-2036(a4) # 1000180c <__stack+0xffc180c>
     c78:	01f7d79b          	srliw	a5,a5,0x1f
     c7c:	ffe5                	bnez	a5,c74 <__sd_rcvdata+0x5e>
     c7e:	10001737          	lui	a4,0x10001
     c82:	471c                	lw	a5,8(a4)
     c84:	8b85                	andi	a5,a5,1
     c86:	dff5                	beqz	a5,c82 <__sd_rcvdata+0x6c>
     c88:	0ff00793          	li	a5,255
     c8c:	c75c                	sw	a5,12(a4)
     c8e:	10001737          	lui	a4,0x10001
     c92:	471c                	lw	a5,8(a4)
     c94:	8b89                	andi	a5,a5,2
     c96:	dff5                	beqz	a5,c92 <__sd_rcvdata+0x7c>
     c98:	475c                	lw	a5,12(a4)
     c9a:	10001737          	lui	a4,0x10001
     c9e:	471c                	lw	a5,8(a4)
     ca0:	8b85                	andi	a5,a5,1
     ca2:	dff5                	beqz	a5,c9e <__sd_rcvdata+0x88>
     ca4:	0ff00793          	li	a5,255
     ca8:	c75c                	sw	a5,12(a4)
     caa:	10001737          	lui	a4,0x10001
     cae:	471c                	lw	a5,8(a4)
     cb0:	8b89                	andi	a5,a5,2
     cb2:	dff5                	beqz	a5,cae <__sd_rcvdata+0x98>
     cb4:	475c                	lw	a5,12(a4)
     cb6:	4505                	li	a0,1
     cb8:	e211                	bnez	a2,cbc <__sd_rcvdata+0xa6>
     cba:	8082                	ret
     cbc:	435c                	lw	a5,4(a4)
     cbe:	100016b7          	lui	a3,0x10001
     cc2:	9bed                	andi	a5,a5,-5
     cc4:	c35c                	sw	a5,4(a4)
     cc6:	469c                	lw	a5,8(a3)
     cc8:	8b85                	andi	a5,a5,1
     cca:	dff5                	beqz	a5,cc6 <__sd_rcvdata+0xb0>
     ccc:	0ff00793          	li	a5,255
     cd0:	c6dc                	sw	a5,12(a3)
     cd2:	10001737          	lui	a4,0x10001
     cd6:	471c                	lw	a5,8(a4)
     cd8:	8b89                	andi	a5,a5,2
     cda:	dff5                	beqz	a5,cd6 <__sd_rcvdata+0xc0>
     cdc:	475c                	lw	a5,12(a4)
     cde:	4505                	li	a0,1
     ce0:	8082                	ret

0000000000000ce2 <__sd_readblk>:
     ce2:	100016b7          	lui	a3,0x10001
     ce6:	42dc                	lw	a5,4(a3)
     ce8:	1141                	addi	sp,sp,-16
     cea:	e022                	sd	s0,0(sp)
     cec:	e406                	sd	ra,8(sp)
     cee:	0047e793          	ori	a5,a5,4
     cf2:	842e                	mv	s0,a1
     cf4:	c2dc                	sw	a5,4(a3)
     cf6:	85aa                	mv	a1,a0
     cf8:	4601                	li	a2,0
     cfa:	4545                	li	a0,17
     cfc:	e0fff0ef          	jal	ra,b0a <__sd_sendcmd>
     d00:	c511                	beqz	a0,d0c <__sd_readblk+0x2a>
     d02:	60a2                	ld	ra,8(sp)
     d04:	6402                	ld	s0,0(sp)
     d06:	4501                	li	a0,0
     d08:	0141                	addi	sp,sp,16
     d0a:	8082                	ret
     d0c:	8522                	mv	a0,s0
     d0e:	6402                	ld	s0,0(sp)
     d10:	60a2                	ld	ra,8(sp)
     d12:	4605                	li	a2,1
     d14:	20000593          	li	a1,512
     d18:	0141                	addi	sp,sp,16
     d1a:	bdf5                	j	c16 <__sd_rcvdata>

0000000000000d1c <__sd_init>:
     d1c:	7139                	addi	sp,sp,-64
     d1e:	f822                	sd	s0,48(sp)
     d20:	f426                	sd	s1,40(sp)
     d22:	10001437          	lui	s0,0x10001
     d26:	fc06                	sd	ra,56(sp)
     d28:	f04a                	sd	s2,32(sp)
     d2a:	ec4e                	sd	s3,24(sp)
     d2c:	07c00793          	li	a5,124
     d30:	00042023          	sw	zero,0(s0) # 10001000 <__stack+0xffc1000>
     d34:	c01c                	sw	a5,0(s0)
     d36:	84aa                	mv	s1,a0
     d38:	4505                	li	a0,1
     d3a:	27e000ef          	jal	ra,fb8 <__delay>
     d3e:	405c                	lw	a5,4(s0)
     d40:	46a9                	li	a3,10
     d42:	10001737          	lui	a4,0x10001
     d46:	9bed                	andi	a5,a5,-5
     d48:	c05c                	sw	a5,4(s0)
     d4a:	0ff00613          	li	a2,255
     d4e:	471c                	lw	a5,8(a4)
     d50:	8b85                	andi	a5,a5,1
     d52:	dff5                	beqz	a5,d4e <__sd_init+0x32>
     d54:	c750                	sw	a2,12(a4)
     d56:	471c                	lw	a5,8(a4)
     d58:	8b89                	andi	a5,a5,2
     d5a:	dff5                	beqz	a5,d56 <__sd_init+0x3a>
     d5c:	36fd                	addiw	a3,a3,-1 # 10000fff <__stack+0xffc0fff>
     d5e:	475c                	lw	a5,12(a4)
     d60:	0ff6f693          	zext.b	a3,a3
     d64:	f6ed                	bnez	a3,d4e <__sd_init+0x32>
     d66:	435c                	lw	a5,4(a4)
     d68:	09500613          	li	a2,149
     d6c:	4581                	li	a1,0
     d6e:	0047e793          	ori	a5,a5,4
     d72:	c35c                	sw	a5,4(a4)
     d74:	4501                	li	a0,0
     d76:	d95ff0ef          	jal	ra,b0a <__sd_sendcmd>
     d7a:	842a                	mv	s0,a0
     d7c:	3e900913          	li	s2,1001
     d80:	4985                	li	s3,1
     d82:	a031                	j	d8e <__sd_init+0x72>
     d84:	d87ff0ef          	jal	ra,b0a <__sd_sendcmd>
     d88:	842a                	mv	s0,a0
     d8a:	08090863          	beqz	s2,e1a <__sd_init+0xfe>
     d8e:	09500613          	li	a2,149
     d92:	4581                	li	a1,0
     d94:	4501                	li	a0,0
     d96:	397d                	addiw	s2,s2,-1
     d98:	ff3416e3          	bne	s0,s3,d84 <__sd_init+0x68>
     d9c:	08700613          	li	a2,135
     da0:	1aa00593          	li	a1,426
     da4:	4521                	li	a0,8
     da6:	d65ff0ef          	jal	ra,b0a <__sd_sendcmd>
     daa:	4795                	li	a5,5
     dac:	04f50163          	beq	a0,a5,dee <__sd_init+0xd2>
     db0:	06850d63          	beq	a0,s0,e2a <__sd_init+0x10e>
     db4:	100017b7          	lui	a5,0x10001
     db8:	0007a023          	sw	zero,0(a5) # 10001000 <__stack+0xffc1000>
     dbc:	05400713          	li	a4,84
     dc0:	09500613          	li	a2,149
     dc4:	4581                	li	a1,0
     dc6:	c398                	sw	a4,0(a5)
     dc8:	03b00513          	li	a0,59
     dcc:	d3fff0ef          	jal	ra,b0a <__sd_sendcmd>
     dd0:	09500613          	li	a2,149
     dd4:	20000593          	li	a1,512
     dd8:	4541                	li	a0,16
     dda:	d31ff0ef          	jal	ra,b0a <__sd_sendcmd>
     dde:	70e2                	ld	ra,56(sp)
     de0:	7442                	ld	s0,48(sp)
     de2:	74a2                	ld	s1,40(sp)
     de4:	7902                	ld	s2,32(sp)
     de6:	69e2                	ld	s3,24(sp)
     de8:	4509                	li	a0,2
     dea:	6121                	addi	sp,sp,64
     dec:	8082                	ret
     dee:	0034                	addi	a3,sp,8
     df0:	006c                	addi	a1,sp,12
     df2:	10001737          	lui	a4,0x10001
     df6:	0ff00613          	li	a2,255
     dfa:	471c                	lw	a5,8(a4)
     dfc:	8b85                	andi	a5,a5,1
     dfe:	dff5                	beqz	a5,dfa <__sd_init+0xde>
     e00:	c750                	sw	a2,12(a4)
     e02:	471c                	lw	a5,8(a4)
     e04:	8b89                	andi	a5,a5,2
     e06:	dff5                	beqz	a5,e02 <__sd_init+0xe6>
     e08:	475c                	lw	a5,12(a4)
     e0a:	0685                	addi	a3,a3,1
     e0c:	fef68fa3          	sb	a5,-1(a3)
     e10:	feb695e3          	bne	a3,a1,dfa <__sd_init+0xde>
     e14:	00048023          	sb	zero,0(s1)
     e18:	bf71                	j	db4 <__sd_init+0x98>
     e1a:	70e2                	ld	ra,56(sp)
     e1c:	7442                	ld	s0,48(sp)
     e1e:	74a2                	ld	s1,40(sp)
     e20:	7902                	ld	s2,32(sp)
     e22:	69e2                	ld	s3,24(sp)
     e24:	4505                	li	a0,1
     e26:	6121                	addi	sp,sp,64
     e28:	8082                	ret
     e2a:	0020                	addi	s0,sp,8
     e2c:	00c10913          	addi	s2,sp,12
     e30:	86a2                	mv	a3,s0
     e32:	10001737          	lui	a4,0x10001
     e36:	0ff00613          	li	a2,255
     e3a:	471c                	lw	a5,8(a4)
     e3c:	8b85                	andi	a5,a5,1
     e3e:	dff5                	beqz	a5,e3a <__sd_init+0x11e>
     e40:	c750                	sw	a2,12(a4)
     e42:	471c                	lw	a5,8(a4)
     e44:	8b89                	andi	a5,a5,2
     e46:	dff5                	beqz	a5,e42 <__sd_init+0x126>
     e48:	475c                	lw	a5,12(a4)
     e4a:	0685                	addi	a3,a3,1
     e4c:	fef68fa3          	sb	a5,-1(a3)
     e50:	ff2695e3          	bne	a3,s2,e3a <__sd_init+0x11e>
     e54:	4601                	li	a2,0
     e56:	4581                	li	a1,0
     e58:	03700513          	li	a0,55
     e5c:	cafff0ef          	jal	ra,b0a <__sd_sendcmd>
     e60:	4601                	li	a2,0
     e62:	400005b7          	lui	a1,0x40000
     e66:	02900513          	li	a0,41
     e6a:	ca1ff0ef          	jal	ra,b0a <__sd_sendcmd>
     e6e:	87aa                	mv	a5,a0
     e70:	3e800993          	li	s3,1000
     e74:	a829                	j	e8e <__sd_init+0x172>
     e76:	c95ff0ef          	jal	ra,b0a <__sd_sendcmd>
     e7a:	4601                	li	a2,0
     e7c:	400005b7          	lui	a1,0x40000
     e80:	02900513          	li	a0,41
     e84:	c87ff0ef          	jal	ra,b0a <__sd_sendcmd>
     e88:	87aa                	mv	a5,a0
     e8a:	00098863          	beqz	s3,e9a <__sd_init+0x17e>
     e8e:	4601                	li	a2,0
     e90:	4581                	li	a1,0
     e92:	03700513          	li	a0,55
     e96:	39fd                	addiw	s3,s3,-1
     e98:	fff9                	bnez	a5,e76 <__sd_init+0x15a>
     e9a:	4601                	li	a2,0
     e9c:	4581                	li	a1,0
     e9e:	03a00513          	li	a0,58
     ea2:	c69ff0ef          	jal	ra,b0a <__sd_sendcmd>
     ea6:	87aa                	mv	a5,a0
     ea8:	3e800993          	li	s3,1000
     eac:	a031                	j	eb8 <__sd_init+0x19c>
     eae:	c5dff0ef          	jal	ra,b0a <__sd_sendcmd>
     eb2:	87aa                	mv	a5,a0
     eb4:	00098863          	beqz	s3,ec4 <__sd_init+0x1a8>
     eb8:	4601                	li	a2,0
     eba:	4581                	li	a1,0
     ebc:	03a00513          	li	a0,58
     ec0:	39fd                	addiw	s3,s3,-1
     ec2:	f7f5                	bnez	a5,eae <__sd_init+0x192>
     ec4:	10001737          	lui	a4,0x10001
     ec8:	0ff00693          	li	a3,255
     ecc:	471c                	lw	a5,8(a4)
     ece:	8b85                	andi	a5,a5,1
     ed0:	dff5                	beqz	a5,ecc <__sd_init+0x1b0>
     ed2:	c754                	sw	a3,12(a4)
     ed4:	471c                	lw	a5,8(a4)
     ed6:	8b89                	andi	a5,a5,2
     ed8:	dff5                	beqz	a5,ed4 <__sd_init+0x1b8>
     eda:	475c                	lw	a5,12(a4)
     edc:	0405                	addi	s0,s0,1
     ede:	fef40fa3          	sb	a5,-1(s0)
     ee2:	ff2415e3          	bne	s0,s2,ecc <__sd_init+0x1b0>
     ee6:	00814783          	lbu	a5,8(sp)
     eea:	0407f793          	andi	a5,a5,64
     eee:	00f037b3          	snez	a5,a5
     ef2:	0789                	addi	a5,a5,2
     ef4:	00f48023          	sb	a5,0(s1)
     ef8:	bd75                	j	db4 <__sd_init+0x98>

0000000000000efa <__uart_init>:
     efa:	100007b7          	lui	a5,0x10000
     efe:	4705                	li	a4,1
     f00:	c798                	sw	a4,8(a5)
     f02:	c7d8                	sw	a4,12(a5)
     f04:	0007a823          	sw	zero,16(a5) # 10000010 <__stack+0xffc0010>
     f08:	10000737          	lui	a4,0x10000
     f0c:	435c                	lw	a5,4(a4)
     f0e:	fef04fe3          	bgtz	a5,f0c <__uart_init+0x12>
     f12:	8082                	ret

0000000000000f14 <__putch>:
     f14:	10000737          	lui	a4,0x10000
     f18:	40a727af          	amoor.w	a5,a0,(a4)
     f1c:	2781                	sext.w	a5,a5
     f1e:	fe07cde3          	bltz	a5,f18 <__putch+0x4>
     f22:	8082                	ret

0000000000000f24 <__puts>:
     f24:	00054683          	lbu	a3,0(a0)
     f28:	862a                	mv	a2,a0
     f2a:	4501                	li	a0,0
     f2c:	ce89                	beqz	a3,f46 <__puts+0x22>
     f2e:	10000737          	lui	a4,0x10000
     f32:	0605                	addi	a2,a2,1
     f34:	40d727af          	amoor.w	a5,a3,(a4)
     f38:	2781                	sext.w	a5,a5
     f3a:	fe07cde3          	bltz	a5,f34 <__puts+0x10>
     f3e:	00064683          	lbu	a3,0(a2)
     f42:	2505                	addiw	a0,a0,1
     f44:	f6fd                	bnez	a3,f32 <__puts+0xe>
     f46:	10000737          	lui	a4,0x10000
     f4a:	46a9                	li	a3,10
     f4c:	40d727af          	amoor.w	a5,a3,(a4)
     f50:	2781                	sext.w	a5,a5
     f52:	fe07cde3          	bltz	a5,f4c <__puts+0x28>
     f56:	8082                	ret

0000000000000f58 <__strcmp>:
     f58:	c605                	beqz	a2,f80 <__strcmp+0x28>
     f5a:	1602                	slli	a2,a2,0x20
     f5c:	9201                	srli	a2,a2,0x20
     f5e:	00c506b3          	add	a3,a0,a2
     f62:	a029                	j	f6c <__strcmp+0x14>
     f64:	02e7e063          	bltu	a5,a4,f84 <__strcmp+0x2c>
     f68:	00d50c63          	beq	a0,a3,f80 <__strcmp+0x28>
     f6c:	00054703          	lbu	a4,0(a0)
     f70:	0005c783          	lbu	a5,0(a1) # 40000000 <__stack+0x3ffc0000>
     f74:	0505                	addi	a0,a0,1
     f76:	0585                	addi	a1,a1,1
     f78:	fef776e3          	bgeu	a4,a5,f64 <__strcmp+0xc>
     f7c:	557d                	li	a0,-1
     f7e:	8082                	ret
     f80:	4501                	li	a0,0
     f82:	8082                	ret
     f84:	4505                	li	a0,1
     f86:	8082                	ret

0000000000000f88 <__memcpy>:
     f88:	1141                	addi	sp,sp,-16
     f8a:	88ae                	mv	a7,a1
     f8c:	e022                	sd	s0,0(sp)
     f8e:	0005059b          	sext.w	a1,a0
     f92:	842a                	mv	s0,a0
     f94:	4809                	li	a6,2
     f96:	4789                	li	a5,2
     f98:	4705                	li	a4,1
     f9a:	4685                	li	a3,1
     f9c:	0008851b          	sext.w	a0,a7
     fa0:	e406                	sd	ra,8(sp)
     fa2:	ab3ff0ef          	jal	ra,a54 <__dma_cfg>
     fa6:	ae7ff0ef          	jal	ra,a8c <__dma_busy>
     faa:	2501                	sext.w	a0,a0
     fac:	fd6d                	bnez	a0,fa6 <__memcpy+0x1e>
     fae:	60a2                	ld	ra,8(sp)
     fb0:	8522                	mv	a0,s0
     fb2:	6402                	ld	s0,0(sp)
     fb4:	0141                	addi	sp,sp,16
     fb6:	8082                	ret

0000000000000fb8 <__delay>:
     fb8:	000f47b7          	lui	a5,0xf4
     fbc:	2407879b          	addiw	a5,a5,576 # f4240 <__stack+0xb4240>
     fc0:	02a787bb          	mulw	a5,a5,a0
     fc4:	3e800613          	li	a2,1000
     fc8:	0800c737          	lui	a4,0x800c
     fcc:	ff873683          	ld	a3,-8(a4) # 800bff8 <__stack+0x7fcbff8>
     fd0:	08000713          	li	a4,128
     fd4:	02c7d7bb          	divuw	a5,a5,a2
     fd8:	1782                	slli	a5,a5,0x20
     fda:	9381                	srli	a5,a5,0x20
     fdc:	97b6                	add	a5,a5,a3
     fde:	080046b7          	lui	a3,0x8004
     fe2:	e29c                	sd	a5,0(a3)
     fe4:	30472073          	csrs	mie,a4
     fe8:	10500073          	wfi
     fec:	30473073          	csrc	mie,a4
     ff0:	8082                	ret

0000000000000ff2 <main>:
     ff2:	b8010113          	addi	sp,sp,-1152
     ff6:	46813823          	sd	s0,1136(sp)
     ffa:	47213023          	sd	s2,1120(sp)
     ffe:	747d                	lui	s0,0xfffff
    1000:	6905                	lui	s2,0x1
    1002:	72fd                	lui	t0,0xfffff
    1004:	46913423          	sd	s1,1128(sp)
    1008:	46090793          	addi	a5,s2,1120 # 1460 <_DTB+0x330>
    100c:	ba840493          	addi	s1,s0,-1112 # ffffffffffffeba8 <__stack+0xfffffffffffbeba8>
    1010:	46113c23          	sd	ra,1144(sp)
    1014:	97a6                	add	a5,a5,s1
    1016:	9116                	add	sp,sp,t0
    1018:	002784b3          	add	s1,a5,sp
    101c:	24913423          	sd	s1,584(sp)
    1020:	edbff0ef          	jal	ra,efa <__uart_init>
    1024:	00001517          	auipc	a0,0x1
    1028:	b9c50513          	addi	a0,a0,-1124 # 1bc0 <__data_end+0x33>
    102c:	ef9ff0ef          	jal	ra,f24 <__puts>
    1030:	00001517          	auipc	a0,0x1
    1034:	ba850513          	addi	a0,a0,-1112 # 1bd8 <__data_end+0x4b>
    1038:	eedff0ef          	jal	ra,f24 <__puts>
    103c:	ba740513          	addi	a0,s0,-1113
    1040:	46090793          	addi	a5,s2,1120
    1044:	97aa                	add	a5,a5,a0
    1046:	00278533          	add	a0,a5,sp
    104a:	cd3ff0ef          	jal	ra,d1c <__sd_init>
    104e:	00001517          	auipc	a0,0x1
    1052:	ba250513          	addi	a0,a0,-1118 # 1bf0 <__data_end+0x63>
    1056:	ecfff0ef          	jal	ra,f24 <__puts>
    105a:	8526                	mv	a0,s1
    105c:	9c4ff0ef          	jal	ra,220 <__fat_bpb_init>
    1060:	040004b7          	lui	s1,0x4000
    1064:	489c                	lw	a5,16(s1)
    1066:	c3ad                	beqz	a5,10c8 <main+0xd6>
    1068:	00001517          	auipc	a0,0x1
    106c:	be850513          	addi	a0,a0,-1048 # 1c50 <__data_end+0xc3>
    1070:	eb5ff0ef          	jal	ra,f24 <__puts>
    1074:	747d                	lui	s0,0xfffff
    1076:	6785                	lui	a5,0x1
    1078:	dc840413          	addi	s0,s0,-568 # ffffffffffffedc8 <__stack+0xfffffffffffbedc8>
    107c:	46078793          	addi	a5,a5,1120 # 1460 <_DTB+0x330>
    1080:	97a2                	add	a5,a5,s0
    1082:	00278433          	add	s0,a5,sp
    1086:	00001597          	auipc	a1,0x1
    108a:	be258593          	addi	a1,a1,-1054 # 1c68 <__data_end+0xdb>
    108e:	8522                	mv	a0,s0
    1090:	eb6ff0ef          	jal	ra,746 <__fopen>
    1094:	40100593          	li	a1,1025
    1098:	05d6                	slli	a1,a1,0x15
    109a:	8522                	mv	a0,s0
    109c:	85cff0ef          	jal	ra,f8 <__elf_loader_reloc>
    10a0:	00001517          	auipc	a0,0x1
    10a4:	bd050513          	addi	a0,a0,-1072 # 1c70 <__data_end+0xe3>
    10a8:	e7dff0ef          	jal	ra,f24 <__puts>
    10ac:	6285                	lui	t0,0x1
    10ae:	9116                	add	sp,sp,t0
    10b0:	47813083          	ld	ra,1144(sp)
    10b4:	47013403          	ld	s0,1136(sp)
    10b8:	46813483          	ld	s1,1128(sp)
    10bc:	46013903          	ld	s2,1120(sp)
    10c0:	4501                	li	a0,0
    10c2:	48010113          	addi	sp,sp,1152
    10c6:	8082                	ret
    10c8:	00001517          	auipc	a0,0x1
    10cc:	b4050513          	addi	a0,a0,-1216 # 1c08 <__data_end+0x7b>
    10d0:	e55ff0ef          	jal	ra,f24 <__puts>
    10d4:	6785                	lui	a5,0x1
    10d6:	dc840413          	addi	s0,s0,-568
    10da:	46078793          	addi	a5,a5,1120 # 1460 <_DTB+0x330>
    10de:	97a2                	add	a5,a5,s0
    10e0:	00278433          	add	s0,a5,sp
    10e4:	00001597          	auipc	a1,0x1
    10e8:	b3458593          	addi	a1,a1,-1228 # 1c18 <__data_end+0x8b>
    10ec:	8522                	mv	a0,s0
    10ee:	e58ff0ef          	jal	ra,746 <__fopen>
    10f2:	8522                	mv	a0,s0
    10f4:	928ff0ef          	jal	ra,21c <__elf_loader>
    10f8:	00001517          	auipc	a0,0x1
    10fc:	b3050513          	addi	a0,a0,-1232 # 1c28 <__data_end+0x9b>
    1100:	e25ff0ef          	jal	ra,f24 <__puts>
    1104:	00001597          	auipc	a1,0x1
    1108:	b3c58593          	addi	a1,a1,-1220 # 1c40 <__data_end+0xb3>
    110c:	8522                	mv	a0,s0
    110e:	e38ff0ef          	jal	ra,746 <__fopen>
    1112:	24412603          	lw	a2,580(sp)
    1116:	45a5                	li	a1,9
    1118:	05f2                	slli	a1,a1,0x1c
    111a:	8522                	mv	a0,s0
    111c:	ff2ff0ef          	jal	ra,90e <__fread>
    1120:	cafed7b7          	lui	a5,0xcafed
    1124:	afe78793          	addi	a5,a5,-1282 # ffffffffcafecafe <__stack+0xffffffffcafacafe>
    1128:	c89c                	sw	a5,16(s1)
    112a:	bf3d                	j	1068 <main+0x76>
