
main:     file format elf64-littleriscv
main
architecture: riscv:rv64, flags 0x00000112:
EXEC_P, HAS_SYMS, D_PAGED
start address 0x0000000000000000

Program Header:
0x70000003 off    0x0000000000002fb4 vaddr 0x0000000000000000 paddr 0x0000000000000000 align 2**0
         filesz 0x0000000000000044 memsz 0x0000000000000000 flags r--
    LOAD off    0x0000000000001000 vaddr 0x0000000000000000 paddr 0x0000000000000000 align 2**12
         filesz 0x0000000000001f99 memsz 0x0000000000001f99 flags rwx
    LOAD off    0x0000000000000000 vaddr 0x0000000000020000 paddr 0x0000000000020000 align 2**12
         filesz 0x0000000000000000 memsz 0x0000000000020000 flags rw-

Sections:
Idx Name          Size      VMA               LMA               File off  Algn
  0 .text         00001800  0000000000000000  0000000000000000  00001000  2**3
                  CONTENTS, ALLOC, LOAD, READONLY, CODE
  1 .rodata       00000039  0000000000001800  0000000000001800  00002800  2**3
                  CONTENTS, ALLOC, LOAD, READONLY, DATA
  2 .data         00000760  0000000000001839  0000000000001839  00002839  2**0
                  CONTENTS, ALLOC, LOAD, DATA
  3 .stack        00020000  0000000000020000  0000000000020000  00003000  2**0
                  ALLOC
  4 .comment      0000001b  0000000000000000  0000000000000000  00002f99  2**0
                  CONTENTS, READONLY
  5 .riscv.attributes 00000044  0000000000000000  0000000000000000  00002fb4  2**0
                  CONTENTS, READONLY
SYMBOL TABLE:
0000000000000000 l    d  .text	0000000000000000 .text
0000000000001800 l    d  .rodata	0000000000000000 .rodata
0000000000001839 l    d  .data	0000000000000000 .data
0000000000020000 l    d  .stack	0000000000000000 .stack
0000000000000000 l    d  .comment	0000000000000000 .comment
0000000000000000 l    d  .riscv.attributes	0000000000000000 .riscv.attributes
0000000000000000 l    df *ABS*	0000000000000000 setup.o
000000000000003e l       .text	0000000000000000 fill_stack
00000000000000dc l       .text	0000000000000000 fill_block
0000000000000054 l       .text	0000000000000000 init_stack
000000000000005c l       .text	0000000000000000 init_system
0000000000000098 l       .text	0000000000000000 rv64
00000000000000e8 l       .text	0000000000000000 sysram_base
00000000000000f0 l       .text	0000000000000000 sysram_size
00000000000000cc l       .text	0000000000000000 goto_main
00000000000000da l       .text	0000000000000000 dead_loop
00000000000000e6 l       .text	0000000000000000 fb_end
0000000000000000 l    df *ABS*	0000000000000000 main.c
0000000000000000 l    df *ABS*	0000000000000000 elf_loader.c
0000000000000000 l    df *ABS*	0000000000000000 iolib.c
0000000000000000 l    df *ABS*	0000000000000000 spi.c
0000000000000000 l    df *ABS*	0000000000000000 uart.c
0000000000000000 l    df *ABS*	0000000000000000 util.c
0000000000001310 g     F .text	0000000000000050 .hidden __puts
0000000000000759 g       *ABS*	0000000000000000 _binary_tmp_size
0000000000000de0 g     F .text	000000000000003c .hidden __spi_init
0000000000001839 g       *ABS*	0000000000000000 __data_paddr_start
00000000000014fe g     F .text	000000000000005c .hidden __delay
0000000000000000 g       .text	0000000000000000 __text_start
0000000000000b96 g     F .text	0000000000000192 .hidden __fread
00000000000010d0 g     F .text	00000000000001f6 .hidden __sd_init
0000000000001074 g     F .text	000000000000005c .hidden __sd_readblk
0000000000001360 g     F .text	0000000000000072 .hidden __strcmp
0000000000000d28 g     F .text	00000000000000b8 .hidden __dma_spi_mem_cpy
0000000000000000 g       .text	0000000000000000 _start
0000000000000224 g     F .text	00000000000001f2 .hidden __elf_loader
0000000000001840 g       .data	0000000000000000 _binary_tmp_start
0000000000000416 g     F .text	0000000000000400 .hidden __fat_bpb_init
0000000000001840 g       .data	0000000000000000 _DTB
0000000000001f99 g       .data	0000000000000000 __data_end
0000000000000ece g     F .text	00000000000000e0 .hidden __sd_sendcmd
00000000000013d2 g     F .text	000000000000012c .hidden __memcpy
0000000000001800 g       .text	0000000000000000 __text_end
00000000000000f8 g     F .text	000000000000005e .hidden main
00000000000012c6 g     F .text	0000000000000022 .hidden __uart_init
000000000003f000 g       .stack	0000000000000000 _stack_end
0000000000000156 g     F .text	00000000000000ce .hidden __dma_memfill
00000000000012e8 g     F .text	0000000000000028 .hidden __putch
0000000000000e1c g     F .text	0000000000000054 .hidden __spi_rwbyte
0000000000040000 g       .stack	0000000000000000 __stack
0000000000001f99 g       .data	0000000000000000 _binary_tmp_end
0000000000000816 g     F .text	00000000000002fc .hidden __fopen
0000000000000fae g     F .text	00000000000000c6 .hidden __sd_rcvdata
0000000000040000 g       .stack	0000000000000000 _stack
0000000000001839 g       .data	0000000000000000 __data_start
0000000000000e70 g     F .text	000000000000005e .hidden __sd_getresp
0000000000000b12 g     F .text	0000000000000084 .hidden __fseek


Contents of section .text:
 0000 81400141 81410142 81420143 81430144  .@.A.A.B.B.C.C.D
 0010 81440145 81450146 81460147 81470148  .D.E.E.F.F.G.G.H
 0020 81480149 8149014a 814a014b 814b014c  .H.I.I.J.J.K.K.L
 0030 814c014d 814d014e 814e014f 814f17f5  .L.M.M.N.N.O.O..
 0040 03001305 25fc9705 04009385 65fb0146  ....%.......e..F
 0050 ef00c008 17010400 1301c1fa f3221030  .............".0
 0060 63cc0202 b702001a 7390323c 97020000  c.......s.2<....
 0070 83a2c207 17030000 0323c307 7d131353  .........#..}..S
 0080 1300b3e2 620093d2 22007390 f23d1704  ....b...".s..=..
 0090 00000324 a4051da8 9b02d000 e6127390  ...$..........s.
 00a0 223c9702 000083b2 62041703 00000333  "<......b......3
 00b0 63047d13 13531300 b3e26200 93d22200  c.}..S....b...".
 00c0 7390f23d 17040000 03344402 732540f1  s..=.....4D.s%@.
 00d0 97150000 93850577 028401a0 63e5a500  .......w....c...
 00e0 10c11105 e5bf8280 00000080 00000000  ................
 00f0 00000080 00000000 1301019a 233c1164  ............#<.d
 0100 23388164 13040166 930704dd 2330f49c  #8.d...f....#0..
 0110 ef10601b 9307f4fe 3e85ef00 707b9307  ..`.....>...p{..
 0120 04dd3e85 ef00202f 9307049a 97150000  ..>... /........
 0130 93854570 3e85ef00 006e9307 049a3e85  ..Ep>....n....>.
 0140 ef00400e 81473e85 83308165 03340165  ..@..G>..0.e.4.e
 0150 13010166 82800111 22ec0010 2334a4fe  ...f...."...#4..
 0160 ae873287 2322f4fe ba872320 f4feb727  ..2.#"....# ...'
 0170 00109387 07800327 44fe98c3 033784fe  .......'D....7..
 0180 b7270010 93874780 012798c3 b7270010  .'....G..'...'..
 0190 93878780 032704fe 98c3b727 00109387  .....'.....'....
 01a0 c78023a0 0700b727 00109387 c7809c43  ..#....'.......C
 01b0 1b870700 b7270010 9387c780 13670707  .....'.......g..
 01c0 012798c3 b7270010 9387c780 9c431b87  .'...'.......C..
 01d0 0700b727 00109387 c780ba86 05671307  ...'.........g..
 01e0 07a0558f 012798c3 b7270010 9387c780  ..U..'...'......
 01f0 9c431b87 0700b727 00109387 c7801367  .C.....'.......g
 0200 17000127 98c30100 b7270010 9387c780  ...'.....'......
 0210 9c438127 8127e3c9 07fe8547 3e856264  .C.'.'.....G>.bd
 0220 05618280 130101dd 23341122 23308122  .a......#4."#0."
 0230 001c233c a4dc2326 04fe0146 81450335  ..#<..#&...F.E.5
 0240 84ddef00 100d9307 04fa1306 0004be85  ................
 0250 033584dd ef003014 61aa8357 84fd8127  .5....0.a..W...'
 0260 0327c4fe 999f8127 3e87a147 63e6e700  .'.....'>..Gc...
 0270 835784fd 812711a0 a1472322 f4fe8327  .W...'...G#"...'
 0280 c4fe3e87 ba879b97 3700999f 9b973700  ..>.....7.....7.
 0290 1b870700 833704fc 8127b99f 81270146  .....7...'...'.F
 02a0 be850335 84ddef00 d0068327 44fe3e87  ...5.......'D.>.
 02b0 ba879b97 3700999f 9b973700 1b870700  ....7.....7.....
 02c0 930704de 3a86be85 033584dd ef00b00c  ....:....5......
 02d0 232404fe eda80367 84feba87 8e07998f  #$.....g........
 02e0 8e07c117 a29783b7 87df8127 0146be85  ...........'.F..
 02f0 033584dd ef00f001 036784fe ba878e07  .5.......g......
 0300 998f8e07 c117a297 83b787e0 be860367  ...............g
 0310 84feba87 8e07998f 8e07c117 a29783b7  ................
 0320 07e18127 3e86b685 033584dd ef00b006  ...'>....5......
 0330 036784fe ba878e07 998f8e07 c117a297  .g..............
 0340 83b607e1 036784fe ba878e07 998f8e07  .....g..........
 0350 c117a297 83b787e1 63f6f606 036784fe  ........c....g..
 0360 ba878e07 998f8e07 c117a297 83b687e0  ................
 0370 036784fe ba878e07 998f8e07 c117a297  .g..............
 0380 83b707e1 b6973e85 036784fe ba878e07  ......>..g......
 0390 998f8e07 c117a297 83b787e1 9b860700  ................
 03a0 036784fe ba878e07 998f8e07 c117a297  .g..............
 03b0 83b707e1 8127bb87 f6408127 3e868145  .....'...@.'>..E
 03c0 eff07fd9 832784fe 85272324 f4fe8327  .....'...'#$...'
 03d0 84fe3e87 832744fe 01278127 e36df7ee  ..>..'D..'.'.m..
 03e0 8327c4fe 3e878327 44feb99f 2326f4fe  .'..>..'D...#&..
 03f0 835784fd 1b870700 8327c4fe 8127e3ee  .W.......'...'..
 0400 e7e48337 84fb3e85 83308122 03340122  ...7..>..0.".4."
 0410 13010123 82801301 01dd2334 11222330  ...#......#4."#0
 0420 8122001c 233ca4dc 231704fe 8357e4fe  ."..#<..#....W..
 0430 81271307 84deba85 3e85ef00 b043aa87  .'......>....C..
 0440 99e38147 c9a69307 84de9387 e71f83d7  ...G............
 0450 07001b87 0700ad67 938757a5 6304f700  .......g..W.c...
 0460 814755a6 930784de 93876703 21469715  .GU.......g.!F..
 0470 00009385 25393e85 ef00906e aa878127  ....%9>....n...'
 0480 99e78337 84dd0d47 238ae700 05a29307  ...7...G#.......
 0490 84de9387 67032146 97150000 93858537  ....g.!F.......7
 04a0 3e85ef00 f06baa87 812799e7 833784dd  >....k...'...7..
 04b0 1147238a e700dda8 930784de 93872705  .G#...........'.
 04c0 21469715 00009385 e5353e85 ef005069  !F.......5>...Pi
 04d0 aa878127 99e78337 84dd1547 238ae700  ...'...7...G#...
 04e0 f1a09307 84de9387 671c83d7 07002317  ........g.....#.
 04f0 f4fe8357 e4fe8127 130784de ba853e85  ...W...'......>.
 0500 ef005037 aa8799e3 8147f5ac 930784de  ..P7.....G......
 0510 9387e71f 83d70700 1b870700 ad679387  .............g..
 0520 57a56304 f7008147 f9ac9307 84de9387  W.c....G........
 0530 67032146 97150000 9385c52c 3e85ef00  g.!F.......,>...
 0540 3062aa87 812799e7 833784dd 0d47238a  0b...'...7...G#.
 0550 e700a9a8 930784de 93876703 21469715  ..........g.!F..
 0560 00009385 252b3e85 ef00905f aa878127  ....%+>...._...'
 0570 99e78337 84dd1147 238ae700 05a89307  ...7...G#.......
 0580 84de9387 27052146 97150000 93858529  ....'.!F.......)
 0590 3e85ef00 f05caa87 812799e7 833784dd  >....\...'...7..
 05a0 1547238a e70019a0 8147b1ac 834734df  .G#......G...G4.
 05b0 1b970701 1b570741 930784de ad078507  .....W.A........
 05c0 83c70700 81279b97 87008127 9b970701  .....'.....'....
 05d0 9bd70741 d98f9b97 07019bd7 07411397  ...A.........A..
 05e0 07034193 833784dd 2390e700 034754df  ..A..7..#....GT.
 05f0 833784dd 2389e700 833784dd 83c74701  .7..#....7....G.
 0600 3e879547 6319f700 930784de 93874702  >..Gc.........G.
 0610 83d70700 31a09307 84ded907 83d70700  ....1...........
 0620 033784dd 2311f700 034784df 833784dd  .7..#....G...7..
 0630 a389e700 834764df 1b970701 1b570741  .....Gd......W.A
 0640 930784de b9078507 83c70700 81279b97  .............'..
 0650 87008127 9b970701 9bd70741 d98f9b97  ...'.......A....
 0660 07019bd7 0741c217 c1930357 e4feb99f  .....A.....W....
 0670 13970703 41938337 84dd2392 e7008337  ....A..7..#....7
 0680 84dd83c7 37011397 07034193 833784dd  ....7.....A..7..
 0690 83d72700 bb07f702 13970703 41938337  ..'.........A..7
 06a0 84dd83d7 4700b99f 13970703 41938337  ....G.......A..7
 06b0 84dd2393 e7008347 94df1b97 07011b57  ..#....G.......W
 06c0 07419307 84dec507 850783c7 07008127  .A.............'
 06d0 9b978700 81279b97 07019bd7 0741d98f  .....'.......A..
 06e0 9b970701 9bd70741 13970703 41938337  .......A....A..7
 06f0 84dd2396 e7008337 84dd83c7 47013e87  ..#....7....G.>.
 0700 95476315 f7029307 84de9387 c70203d7  .Gc.............
 0710 07008337 84dd2397 e7008337 84dd03d7  ...7..#....7....
 0720 67008337 84dd2398 e70035a8 833784dd  g..7..#...5..7..
 0730 03d76700 833784dd 2397e700 833784dd  ..g..7..#....7..
 0740 83d7c700 9bd74700 13970703 41938337  ......G.....A..7
 0750 84dd83d7 6700b99f 13970703 41938337  ....g.......A..7
 0760 84dd2398 e7009307 84de9387 07029c43  ..#............C
 0770 99c79307 84de9387 07029c43 15a08347  ...........C...G
 0780 b4df1b87 07009307 84decd07 850783c7  ................
 0790 07008127 9b978700 8127d98f 81278127  ...'.....'...'.'
 07a0 2324f4fe 833784dd 83d70701 81270327  #$...7.......'.'
 07b0 84febb07 f7401b87 07008357 e4fe8127  .....@.....W...'
 07c0 b99f1b87 07008337 84dd83c7 27018127  .......7....'..'
 07d0 bb57f702 81278927 1b870700 833784dd  .W...'.'.....7..
 07e0 98c78337 84dd83d7 47001b87 07008337  ...7....G......7
 07f0 84dde107 be853a85 ef00d007 aa8799e3  ......:.........
 0800 814711a0 85473e85 83308122 03340122  .G...G>..0.".4."
 0810 13010123 82801301 01dc233c 11222338  ...#......#<."#8
 0820 81228004 2334a4dc 2330b4dc 231704fe  ."..#4..#0..#...
 0830 05a88337 04dc1387 17002330 e4dc03c7  ...7......#0....
 0840 07008357 e4fe9b86 17002317 d4fe8127  ...W......#....'
 0850 1377f7fd 1377f70f c117a297 2384e7fe  .w...w......#...
 0860 8357e4fe 1b870700 9d4763ee e7028337  .W.......Gc....7
 0870 04dc83c7 070085cb 833704dc 83c70700  .........7......
 0880 3e879307 e002e316 f7fa31a8 8357e4fe  >.........1..W..
 0890 1b871700 2317e4fe 8127c117 a2971307  ....#....'......
 08a0 00022384 e7fe8357 e4fe1b87 07009d47  ..#....W.......G
 08b0 e3fee7fc 833704dc 85072330 f4dc2317  .....7....#0..#.
 08c0 04fe05a8 833704dc 13871700 2330e4dc  .....7......#0..
 08d0 03c70700 8357e4fe 9b861700 2317d4fe  .....W......#...
 08e0 81271377 f7fd1377 f70fc117 a2972380  .'.w...w......#.
 08f0 e7fe8357 e4fe1b87 07008947 63e5e702  ...W.......Gc...
 0900 833704dc 83c70700 d5ff31a8 8357e4fe  .7........1..W..
 0910 1b871700 2317e4fe 8127c117 a2971307  ....#....'......
 0920 00022380 e7fe8357 e4fe1b87 07008947  ..#....W.......G
 0930 e3fee7fc 833784dc 9c7383d7 07018127  .....7...s.....'
 0940 130704dd ba853e85 ef00c072 aa8799e3  ......>....r....
 0950 814745aa 231704fe 61aa8357 e4fe8127  .GE.#...a..W...'
 0960 c117a297 83c707de 3e879307 500e6304  ........>...P.c.
 0970 f7048357 e4fe8127 130704dd ba971307  ...W...'........
 0980 84fd2146 ba853e85 ef00901d aa878127  ..!F..>........'
 0990 9de38357 e4fe8127 a1278127 130704dd  ...W...'.'.'....
 09a0 ba971307 04fd0d46 ba853e85 ef00501b  .......F..>...P.
 09b0 aa878127 81cb8357 e4fe9b87 07022317  ...'...W......#.
 09c0 f4fe3da2 8357e4fe 81271307 04ddba97  ..=..W...'......
 09d0 13060002 be850335 84dcef00 901f8337  .......5.......7
 09e0 84dc23a4 07028337 84dc7d57 d8d78337  ..#....7..}W...7
 09f0 84dc83d7 a7011b87 07008337 84dc83d7  ...........7....
 0a00 47018127 9b970701 81278127 d98f1b87  G..'.....'.'....
 0a10 07008337 84dc9c73 83d7e700 8127bb07  ...7...s.....'..
 0a20 f7401b87 07008337 84dc98db a30304fe  .@.....7........
 0a30 85472316 f4fe5da0 834774fe 93f7f70f  .G#...]..Gt.....
 0a40 b1ef8337 84dc9873 8357c4fe 8127fd37  ...7...s.W...'.7
 0a50 81278336 84dcb107 8a07b697 94438337  .'.6.........C.7
 0a60 84dc9c73 83d7e700 8127b59f 81278217  ...s.....'...'..
 0a70 81939107 8a07ba97 9c472324 f4fe8327  .........G#$...'
 0a80 84fe1b87 0700b707 0010fd17 b307f740  ...............@
 0a90 93b71700 93f7f70f a303f4fe 834774fe  .............Gt.
 0aa0 93f7f70f 89ef8337 84dc9c73 83d7e700  .......7...s....
 0ab0 81270327 84febb07 f7408127 11a0fd57  .'.'.....@.'...W
 0ac0 0357c4fe 01278336 84dc3107 0a073697  .W...'.6..1...6.
 0ad0 1cc38357 c4fe8527 2316f4fe 8357c4fe  ...W...'#....W..
 0ae0 1b870700 9307f007 e3f8e7f4 854711a8  .............G..
 0af0 8357e4fe 1b870700 9307f01f e3ffe7e4  .W..............
 0b00 81473e85 83308123 03340123 13010124  .G>..0.#.4.#...$
 0b10 82800111 22ec0010 2334a4fe ae873287  ...."...#4....2.
 0b20 2322f4fe ba87a301 f4fe8347 34fe8127  #".........G4..'
 0b30 be860947 638ee602 be860947 6346d704  ...Gc......GcF..
 0b40 91c73e87 85476309 f7003da8 833784fe  ..>..Gc...=..7..
 0b50 032744fe 98d71da8 833784fe 9c570327  .'D......7...W.'
 0b60 44feb99f 1b870700 833784fe 98d739a8  D........7....9.
 0b70 833784fe dc4f0327 44feb99f 1b870700  .7...O.'D.......
 0b80 833784fe 98d719a0 814711a0 85473e85  .7.......G...G>.
 0b90 62640561 82805d71 86e4a2e0 80082334  bd.a..]q......#4
 0ba0 a4fc2330 b4fcb287 232ef4fa 833704fc  ..#0....#....7..
 0bb0 2334f4fe 232004fe 833784fc 9c5793f7  #4..# ...7...W..
 0bc0 f71f232e f4fc91a2 833784fc 9c579bd7  ..#......7...W..
 0bd0 9700232c f4fc8337 84fcd857 832784fd  ..#,...7...W.'..
 0be0 81276387 e7088337 84fc9c73 83d70701  .'c....7...s....
 0bf0 1b870700 833784fc 9c7383c7 27018127  .....7...s..'..'
 0c00 832684fd bbf7f602 8127b99f 1b870700  .&.......'......
 0c10 833784fc 9c7383c7 27018127 832684fd  .7...s..'..'.&..
 0c20 bbd7f602 81278336 84fc8217 8193b107  .....'.6........
 0c30 8a07b697 94438337 84fc9c73 83c72701  .....C.7...s..'.
 0c40 8127bb87 f6028127 b99f1b87 07008337  .'.....'.......7
 0c50 84fc9387 0723be85 3a85ef00 a041aa87  .....#..:....A..
 0c60 99e38147 6da88337 84fc0327 84fdd8d7  ...Gm..7...'....
 0c70 833784fc 9c5793f7 f71f8127 13070020  .7...W.....'... 
 0c80 bb07f740 2322f4fe 832704fe 3e878327  ...@#"...'..>..'
 0c90 44feb99f 1b870700 8327c4fb 8127636b  D........'...'ck
 0ca0 f7008327 c4fb3e87 832704fe bb07f740  ...'..>..'.....@
 0cb0 2322f4fe 833784fc 13870723 8367c4fd  #"...7.....#.g..
 0cc0 ba970327 44fe3a86 be850335 84feef00  ...'D.:....5....
 0cd0 40708327 04fe3e87 832744fe b99f2320  @p.'..>..'D...# 
 0ce0 f4fe8367 44fe0337 84feba97 2334f4fe  ...gD..7....#4..
 0cf0 833784fc 9c570327 44feb99f 1b870700  .7...W.'D.......
 0d00 833784fc 98d7232e 04fc8327 04fe3e87  .7....#....'..>.
 0d10 8327c4fb 01278127 e368f7ea 85473e85  .'...'.'.h...G>.
 0d20 a6600664 61618280 011122ec 00102334  .`.daa...."...#4
 0d30 a4feae87 2322f4fe 033784fe b7270010  ....#"...7...'..
 0d40 93874780 012798c3 b7270010 93878780  ..G..'...'......
 0d50 032744fe 98c3b727 00109387 c78023a0  .'D....'......#.
 0d60 0700b727 00109387 c7809c43 1b870700  ...'.......C....
 0d70 b7270010 9387c780 13670706 012798c3  .'.......g...'..
 0d80 b7270010 9387c780 9c431b87 0700b727  .'.......C.....'
 0d90 00109387 c780ba86 05671307 0780558f  .........g....U.
 0da0 012798c3 b7270010 9387c780 9c431b87  .'...'.......C..
 0db0 0700b727 00109387 c7801367 17000127  ...'.......g...'
 0dc0 98c30100 b7270010 9387c780 9c438127  .....'.......C.'
 0dd0 8127e3c9 07fe8547 3e856264 05618280  .'.....G>.bd.a..
 0de0 011122ec 0010aa87 2326f4fe b7170010  ..".....#&......
 0df0 23a00700 8327c4fe 9b973700 812793f7  #....'....7..'..
 0e00 87031b87 0700b717 00101367 47040127  ...........gG..'
 0e10 98c38547 3e856264 05618280 011122ec  ...G>.bd.a....".
 0e20 0010aa87 a307f4fe 0100b717 0010a107  ................
 0e30 9c438127 858b8127 eddbb717 0010b107  .C.'...'........
 0e40 0347f4fe 012798c3 0100b717 0010a107  .G...'..........
 0e50 9c438127 898b8127 eddbb717 0010b107  .C.'...'........
 0e60 9c438127 93f7f70f 3e856264 05618280  .C.'....>.bd.a..
 0e70 397106fc 22f826f4 80002334 a4fcae87  9q..".&...#4....
 0e80 2322f4fc 232e04fc 1da08367 c4fd0337  #"..#......g...7
 0e90 84fcb304 f7001305 f00feff0 3ff8aa87  ............?...
 0ea0 2380f400 8327c4fd 8527232e f4fc8327  #....'...'#....'
 0eb0 c4fd3e87 832744fc 01278127 e367f7fc  ..>..'D..'.'.g..
 0ec0 85473e85 e2704274 a2742161 82807971  .G>..pBt.t!a..yq
 0ed0 06f422f0 0018aa87 ae863287 a30ff4fc  ..".......2.....
 0ee0 b687232c f4fcba87 230ff4fc 232604fe  ..#,....#...#&..
 0ef0 8347f4fd 93e70704 93f7f70f 3e85eff0  .G..........>...
 0f00 fff18327 84fd9bd7 87018127 93f7f70f  ...'.......'....
 0f10 3e85eff0 bff08327 84fd9bd7 07018127  >......'.......'
 0f20 93f7f70f 3e85eff0 7fef8327 84fd9bd7  ....>......'....
 0f30 87008127 93f7f70f 3e85eff0 3fee8327  ...'....>...?..'
 0f40 84fd93f7 f70f3e85 eff05fed 8347e4fd  ......>..._..G..
 0f50 93e71700 93f7f70f 3e85eff0 3fec1305  ........>...?...
 0f60 f00feff0 bfebaa87 a305f4fe 01a81305  ................
 0f70 f00feff0 bfeaaa87 a305f4fe 8347b4fe  .............G..
 0f80 8127a18b 812789cf 8327c4fe 1b871700  .'...'...'......
 0f90 2326e4fe 3e878567 93877738 e3f9e7fc  #&..>..g..w8....
 0fa0 8347b4fe 3e85a270 02744561 82807971  .G..>..p.tEa..yq
 0fb0 06f422f0 0018233c a4fcae87 3287232a  .."...#<....2.#*
 0fc0 f4fcba87 a309f4fc 232604fe b7170010  ........#&......
 0fd0 91079c43 1b870700 b7170010 91071367  ...C...........g
 0fe0 47000127 98c31305 f00feff0 3fe3aa87  G..'........?...
 0ff0 a305f4fe 8327c4fe 1b871700 2326e4fe  .....'......#&..
 1000 3e878567 93878738 63f5e700 8347b4fe  >..g...8c....G..
 1010 a9a88347 b4fe13f7 f70f9307 e00fe314  ...G............
 1020 f7fc9305 00200335 84fdeff0 ffcf1305  ..... .5........
 1030 f00feff0 bfde1305 f00feff0 3fde8347  ............?..G
 1040 34fd93f7 f70f8dc3 b7170010 91079c43  4..............C
 1050 1b870700 b7170010 91076d9b 012798c3  ..........m..'..
 1060 1305f00f eff09fdb 85473e85 a2700274  .........G>..p.t
 1070 45618280 011106ec 22e80010 aa872330  Ea......".....#0
 1080 b4fe2326 f4feb717 00109107 9c431b87  ..#&.........C..
 1090 0700b717 00109107 13674700 012798c3  .........gG..'..
 10a0 8327c4fe 0146be85 4545eff0 5fe2aa87  .'...F..EE.._...
 10b0 99c38147 09a80546 93050020 033504fe  ...G...F... .5..
 10c0 eff0ffee aa873e85 e2604264 05618280  ......>..`Bd.a..
 10d0 797106f4 22f00018 233ca4fc 230504fe  yq.."...#<..#...
 10e0 1d45eff0 ffcf0545 ef006041 b7170010  .E.....E..`A....
 10f0 91079c43 1b870700 b7170010 91076d9b  ...C..........m.
 1100 012798c3 a30504fe 11a81305 f00feff0  .'..............
 1110 ffd08347 b4fe8527 a305f4fe 8347b4fe  ...G...'.....G..
 1120 13f7f70f a547e3f2 e7feb717 00109107  .....G..........
 1130 9c431b87 0700b717 00109107 13674700  .C...........gG.
 1140 012798c3 85472305 f4fe2326 04fe1306  .'...G#...#&....
 1150 50098145 0145eff0 9fd7aa87 a304f4fe  P..E.E..........
 1160 8327c4fe 1b871700 2326e4fe 3e879307  .'......#&..>...
 1170 803e63f5 e7008347 a4fe89a2 834794fe  .>c....G.....G..
 1180 13f7f70f 8547e314 f7fc1306 70089305  .....G......p...
 1190 a01a2145 eff0bfd3 aa87a304 f4fe8347  ..!E...........G
 11a0 94fe13f7 f70f9547 631df700 930704fe  .......Gc.......
 11b0 91453e85 eff0dfcb 833784fd 23800700  .E>......7..#...
 11c0 d1a08347 94fe13f7 f70f8547 631cf70a  ...G.......Gc...
 11d0 930704fe 91453e85 eff09fc9 232604fe  .....E>.....#&..
 11e0 01468145 13057003 eff07fce aa87a304  .F.E..p.........
 11f0 f4fe0146 b7050040 13059002 eff03fcd  ...F...@......?.
 1200 aa87a304 f4fe8327 c4fe1b87 17002326  .......'......#&
 1210 e4fe3e87 9307703e 63e7e700 834794fe  ..>...p>c....G..
 1220 93f7f70f d5ff2326 04fe0146 81451305  ......#&...F.E..
 1230 a003eff0 dfc9aa87 a304f4fe 8327c4fe  .............'..
 1240 1b871700 2326e4fe 3e879307 703e63e7  ....#&..>...p>c.
 1250 e7008347 94fe93f7 f70fe1fb 930704fe  ...G............
 1260 91453e85 eff0dfc0 834704fe 812793f7  .E>......G...'..
 1270 07048127 99c38d47 11a08947 033784fd  ...'...G...G.7..
 1280 2300f700 0945eff0 bfb51306 50098145  #....E......P..E
 1290 1305b003 eff0bfc3 aa87a304 f4fe1306  ................
 12a0 50099305 00204145 eff07fc2 aa87a304  P.... AE........
 12b0 f4fe8947 2305f4fe 8347a4fe 3e85a270  ...G#....G..>..p
 12c0 02744561 82804111 22e40008 b7070010  .tEa..A.".......
 12d0 a1070547 98c3b707 0010b107 054798c3  ...G.........G..
 12e0 01002264 41018280 011122ec 0010aa87  .."dA.....".....
 12f0 a307f4fe 0100b707 00109c43 b7070010  ...........C....
 1300 0347f4fe 012798c3 01006264 05618280  .G...'....bd.a..
 1310 797106f4 22f00018 233ca4fc 232604fe  yq.."...#<..#&..
 1320 0da08337 84fd1387 1700233c e4fc83c7  ...7......#<....
 1330 07003e85 eff05ffb 8327c4fe 85272326  ..>..._..'...'#&
 1340 f4fe8337 84fd83c7 0700e1ff 2945eff0  ...7........)E..
 1350 bff98327 c4fe3e85 a2700274 45618280  ...'..>..p.tEa..
 1360 797122f4 00182334 a4fe2330 b4feb287  yq"...#4..#0....
 1370 232ef4fc 99a08337 84fe03c7 07008337  #......7.......7
 1380 04fe83c7 07006374 f700fd57 3da88337  ......ct...W=..7
 1390 84fe03c7 07008337 04fe83c7 070063f4  .......7......c.
 13a0 e7008547 1da08337 84fe8507 2334f4fe  ...G...7....#4..
 13b0 833704fe 85072330 f4fe8327 c4fd1b87  .7....#0...'....
 13c0 f7ff232e e4fcc5fb 81473e85 22744561  ..#......G>."tEa
 13d0 82807971 22f40018 2334a4fe 2330b4fe  ..yq"...#4..#0..
 13e0 b287232e f4fc0337 84fe8337 04fed98f  ..#....7...7....
 13f0 9d8bbdc3 05a88337 04fe03c7 07008337  .......7.......7
 1400 84fe2380 e7008337 84fe8507 2334f4fe  ..#....7....#4..
 1410 833704fe 85072330 f4fe8327 c4fdfd37  .7....#0...'...7
 1420 232ef4fc 8327c4fd 8127f1f7 d9a08337  #....'...'.....7
 1430 04fe9863 833784fe 98e38337 84fea107  ...c.7.....7....
 1440 2334f4fe 833704fe a1072330 f4fe8327  #4...7....#0...'
 1450 c4fde137 232ef4fc 8327c4fd 1b870700  ...7#....'......
 1460 9d47e3e6 e7fc8327 c4fd1b87 07008d47  .G.....'.......G
 1470 63f7e702 833704fe 98438337 84fe98c3  c....7...C.7....
 1480 833784fe 91072334 f4fe8337 04fe9107  .7....#4...7....
 1490 2330f4fe 8327c4fd f137232e f4fc8327  #0...'...7#....'
 14a0 c4fd1b87 07008547 63f9e702 833704fe  .......Gc....7..
 14b0 03d70700 833784fe 2390e700 833784fe  .....7..#....7..
 14c0 89072334 f4fe8337 04fe8907 2330f4fe  ..#4...7....#0..
 14d0 8327c4fd f937232e f4fc8327 c4fd8127  .'...7#....'...'
 14e0 89cb8337 04fe03c7 07008337 84fe2380  ...7.......7..#.
 14f0 e7008337 84fe3e85 22744561 82800111  ...7..>."tEa....
 1500 22ec0010 aa872326 f4feb7c7 0008e117  ".....#&........
 1510 94638327 c4fe3e87 b7470f00 9b870724  .c.'..>..G.....$
 1520 bb07f702 81273e87 f947bb57 f7028127  .....'>..G.W...'
 1530 13970702 0193b747 00083697 98e39307  .......G..6.....
 1540 000873a0 47307300 50109307 000873b0  ..s.G0s.P.....s.
 1550 47300100 62640561 82800000 00000000  G0..bd.a........
 1560 00000000 00000000 00000000 00000000  ................
 1570 00000000 00000000 00000000 00000000  ................
 1580 00000000 00000000 00000000 00000000  ................
 1590 00000000 00000000 00000000 00000000  ................
 15a0 00000000 00000000 00000000 00000000  ................
 15b0 00000000 00000000 00000000 00000000  ................
 15c0 00000000 00000000 00000000 00000000  ................
 15d0 00000000 00000000 00000000 00000000  ................
 15e0 00000000 00000000 00000000 00000000  ................
 15f0 00000000 00000000 00000000 00000000  ................
 1600 00000000 00000000 00000000 00000000  ................
 1610 00000000 00000000 00000000 00000000  ................
 1620 00000000 00000000 00000000 00000000  ................
 1630 00000000 00000000 00000000 00000000  ................
 1640 00000000 00000000 00000000 00000000  ................
 1650 00000000 00000000 00000000 00000000  ................
 1660 00000000 00000000 00000000 00000000  ................
 1670 00000000 00000000 00000000 00000000  ................
 1680 00000000 00000000 00000000 00000000  ................
 1690 00000000 00000000 00000000 00000000  ................
 16a0 00000000 00000000 00000000 00000000  ................
 16b0 00000000 00000000 00000000 00000000  ................
 16c0 00000000 00000000 00000000 00000000  ................
 16d0 00000000 00000000 00000000 00000000  ................
 16e0 00000000 00000000 00000000 00000000  ................
 16f0 00000000 00000000 00000000 00000000  ................
 1700 00000000 00000000 00000000 00000000  ................
 1710 00000000 00000000 00000000 00000000  ................
 1720 00000000 00000000 00000000 00000000  ................
 1730 00000000 00000000 00000000 00000000  ................
 1740 00000000 00000000 00000000 00000000  ................
 1750 00000000 00000000 00000000 00000000  ................
 1760 00000000 00000000 00000000 00000000  ................
 1770 00000000 00000000 00000000 00000000  ................
 1780 00000000 00000000 00000000 00000000  ................
 1790 00000000 00000000 00000000 00000000  ................
 17a0 00000000 00000000 00000000 00000000  ................
 17b0 00000000 00000000 00000000 00000000  ................
 17c0 00000000 00000000 00000000 00000000  ................
 17d0 00000000 00000000 00000000 00000000  ................
 17e0 00000000 00000000 00000000 00000000  ................
 17f0 00000000 00000000 00000000 00000000  ................
Contents of section .rodata:
 1800 46415431 32202020 00000000 00000000  FAT12   ........
 1810 46415431 36202020 00000000 00000000  FAT16   ........
 1820 46415433 32202020 00000000 00000000  FAT32   ........
 1830 626f6f74 2e62696e 00                 boot.bin.       
Contents of section .data:
 1839 00000000 000000d0 0dfeed00 00075900  ..............Y.
 1849 00003800 00060000 00002800 00001100  ..8.......(.....
 1859 00001000 00000000 00015900 0005c800  ..........Y.....
 1869 00000000 00000000 00000000 00000000  ................
 1879 00000100 00000000 00000300 00000800  ................
 1889 00000079 745f7276 36340000 00000300  ...yt_rv64......
 1899 00000f00 00000679 75746f6e 67007974  .......yutong.yt
 18a9 5f727636 34000000 00000300 00000400  _rv64...........
 18b9 00001100 00000200 00000300 00000400  ................
 18c9 00002000 00000200 00000300 00000400  .. .............
 18d9 00002c00 00000200 00000163 70757300  ..,........cpus.
 18e9 00000000 00000300 00000400 00003d00  ..............=.
 18f9 00000100 00000300 00000400 00001100  ................
 1909 00000100 00000300 00000400 00002000  .............. .
 1919 00000000 00000300 00000400 00004b00  ..............K.
 1929 98968000 00000163 70754030 00000000  .......cpu@0....
 1939 00000300 00000400 00005e63 70750000  ..........^cpu..
 1949 00000300 00000400 00006a00 00000000  ..........j.....
 1959 00000300 00000500 00006e6f 6b617900  ..........nokay.
 1969 00000000 00000300 00000600 00000672  ...............r
 1979 69736376 00000000 00000300 00000900  iscv............
 1989 00007572 76363469 6d616300 00000000  ..urv64imac.....
 1999 00000300 00000b00 00007f72 69736376  ...........riscv
 19a9 2c737634 38000000 00000300 00000400  ,sv48...........
 19b9 00008800 00001000 00000300 00000400  ................
 19c9 00009900 00000400 00000300 00000400  ................
 19d9 0000ae3b 9aca0000 00000300 00000000  ...;............
 19e9 0000be00 00000300 00000400 00003d00  ..............=.
 19f9 00000300 00000300 00000400 00004300  ..............C.
 1a09 00000300 00000169 6e746572 72757074  .......interrupt
 1a19 2d636f6e 74726f6c 6c657200 00000000  -controller.....
 1a29 00000300 00000400 0000cd00 00000100  ................
 1a39 00000300 00000000 0000de00 00000300  ................
 1a49 00000f00 00000672 69736376 2c637075  .......riscv,cpu
 1a59 2d696e74 63000000 00000300 00000400  -intc...........
 1a69 00003d00 00000400 00000300 00000400  ..=.............
 1a79 00004300 00000400 00000200 00000200  ..C.............
 1a89 00000163 70752d6d 61700000 00000163  ...cpu-map.....c
 1a99 6c757374 65723000 00000000 00000163  luster0........c
 1aa9 6f726530 00000000 00000300 00000400  ore0............
 1ab9 0000c900 00000300 00000200 00000200  ................
 1ac9 00000200 00000200 00000162 6f6f7472  ...........bootr
 1ad9 6f6d4030 00000000 00000300 00000800  om@0............
 1ae9 00005e62 6f6f7472 6f6d0000 00000300  ..^bootrom......
 1af9 00001000 00006a00 00000000 00000000  ......j.........
 1b09 00000000 00200000 00000200 00000173  ..... .........s
 1b19 79737261 6d403130 30303000 00000000  ysram@10000.....
 1b29 00000300 00000700 00005e6d 656d6f72  ..........^memor
 1b39 79000000 00000300 00001000 00006a00  y.............j.
 1b49 00000000 02000000 00000000 02000000  ................
 1b59 00000200 00000164 64724038 30303030  .......ddr@80000
 1b69 30303000 00000000 00000300 00000700  000.............
 1b79 00005e6d 656d6f72 79000000 00000300  ..^memory.......
 1b89 00001000 00006a00 00000080 00000000  ......j.........
 1b99 00000008 00000000 00000200 00000170  ...............p
 1ba9 65726962 75734030 34303030 30303000  eribus@04000000.
 1bb9 00000000 00000300 00000a00 00000672  ...............r
 1bc9 69736376 2c627573 00000000 00000300  iscv,bus........
 1bd9 00000400 00001100 00000100 00000300  ................
 1be9 00000400 00002000 00000100 00000300  ...... .........
 1bf9 00001000 00006a00 00000004 00000000  ......j.........
 1c09 00000010 00000000 00000163 66677265  ...........cfgre
 1c19 67403034 30303030 30300000 00000300  g@04000000......
 1c29 00000d00 00000672 69736376 2c636667  .......riscv,cfg
 1c39 72656700 00000000 00000300 00000800  reg.............
 1c49 00006a04 00000000 00100000 00000200  ..j.............
 1c59 00000163 6c696e74 40303830 30303030  ...clint@0800000
 1c69 30000000 00000300 00000d00 00000672  0..............r
 1c79 69736376 2c636c69 6e743000 00000000  iscv,clint0.....
 1c89 00000300 00000800 00006a08 00000000  ..........j.....
 1c99 01000000 00000300 00001000 0000f300  ................
 1ca9 00000400 00000700 00000400 00000300  ................
 1cb9 00000200 00000169 6e746572 72757074  .......interrupt
 1cc9 2d636f6e 74726f6c 6c657240 30633030  -controller@0c00
 1cd9 30303030 00000000 00000300 00000400  0000............
 1ce9 0000cd00 00000100 00000300 00000000  ................
 1cf9 0000de00 00000300 00000c00 00000672  ...............r
 1d09 69736376 2c706c69 63300000 00000300  iscv,plic0......
 1d19 00000400 00010700 00002000 00000300  .......... .....
 1d29 00000800 00006a0c 00000004 00000000  ......j.........
 1d39 00000300 00001000 0000f300 00000400  ................
 1d49 00000b00 00000400 00000900 00000300  ................
 1d59 00000400 00003d00 00000200 00000300  ......=.........
 1d69 00000400 00004300 00000200 00000200  ......C.........
 1d79 00000175 61727440 31303030 30303030  ...uart@10000000
 1d89 00000000 00000300 00000d00 00000673  ...............s
 1d99 69666976 652c7561 72743000 00000000  ifive,uart0.....
 1da9 00000300 00000800 00006a10 00000000  ..........j.....
 1db9 00100000 00000300 00000400 00011200  ................
 1dc9 00000100 00000200 00000200 00000163  ...............c
 1dd9 686f7365 6e000000 00000300 00000800  hosen...........
 1de9 00011d00 00000080 20000000 00000300  ........ .......
 1df9 00000800 00013000 00000084 00000000  ......0.........
 1e09 00000300 00000f00 00014172 6f6f743d  ..........Aroot=
 1e19 2f646576 2f736461 32000000 00000300  /dev/sda2.......
 1e29 00000400 00014a00 00060000 00000200  ......J.........
 1e39 00000200 0000096d 6f64656c 00636f6d  .......model.com
 1e49 70617469 626c6500 23616464 72657373  patible.#address
 1e59 2d63656c 6c730023 73697a65 2d63656c  -cells.#size-cel
 1e69 6c730069 6e746572 72757074 2d706172  ls.interrupt-par
 1e79 656e7400 6c696e75 782c7068 616e646c  ent.linux,phandl
 1e89 65007469 6d656261 73652d66 72657175  e.timebase-frequ
 1e99 656e6379 00646576 6963655f 74797065  ency.device_type
 1ea9 00726567 00737461 74757300 72697363  .reg.status.risc
 1eb9 762c6973 61006d6d 752d7479 70650072  v,isa.mmu-type.r
 1ec9 69736376 2c706d70 72656769 6f6e7300  iscv,pmpregions.
 1ed9 72697363 762c706d 70677261 6e756c61  riscv,pmpgranula
 1ee9 72697479 00636c6f 636b2d66 72657175  rity.clock-frequ
 1ef9 656e6379 006c696e 75782c62 6f6f742d  ency.linux,boot-
 1f09 63707500 23696e74 65727275 70742d63  cpu.#interrupt-c
 1f19 656c6c73 00696e74 65727275 70742d63  ells.interrupt-c
 1f29 6f6e7472 6f6c6c65 7200696e 74657272  ontroller.interr
 1f39 75707473 2d657874 656e6465 64007269  upts-extended.ri
 1f49 7363762c 6e646576 00696e74 65727275  scv,ndev.interru
 1f59 70747300 72697363 762c6b65 726e656c  pts.riscv,kernel
 1f69 2d737461 72740072 69736376 2c6b6572  -start.riscv,ker
 1f79 6e656c2d 656e6400 626f6f74 61726773  nel-end.bootargs
 1f89 006c696e 75782c70 6c617466 6f726d00  .linux,platform.
Contents of section .comment:
 0000 4743433a 20286735 39363462 35636437  GCC: (g5964b5cd7
 0010 32372920 31312e31 2e3000             27) 11.1.0.     
Contents of section .riscv.attributes:
 0000 41430000 00726973 63760001 39000000  AC...riscv..9...
 0010 04100572 76363469 3270315f 6d327030  ...rv64i2p1_m2p0
 0020 5f613270 315f6332 70305f7a 69637372  _a2p1_c2p0_zicsr
 0030 3270305f 7a696665 6e636569 32703000  2p0_zifencei2p0.
 0040 08010a0b                             ....            

Disassembly of section .text:

0000000000000000 <__text_start>:
       0:	4081                	li	ra,0
       2:	4101                	li	sp,0
       4:	4181                	li	gp,0
       6:	4201                	li	tp,0
       8:	4281                	li	t0,0
       a:	4301                	li	t1,0
       c:	4381                	li	t2,0
       e:	4401                	li	s0,0
      10:	4481                	li	s1,0
      12:	4501                	li	a0,0
      14:	4581                	li	a1,0
      16:	4601                	li	a2,0
      18:	4681                	li	a3,0
      1a:	4701                	li	a4,0
      1c:	4781                	li	a5,0
      1e:	4801                	li	a6,0
      20:	4881                	li	a7,0
      22:	4901                	li	s2,0
      24:	4981                	li	s3,0
      26:	4a01                	li	s4,0
      28:	4a81                	li	s5,0
      2a:	4b01                	li	s6,0
      2c:	4b81                	li	s7,0
      2e:	4c01                	li	s8,0
      30:	4c81                	li	s9,0
      32:	4d01                	li	s10,0
      34:	4d81                	li	s11,0
      36:	4e01                	li	t3,0
      38:	4e81                	li	t4,0
      3a:	4f01                	li	t5,0
      3c:	4f81                	li	t6,0

000000000000003e <fill_stack>:
      3e:	0003f517          	auipc	a0,0x3f
      42:	fc250513          	addi	a0,a0,-62 # 3f000 <_stack_end>
      46:	00040597          	auipc	a1,0x40
      4a:	fb658593          	addi	a1,a1,-74 # 3fffc <_stack_end+0xffc>
      4e:	4601                	li	a2,0
      50:	08c000ef          	jal	ra,dc <fill_block>

0000000000000054 <init_stack>:
      54:	00040117          	auipc	sp,0x40
      58:	fac10113          	addi	sp,sp,-84 # 40000 <__stack>

000000000000005c <init_system>:
      5c:	301022f3          	csrr	t0,misa
      60:	0202cc63          	bltz	t0,98 <rv64>
      64:	1a0002b7          	lui	t0,0x1a000
      68:	3c329073          	csrw	0x3c3,t0
      6c:	00000297          	auipc	t0,0x0
      70:	07c2a283          	lw	t0,124(t0) # e8 <sysram_base>
      74:	00000317          	auipc	t1,0x0
      78:	07c32303          	lw	t1,124(t1) # f0 <sysram_size>
      7c:	137d                	addi	t1,t1,-1
      7e:	00135313          	srli	t1,t1,0x1
      82:	0062e2b3          	or	t0,t0,t1
      86:	0022d293          	srli	t0,t0,0x2
      8a:	3df29073          	csrw	0x3df,t0
      8e:	00000417          	auipc	s0,0x0
      92:	05a42403          	lw	s0,90(s0) # e8 <sysram_base>
      96:	a81d                	j	cc <goto_main>

0000000000000098 <rv64>:
      98:	00d0029b          	addiw	t0,zero,13
      9c:	12e6                	slli	t0,t0,0x39
      9e:	3c229073          	csrw	0x3c2,t0
      a2:	00000297          	auipc	t0,0x0
      a6:	0462b283          	ld	t0,70(t0) # e8 <sysram_base>
      aa:	00000317          	auipc	t1,0x0
      ae:	04633303          	ld	t1,70(t1) # f0 <sysram_size>
      b2:	137d                	addi	t1,t1,-1
      b4:	00135313          	srli	t1,t1,0x1
      b8:	0062e2b3          	or	t0,t0,t1
      bc:	0022d293          	srli	t0,t0,0x2
      c0:	3df29073          	csrw	0x3df,t0
      c4:	00000417          	auipc	s0,0x0
      c8:	02443403          	ld	s0,36(s0) # e8 <sysram_base>

00000000000000cc <goto_main>:
      cc:	f1402573          	csrr	a0,mhartid
      d0:	00001597          	auipc	a1,0x1
      d4:	77058593          	addi	a1,a1,1904 # 1840 <_DTB>
      d8:	8402                	jr	s0

00000000000000da <dead_loop>:
      da:	a001                	j	da <dead_loop>

00000000000000dc <fill_block>:
      dc:	00a5e563          	bltu	a1,a0,e6 <fb_end>
      e0:	c110                	sw	a2,0(a0)
      e2:	0511                	addi	a0,a0,4
      e4:	bfe5                	j	dc <fill_block>

00000000000000e6 <fb_end>:
      e6:	8082                	ret

00000000000000e8 <sysram_base>:
      e8:	80000000          	.word	0x80000000
      ec:	00000000          	.word	0x00000000

00000000000000f0 <sysram_size>:
      f0:	80000000          	.word	0x80000000
      f4:	00000000          	.word	0x00000000

00000000000000f8 <main>:
      f8:	9a010113          	addi	sp,sp,-1632
      fc:	64113c23          	sd	ra,1624(sp)
     100:	64813823          	sd	s0,1616(sp)
     104:	66010413          	addi	s0,sp,1632
     108:	dd040793          	addi	a5,s0,-560
     10c:	9cf43023          	sd	a5,-1600(s0)
     110:	1b6010ef          	jal	ra,12c6 <__uart_init>
     114:	fef40793          	addi	a5,s0,-17
     118:	853e                	mv	a0,a5
     11a:	7b7000ef          	jal	ra,10d0 <__sd_init>
     11e:	dd040793          	addi	a5,s0,-560
     122:	853e                	mv	a0,a5
     124:	2f2000ef          	jal	ra,416 <__fat_bpb_init>
     128:	9a040793          	addi	a5,s0,-1632
     12c:	00001597          	auipc	a1,0x1
     130:	70458593          	addi	a1,a1,1796 # 1830 <__text_end+0x30>
     134:	853e                	mv	a0,a5
     136:	6e0000ef          	jal	ra,816 <__fopen>
     13a:	9a040793          	addi	a5,s0,-1632
     13e:	853e                	mv	a0,a5
     140:	0e4000ef          	jal	ra,224 <__elf_loader>
     144:	4781                	li	a5,0
     146:	853e                	mv	a0,a5
     148:	65813083          	ld	ra,1624(sp)
     14c:	65013403          	ld	s0,1616(sp)
     150:	66010113          	addi	sp,sp,1632
     154:	8082                	ret

0000000000000156 <__dma_memfill>:
     156:	1101                	addi	sp,sp,-32
     158:	ec22                	sd	s0,24(sp)
     15a:	1000                	addi	s0,sp,32
     15c:	fea43423          	sd	a0,-24(s0)
     160:	87ae                	mv	a5,a1
     162:	8732                	mv	a4,a2
     164:	fef42223          	sw	a5,-28(s0)
     168:	87ba                	mv	a5,a4
     16a:	fef42023          	sw	a5,-32(s0)
     16e:	100027b7          	lui	a5,0x10002
     172:	80078793          	addi	a5,a5,-2048 # 10001800 <__stack+0xffc1800>
     176:	fe442703          	lw	a4,-28(s0)
     17a:	c398                	sw	a4,0(a5)
     17c:	fe843703          	ld	a4,-24(s0)
     180:	100027b7          	lui	a5,0x10002
     184:	80478793          	addi	a5,a5,-2044 # 10001804 <__stack+0xffc1804>
     188:	2701                	sext.w	a4,a4
     18a:	c398                	sw	a4,0(a5)
     18c:	100027b7          	lui	a5,0x10002
     190:	80878793          	addi	a5,a5,-2040 # 10001808 <__stack+0xffc1808>
     194:	fe042703          	lw	a4,-32(s0)
     198:	c398                	sw	a4,0(a5)
     19a:	100027b7          	lui	a5,0x10002
     19e:	80c78793          	addi	a5,a5,-2036 # 1000180c <__stack+0xffc180c>
     1a2:	0007a023          	sw	zero,0(a5)
     1a6:	100027b7          	lui	a5,0x10002
     1aa:	80c78793          	addi	a5,a5,-2036 # 1000180c <__stack+0xffc180c>
     1ae:	439c                	lw	a5,0(a5)
     1b0:	0007871b          	sext.w	a4,a5
     1b4:	100027b7          	lui	a5,0x10002
     1b8:	80c78793          	addi	a5,a5,-2036 # 1000180c <__stack+0xffc180c>
     1bc:	07076713          	ori	a4,a4,112
     1c0:	2701                	sext.w	a4,a4
     1c2:	c398                	sw	a4,0(a5)
     1c4:	100027b7          	lui	a5,0x10002
     1c8:	80c78793          	addi	a5,a5,-2036 # 1000180c <__stack+0xffc180c>
     1cc:	439c                	lw	a5,0(a5)
     1ce:	0007871b          	sext.w	a4,a5
     1d2:	100027b7          	lui	a5,0x10002
     1d6:	80c78793          	addi	a5,a5,-2036 # 1000180c <__stack+0xffc180c>
     1da:	86ba                	mv	a3,a4
     1dc:	6705                	lui	a4,0x1
     1de:	a0070713          	addi	a4,a4,-1536 # a00 <__fopen+0x1ea>
     1e2:	8f55                	or	a4,a4,a3
     1e4:	2701                	sext.w	a4,a4
     1e6:	c398                	sw	a4,0(a5)
     1e8:	100027b7          	lui	a5,0x10002
     1ec:	80c78793          	addi	a5,a5,-2036 # 1000180c <__stack+0xffc180c>
     1f0:	439c                	lw	a5,0(a5)
     1f2:	0007871b          	sext.w	a4,a5
     1f6:	100027b7          	lui	a5,0x10002
     1fa:	80c78793          	addi	a5,a5,-2036 # 1000180c <__stack+0xffc180c>
     1fe:	00176713          	ori	a4,a4,1
     202:	2701                	sext.w	a4,a4
     204:	c398                	sw	a4,0(a5)
     206:	0001                	nop
     208:	100027b7          	lui	a5,0x10002
     20c:	80c78793          	addi	a5,a5,-2036 # 1000180c <__stack+0xffc180c>
     210:	439c                	lw	a5,0(a5)
     212:	2781                	sext.w	a5,a5
     214:	2781                	sext.w	a5,a5
     216:	fe07c9e3          	bltz	a5,208 <__dma_memfill+0xb2>
     21a:	4785                	li	a5,1
     21c:	853e                	mv	a0,a5
     21e:	6462                	ld	s0,24(sp)
     220:	6105                	addi	sp,sp,32
     222:	8082                	ret

0000000000000224 <__elf_loader>:
     224:	dd010113          	addi	sp,sp,-560
     228:	22113423          	sd	ra,552(sp)
     22c:	22813023          	sd	s0,544(sp)
     230:	1c00                	addi	s0,sp,560
     232:	dca43c23          	sd	a0,-552(s0)
     236:	fe042623          	sw	zero,-20(s0)
     23a:	4601                	li	a2,0
     23c:	4581                	li	a1,0
     23e:	dd843503          	ld	a0,-552(s0)
     242:	0d1000ef          	jal	ra,b12 <__fseek>
     246:	fa040793          	addi	a5,s0,-96
     24a:	04000613          	li	a2,64
     24e:	85be                	mv	a1,a5
     250:	dd843503          	ld	a0,-552(s0)
     254:	143000ef          	jal	ra,b96 <__fread>
     258:	aa61                	j	3f0 <__elf_loader+0x1cc>
     25a:	fd845783          	lhu	a5,-40(s0)
     25e:	2781                	sext.w	a5,a5
     260:	fec42703          	lw	a4,-20(s0)
     264:	9f99                	subw	a5,a5,a4
     266:	2781                	sext.w	a5,a5
     268:	873e                	mv	a4,a5
     26a:	47a1                	li	a5,8
     26c:	00e7e663          	bltu	a5,a4,278 <__elf_loader+0x54>
     270:	fd845783          	lhu	a5,-40(s0)
     274:	2781                	sext.w	a5,a5
     276:	a011                	j	27a <__elf_loader+0x56>
     278:	47a1                	li	a5,8
     27a:	fef42223          	sw	a5,-28(s0)
     27e:	fec42783          	lw	a5,-20(s0)
     282:	873e                	mv	a4,a5
     284:	87ba                	mv	a5,a4
     286:	0037979b          	slliw	a5,a5,0x3
     28a:	9f99                	subw	a5,a5,a4
     28c:	0037979b          	slliw	a5,a5,0x3
     290:	0007871b          	sext.w	a4,a5
     294:	fc043783          	ld	a5,-64(s0)
     298:	2781                	sext.w	a5,a5
     29a:	9fb9                	addw	a5,a5,a4
     29c:	2781                	sext.w	a5,a5
     29e:	4601                	li	a2,0
     2a0:	85be                	mv	a1,a5
     2a2:	dd843503          	ld	a0,-552(s0)
     2a6:	06d000ef          	jal	ra,b12 <__fseek>
     2aa:	fe442783          	lw	a5,-28(s0)
     2ae:	873e                	mv	a4,a5
     2b0:	87ba                	mv	a5,a4
     2b2:	0037979b          	slliw	a5,a5,0x3
     2b6:	9f99                	subw	a5,a5,a4
     2b8:	0037979b          	slliw	a5,a5,0x3
     2bc:	0007871b          	sext.w	a4,a5
     2c0:	de040793          	addi	a5,s0,-544
     2c4:	863a                	mv	a2,a4
     2c6:	85be                	mv	a1,a5
     2c8:	dd843503          	ld	a0,-552(s0)
     2cc:	0cb000ef          	jal	ra,b96 <__fread>
     2d0:	fe042423          	sw	zero,-24(s0)
     2d4:	a8ed                	j	3ce <__elf_loader+0x1aa>
     2d6:	fe846703          	lwu	a4,-24(s0)
     2da:	87ba                	mv	a5,a4
     2dc:	078e                	slli	a5,a5,0x3
     2de:	8f99                	sub	a5,a5,a4
     2e0:	078e                	slli	a5,a5,0x3
     2e2:	17c1                	addi	a5,a5,-16
     2e4:	97a2                	add	a5,a5,s0
     2e6:	df87b783          	ld	a5,-520(a5)
     2ea:	2781                	sext.w	a5,a5
     2ec:	4601                	li	a2,0
     2ee:	85be                	mv	a1,a5
     2f0:	dd843503          	ld	a0,-552(s0)
     2f4:	01f000ef          	jal	ra,b12 <__fseek>
     2f8:	fe846703          	lwu	a4,-24(s0)
     2fc:	87ba                	mv	a5,a4
     2fe:	078e                	slli	a5,a5,0x3
     300:	8f99                	sub	a5,a5,a4
     302:	078e                	slli	a5,a5,0x3
     304:	17c1                	addi	a5,a5,-16
     306:	97a2                	add	a5,a5,s0
     308:	e087b783          	ld	a5,-504(a5)
     30c:	86be                	mv	a3,a5
     30e:	fe846703          	lwu	a4,-24(s0)
     312:	87ba                	mv	a5,a4
     314:	078e                	slli	a5,a5,0x3
     316:	8f99                	sub	a5,a5,a4
     318:	078e                	slli	a5,a5,0x3
     31a:	17c1                	addi	a5,a5,-16
     31c:	97a2                	add	a5,a5,s0
     31e:	e107b783          	ld	a5,-496(a5)
     322:	2781                	sext.w	a5,a5
     324:	863e                	mv	a2,a5
     326:	85b6                	mv	a1,a3
     328:	dd843503          	ld	a0,-552(s0)
     32c:	06b000ef          	jal	ra,b96 <__fread>
     330:	fe846703          	lwu	a4,-24(s0)
     334:	87ba                	mv	a5,a4
     336:	078e                	slli	a5,a5,0x3
     338:	8f99                	sub	a5,a5,a4
     33a:	078e                	slli	a5,a5,0x3
     33c:	17c1                	addi	a5,a5,-16
     33e:	97a2                	add	a5,a5,s0
     340:	e107b683          	ld	a3,-496(a5)
     344:	fe846703          	lwu	a4,-24(s0)
     348:	87ba                	mv	a5,a4
     34a:	078e                	slli	a5,a5,0x3
     34c:	8f99                	sub	a5,a5,a4
     34e:	078e                	slli	a5,a5,0x3
     350:	17c1                	addi	a5,a5,-16
     352:	97a2                	add	a5,a5,s0
     354:	e187b783          	ld	a5,-488(a5)
     358:	06f6f663          	bgeu	a3,a5,3c4 <__elf_loader+0x1a0>
     35c:	fe846703          	lwu	a4,-24(s0)
     360:	87ba                	mv	a5,a4
     362:	078e                	slli	a5,a5,0x3
     364:	8f99                	sub	a5,a5,a4
     366:	078e                	slli	a5,a5,0x3
     368:	17c1                	addi	a5,a5,-16
     36a:	97a2                	add	a5,a5,s0
     36c:	e087b683          	ld	a3,-504(a5)
     370:	fe846703          	lwu	a4,-24(s0)
     374:	87ba                	mv	a5,a4
     376:	078e                	slli	a5,a5,0x3
     378:	8f99                	sub	a5,a5,a4
     37a:	078e                	slli	a5,a5,0x3
     37c:	17c1                	addi	a5,a5,-16
     37e:	97a2                	add	a5,a5,s0
     380:	e107b783          	ld	a5,-496(a5)
     384:	97b6                	add	a5,a5,a3
     386:	853e                	mv	a0,a5
     388:	fe846703          	lwu	a4,-24(s0)
     38c:	87ba                	mv	a5,a4
     38e:	078e                	slli	a5,a5,0x3
     390:	8f99                	sub	a5,a5,a4
     392:	078e                	slli	a5,a5,0x3
     394:	17c1                	addi	a5,a5,-16
     396:	97a2                	add	a5,a5,s0
     398:	e187b783          	ld	a5,-488(a5)
     39c:	0007869b          	sext.w	a3,a5
     3a0:	fe846703          	lwu	a4,-24(s0)
     3a4:	87ba                	mv	a5,a4
     3a6:	078e                	slli	a5,a5,0x3
     3a8:	8f99                	sub	a5,a5,a4
     3aa:	078e                	slli	a5,a5,0x3
     3ac:	17c1                	addi	a5,a5,-16
     3ae:	97a2                	add	a5,a5,s0
     3b0:	e107b783          	ld	a5,-496(a5)
     3b4:	2781                	sext.w	a5,a5
     3b6:	40f687bb          	subw	a5,a3,a5
     3ba:	2781                	sext.w	a5,a5
     3bc:	863e                	mv	a2,a5
     3be:	4581                	li	a1,0
     3c0:	d97ff0ef          	jal	ra,156 <__dma_memfill>
     3c4:	fe842783          	lw	a5,-24(s0)
     3c8:	2785                	addiw	a5,a5,1
     3ca:	fef42423          	sw	a5,-24(s0)
     3ce:	fe842783          	lw	a5,-24(s0)
     3d2:	873e                	mv	a4,a5
     3d4:	fe442783          	lw	a5,-28(s0)
     3d8:	2701                	sext.w	a4,a4
     3da:	2781                	sext.w	a5,a5
     3dc:	eef76de3          	bltu	a4,a5,2d6 <__elf_loader+0xb2>
     3e0:	fec42783          	lw	a5,-20(s0)
     3e4:	873e                	mv	a4,a5
     3e6:	fe442783          	lw	a5,-28(s0)
     3ea:	9fb9                	addw	a5,a5,a4
     3ec:	fef42623          	sw	a5,-20(s0)
     3f0:	fd845783          	lhu	a5,-40(s0)
     3f4:	0007871b          	sext.w	a4,a5
     3f8:	fec42783          	lw	a5,-20(s0)
     3fc:	2781                	sext.w	a5,a5
     3fe:	e4e7eee3          	bltu	a5,a4,25a <__elf_loader+0x36>
     402:	fb843783          	ld	a5,-72(s0)
     406:	853e                	mv	a0,a5
     408:	22813083          	ld	ra,552(sp)
     40c:	22013403          	ld	s0,544(sp)
     410:	23010113          	addi	sp,sp,560
     414:	8082                	ret

0000000000000416 <__fat_bpb_init>:
     416:	dd010113          	addi	sp,sp,-560
     41a:	22113423          	sd	ra,552(sp)
     41e:	22813023          	sd	s0,544(sp)
     422:	1c00                	addi	s0,sp,560
     424:	dca43c23          	sd	a0,-552(s0)
     428:	fe041723          	sh	zero,-18(s0)
     42c:	fee45783          	lhu	a5,-18(s0)
     430:	2781                	sext.w	a5,a5
     432:	de840713          	addi	a4,s0,-536
     436:	85ba                	mv	a1,a4
     438:	853e                	mv	a0,a5
     43a:	43b000ef          	jal	ra,1074 <__sd_readblk>
     43e:	87aa                	mv	a5,a0
     440:	e399                	bnez	a5,446 <__fat_bpb_init+0x30>
     442:	4781                	li	a5,0
     444:	a6c9                	j	806 <_binary_tmp_size+0xad>
     446:	de840793          	addi	a5,s0,-536
     44a:	1fe78793          	addi	a5,a5,510
     44e:	0007d783          	lhu	a5,0(a5)
     452:	0007871b          	sext.w	a4,a5
     456:	67ad                	lui	a5,0xb
     458:	a5578793          	addi	a5,a5,-1451 # aa55 <__data_end+0x8abc>
     45c:	00f70463          	beq	a4,a5,464 <__fat_bpb_init+0x4e>
     460:	4781                	li	a5,0
     462:	a655                	j	806 <_binary_tmp_size+0xad>
     464:	de840793          	addi	a5,s0,-536
     468:	03678793          	addi	a5,a5,54
     46c:	4621                	li	a2,8
     46e:	00001597          	auipc	a1,0x1
     472:	39258593          	addi	a1,a1,914 # 1800 <__text_end>
     476:	853e                	mv	a0,a5
     478:	6e9000ef          	jal	ra,1360 <__strcmp>
     47c:	87aa                	mv	a5,a0
     47e:	2781                	sext.w	a5,a5
     480:	e799                	bnez	a5,48e <__fat_bpb_init+0x78>
     482:	dd843783          	ld	a5,-552(s0)
     486:	470d                	li	a4,3
     488:	00e78a23          	sb	a4,20(a5)
     48c:	a205                	j	5ac <__fat_bpb_init+0x196>
     48e:	de840793          	addi	a5,s0,-536
     492:	03678793          	addi	a5,a5,54
     496:	4621                	li	a2,8
     498:	00001597          	auipc	a1,0x1
     49c:	37858593          	addi	a1,a1,888 # 1810 <__text_end+0x10>
     4a0:	853e                	mv	a0,a5
     4a2:	6bf000ef          	jal	ra,1360 <__strcmp>
     4a6:	87aa                	mv	a5,a0
     4a8:	2781                	sext.w	a5,a5
     4aa:	e799                	bnez	a5,4b8 <__fat_bpb_init+0xa2>
     4ac:	dd843783          	ld	a5,-552(s0)
     4b0:	4711                	li	a4,4
     4b2:	00e78a23          	sb	a4,20(a5)
     4b6:	a8dd                	j	5ac <__fat_bpb_init+0x196>
     4b8:	de840793          	addi	a5,s0,-536
     4bc:	05278793          	addi	a5,a5,82
     4c0:	4621                	li	a2,8
     4c2:	00001597          	auipc	a1,0x1
     4c6:	35e58593          	addi	a1,a1,862 # 1820 <__text_end+0x20>
     4ca:	853e                	mv	a0,a5
     4cc:	695000ef          	jal	ra,1360 <__strcmp>
     4d0:	87aa                	mv	a5,a0
     4d2:	2781                	sext.w	a5,a5
     4d4:	e799                	bnez	a5,4e2 <__fat_bpb_init+0xcc>
     4d6:	dd843783          	ld	a5,-552(s0)
     4da:	4715                	li	a4,5
     4dc:	00e78a23          	sb	a4,20(a5)
     4e0:	a0f1                	j	5ac <__fat_bpb_init+0x196>
     4e2:	de840793          	addi	a5,s0,-536
     4e6:	1c678793          	addi	a5,a5,454
     4ea:	0007d783          	lhu	a5,0(a5)
     4ee:	fef41723          	sh	a5,-18(s0)
     4f2:	fee45783          	lhu	a5,-18(s0)
     4f6:	2781                	sext.w	a5,a5
     4f8:	de840713          	addi	a4,s0,-536
     4fc:	85ba                	mv	a1,a4
     4fe:	853e                	mv	a0,a5
     500:	375000ef          	jal	ra,1074 <__sd_readblk>
     504:	87aa                	mv	a5,a0
     506:	e399                	bnez	a5,50c <__fat_bpb_init+0xf6>
     508:	4781                	li	a5,0
     50a:	acf5                	j	806 <_binary_tmp_size+0xad>
     50c:	de840793          	addi	a5,s0,-536
     510:	1fe78793          	addi	a5,a5,510
     514:	0007d783          	lhu	a5,0(a5)
     518:	0007871b          	sext.w	a4,a5
     51c:	67ad                	lui	a5,0xb
     51e:	a5578793          	addi	a5,a5,-1451 # aa55 <__data_end+0x8abc>
     522:	00f70463          	beq	a4,a5,52a <__fat_bpb_init+0x114>
     526:	4781                	li	a5,0
     528:	acf9                	j	806 <_binary_tmp_size+0xad>
     52a:	de840793          	addi	a5,s0,-536
     52e:	03678793          	addi	a5,a5,54
     532:	4621                	li	a2,8
     534:	00001597          	auipc	a1,0x1
     538:	2cc58593          	addi	a1,a1,716 # 1800 <__text_end>
     53c:	853e                	mv	a0,a5
     53e:	623000ef          	jal	ra,1360 <__strcmp>
     542:	87aa                	mv	a5,a0
     544:	2781                	sext.w	a5,a5
     546:	e799                	bnez	a5,554 <__fat_bpb_init+0x13e>
     548:	dd843783          	ld	a5,-552(s0)
     54c:	470d                	li	a4,3
     54e:	00e78a23          	sb	a4,20(a5)
     552:	a8a9                	j	5ac <__fat_bpb_init+0x196>
     554:	de840793          	addi	a5,s0,-536
     558:	03678793          	addi	a5,a5,54
     55c:	4621                	li	a2,8
     55e:	00001597          	auipc	a1,0x1
     562:	2b258593          	addi	a1,a1,690 # 1810 <__text_end+0x10>
     566:	853e                	mv	a0,a5
     568:	5f9000ef          	jal	ra,1360 <__strcmp>
     56c:	87aa                	mv	a5,a0
     56e:	2781                	sext.w	a5,a5
     570:	e799                	bnez	a5,57e <__fat_bpb_init+0x168>
     572:	dd843783          	ld	a5,-552(s0)
     576:	4711                	li	a4,4
     578:	00e78a23          	sb	a4,20(a5)
     57c:	a805                	j	5ac <__fat_bpb_init+0x196>
     57e:	de840793          	addi	a5,s0,-536
     582:	05278793          	addi	a5,a5,82
     586:	4621                	li	a2,8
     588:	00001597          	auipc	a1,0x1
     58c:	29858593          	addi	a1,a1,664 # 1820 <__text_end+0x20>
     590:	853e                	mv	a0,a5
     592:	5cf000ef          	jal	ra,1360 <__strcmp>
     596:	87aa                	mv	a5,a0
     598:	2781                	sext.w	a5,a5
     59a:	e799                	bnez	a5,5a8 <__fat_bpb_init+0x192>
     59c:	dd843783          	ld	a5,-552(s0)
     5a0:	4715                	li	a4,5
     5a2:	00e78a23          	sb	a4,20(a5)
     5a6:	a019                	j	5ac <__fat_bpb_init+0x196>
     5a8:	4781                	li	a5,0
     5aa:	acb1                	j	806 <_binary_tmp_size+0xad>
     5ac:	df344783          	lbu	a5,-525(s0)
     5b0:	0107971b          	slliw	a4,a5,0x10
     5b4:	4107571b          	sraiw	a4,a4,0x10
     5b8:	de840793          	addi	a5,s0,-536
     5bc:	07ad                	addi	a5,a5,11
     5be:	0785                	addi	a5,a5,1
     5c0:	0007c783          	lbu	a5,0(a5)
     5c4:	2781                	sext.w	a5,a5
     5c6:	0087979b          	slliw	a5,a5,0x8
     5ca:	2781                	sext.w	a5,a5
     5cc:	0107979b          	slliw	a5,a5,0x10
     5d0:	4107d79b          	sraiw	a5,a5,0x10
     5d4:	8fd9                	or	a5,a5,a4
     5d6:	0107979b          	slliw	a5,a5,0x10
     5da:	4107d79b          	sraiw	a5,a5,0x10
     5de:	03079713          	slli	a4,a5,0x30
     5e2:	9341                	srli	a4,a4,0x30
     5e4:	dd843783          	ld	a5,-552(s0)
     5e8:	00e79023          	sh	a4,0(a5)
     5ec:	df544703          	lbu	a4,-523(s0)
     5f0:	dd843783          	ld	a5,-552(s0)
     5f4:	00e78923          	sb	a4,18(a5)
     5f8:	dd843783          	ld	a5,-552(s0)
     5fc:	0147c783          	lbu	a5,20(a5)
     600:	873e                	mv	a4,a5
     602:	4795                	li	a5,5
     604:	00f71963          	bne	a4,a5,616 <__fat_bpb_init+0x200>
     608:	de840793          	addi	a5,s0,-536
     60c:	02478793          	addi	a5,a5,36
     610:	0007d783          	lhu	a5,0(a5)
     614:	a031                	j	620 <__fat_bpb_init+0x20a>
     616:	de840793          	addi	a5,s0,-536
     61a:	07d9                	addi	a5,a5,22
     61c:	0007d783          	lhu	a5,0(a5)
     620:	dd843703          	ld	a4,-552(s0)
     624:	00f71123          	sh	a5,2(a4)
     628:	df844703          	lbu	a4,-520(s0)
     62c:	dd843783          	ld	a5,-552(s0)
     630:	00e789a3          	sb	a4,19(a5)
     634:	df644783          	lbu	a5,-522(s0)
     638:	0107971b          	slliw	a4,a5,0x10
     63c:	4107571b          	sraiw	a4,a4,0x10
     640:	de840793          	addi	a5,s0,-536
     644:	07b9                	addi	a5,a5,14
     646:	0785                	addi	a5,a5,1
     648:	0007c783          	lbu	a5,0(a5)
     64c:	2781                	sext.w	a5,a5
     64e:	0087979b          	slliw	a5,a5,0x8
     652:	2781                	sext.w	a5,a5
     654:	0107979b          	slliw	a5,a5,0x10
     658:	4107d79b          	sraiw	a5,a5,0x10
     65c:	8fd9                	or	a5,a5,a4
     65e:	0107979b          	slliw	a5,a5,0x10
     662:	4107d79b          	sraiw	a5,a5,0x10
     666:	17c2                	slli	a5,a5,0x30
     668:	93c1                	srli	a5,a5,0x30
     66a:	fee45703          	lhu	a4,-18(s0)
     66e:	9fb9                	addw	a5,a5,a4
     670:	03079713          	slli	a4,a5,0x30
     674:	9341                	srli	a4,a4,0x30
     676:	dd843783          	ld	a5,-552(s0)
     67a:	00e79223          	sh	a4,4(a5)
     67e:	dd843783          	ld	a5,-552(s0)
     682:	0137c783          	lbu	a5,19(a5)
     686:	03079713          	slli	a4,a5,0x30
     68a:	9341                	srli	a4,a4,0x30
     68c:	dd843783          	ld	a5,-552(s0)
     690:	0027d783          	lhu	a5,2(a5)
     694:	02f707bb          	mulw	a5,a4,a5
     698:	03079713          	slli	a4,a5,0x30
     69c:	9341                	srli	a4,a4,0x30
     69e:	dd843783          	ld	a5,-552(s0)
     6a2:	0047d783          	lhu	a5,4(a5)
     6a6:	9fb9                	addw	a5,a5,a4
     6a8:	03079713          	slli	a4,a5,0x30
     6ac:	9341                	srli	a4,a4,0x30
     6ae:	dd843783          	ld	a5,-552(s0)
     6b2:	00e79323          	sh	a4,6(a5)
     6b6:	df944783          	lbu	a5,-519(s0)
     6ba:	0107971b          	slliw	a4,a5,0x10
     6be:	4107571b          	sraiw	a4,a4,0x10
     6c2:	de840793          	addi	a5,s0,-536
     6c6:	07c5                	addi	a5,a5,17
     6c8:	0785                	addi	a5,a5,1
     6ca:	0007c783          	lbu	a5,0(a5)
     6ce:	2781                	sext.w	a5,a5
     6d0:	0087979b          	slliw	a5,a5,0x8
     6d4:	2781                	sext.w	a5,a5
     6d6:	0107979b          	slliw	a5,a5,0x10
     6da:	4107d79b          	sraiw	a5,a5,0x10
     6de:	8fd9                	or	a5,a5,a4
     6e0:	0107979b          	slliw	a5,a5,0x10
     6e4:	4107d79b          	sraiw	a5,a5,0x10
     6e8:	03079713          	slli	a4,a5,0x30
     6ec:	9341                	srli	a4,a4,0x30
     6ee:	dd843783          	ld	a5,-552(s0)
     6f2:	00e79623          	sh	a4,12(a5)
     6f6:	dd843783          	ld	a5,-552(s0)
     6fa:	0147c783          	lbu	a5,20(a5)
     6fe:	873e                	mv	a4,a5
     700:	4795                	li	a5,5
     702:	02f71563          	bne	a4,a5,72c <__fat_bpb_init+0x316>
     706:	de840793          	addi	a5,s0,-536
     70a:	02c78793          	addi	a5,a5,44
     70e:	0007d703          	lhu	a4,0(a5)
     712:	dd843783          	ld	a5,-552(s0)
     716:	00e79723          	sh	a4,14(a5)
     71a:	dd843783          	ld	a5,-552(s0)
     71e:	0067d703          	lhu	a4,6(a5)
     722:	dd843783          	ld	a5,-552(s0)
     726:	00e79823          	sh	a4,16(a5)
     72a:	a835                	j	766 <_binary_tmp_size+0xd>
     72c:	dd843783          	ld	a5,-552(s0)
     730:	0067d703          	lhu	a4,6(a5)
     734:	dd843783          	ld	a5,-552(s0)
     738:	00e79723          	sh	a4,14(a5)
     73c:	dd843783          	ld	a5,-552(s0)
     740:	00c7d783          	lhu	a5,12(a5)
     744:	0047d79b          	srliw	a5,a5,0x4
     748:	03079713          	slli	a4,a5,0x30
     74c:	9341                	srli	a4,a4,0x30
     74e:	dd843783          	ld	a5,-552(s0)
     752:	0067d783          	lhu	a5,6(a5)
     756:	9fb9                	addw	a5,a5,a4
     758:	03079713          	slli	a4,a5,0x30
     75c:	9341                	srli	a4,a4,0x30
     75e:	dd843783          	ld	a5,-552(s0)
     762:	00e79823          	sh	a4,16(a5)
     766:	de840793          	addi	a5,s0,-536
     76a:	02078793          	addi	a5,a5,32
     76e:	439c                	lw	a5,0(a5)
     770:	c799                	beqz	a5,77e <_binary_tmp_size+0x25>
     772:	de840793          	addi	a5,s0,-536
     776:	02078793          	addi	a5,a5,32
     77a:	439c                	lw	a5,0(a5)
     77c:	a015                	j	7a0 <_binary_tmp_size+0x47>
     77e:	dfb44783          	lbu	a5,-517(s0)
     782:	0007871b          	sext.w	a4,a5
     786:	de840793          	addi	a5,s0,-536
     78a:	07cd                	addi	a5,a5,19
     78c:	0785                	addi	a5,a5,1
     78e:	0007c783          	lbu	a5,0(a5)
     792:	2781                	sext.w	a5,a5
     794:	0087979b          	slliw	a5,a5,0x8
     798:	2781                	sext.w	a5,a5
     79a:	8fd9                	or	a5,a5,a4
     79c:	2781                	sext.w	a5,a5
     79e:	2781                	sext.w	a5,a5
     7a0:	fef42423          	sw	a5,-24(s0)
     7a4:	dd843783          	ld	a5,-552(s0)
     7a8:	0107d783          	lhu	a5,16(a5)
     7ac:	2781                	sext.w	a5,a5
     7ae:	fe842703          	lw	a4,-24(s0)
     7b2:	40f707bb          	subw	a5,a4,a5
     7b6:	0007871b          	sext.w	a4,a5
     7ba:	fee45783          	lhu	a5,-18(s0)
     7be:	2781                	sext.w	a5,a5
     7c0:	9fb9                	addw	a5,a5,a4
     7c2:	0007871b          	sext.w	a4,a5
     7c6:	dd843783          	ld	a5,-552(s0)
     7ca:	0127c783          	lbu	a5,18(a5)
     7ce:	2781                	sext.w	a5,a5
     7d0:	02f757bb          	divuw	a5,a4,a5
     7d4:	2781                	sext.w	a5,a5
     7d6:	2789                	addiw	a5,a5,2
     7d8:	0007871b          	sext.w	a4,a5
     7dc:	dd843783          	ld	a5,-552(s0)
     7e0:	c798                	sw	a4,8(a5)
     7e2:	dd843783          	ld	a5,-552(s0)
     7e6:	0047d783          	lhu	a5,4(a5)
     7ea:	0007871b          	sext.w	a4,a5
     7ee:	dd843783          	ld	a5,-552(s0)
     7f2:	07e1                	addi	a5,a5,24
     7f4:	85be                	mv	a1,a5
     7f6:	853a                	mv	a0,a4
     7f8:	07d000ef          	jal	ra,1074 <__sd_readblk>
     7fc:	87aa                	mv	a5,a0
     7fe:	e399                	bnez	a5,804 <_binary_tmp_size+0xab>
     800:	4781                	li	a5,0
     802:	a011                	j	806 <_binary_tmp_size+0xad>
     804:	4785                	li	a5,1
     806:	853e                	mv	a0,a5
     808:	22813083          	ld	ra,552(sp)
     80c:	22013403          	ld	s0,544(sp)
     810:	23010113          	addi	sp,sp,560
     814:	8082                	ret

0000000000000816 <__fopen>:
     816:	dc010113          	addi	sp,sp,-576
     81a:	22113c23          	sd	ra,568(sp)
     81e:	22813823          	sd	s0,560(sp)
     822:	0480                	addi	s0,sp,576
     824:	dca43423          	sd	a0,-568(s0)
     828:	dcb43023          	sd	a1,-576(s0)
     82c:	fe041723          	sh	zero,-18(s0)
     830:	a805                	j	860 <__fopen+0x4a>
     832:	dc043783          	ld	a5,-576(s0)
     836:	00178713          	addi	a4,a5,1
     83a:	dce43023          	sd	a4,-576(s0)
     83e:	0007c703          	lbu	a4,0(a5)
     842:	fee45783          	lhu	a5,-18(s0)
     846:	0017869b          	addiw	a3,a5,1
     84a:	fed41723          	sh	a3,-18(s0)
     84e:	2781                	sext.w	a5,a5
     850:	fdf77713          	andi	a4,a4,-33
     854:	0ff77713          	zext.b	a4,a4
     858:	17c1                	addi	a5,a5,-16
     85a:	97a2                	add	a5,a5,s0
     85c:	fee78423          	sb	a4,-24(a5)
     860:	fee45783          	lhu	a5,-18(s0)
     864:	0007871b          	sext.w	a4,a5
     868:	479d                	li	a5,7
     86a:	02e7ee63          	bltu	a5,a4,8a6 <__fopen+0x90>
     86e:	dc043783          	ld	a5,-576(s0)
     872:	0007c783          	lbu	a5,0(a5)
     876:	cb85                	beqz	a5,8a6 <__fopen+0x90>
     878:	dc043783          	ld	a5,-576(s0)
     87c:	0007c783          	lbu	a5,0(a5)
     880:	873e                	mv	a4,a5
     882:	02e00793          	li	a5,46
     886:	faf716e3          	bne	a4,a5,832 <__fopen+0x1c>
     88a:	a831                	j	8a6 <__fopen+0x90>
     88c:	fee45783          	lhu	a5,-18(s0)
     890:	0017871b          	addiw	a4,a5,1
     894:	fee41723          	sh	a4,-18(s0)
     898:	2781                	sext.w	a5,a5
     89a:	17c1                	addi	a5,a5,-16
     89c:	97a2                	add	a5,a5,s0
     89e:	02000713          	li	a4,32
     8a2:	fee78423          	sb	a4,-24(a5)
     8a6:	fee45783          	lhu	a5,-18(s0)
     8aa:	0007871b          	sext.w	a4,a5
     8ae:	479d                	li	a5,7
     8b0:	fce7fee3          	bgeu	a5,a4,88c <__fopen+0x76>
     8b4:	dc043783          	ld	a5,-576(s0)
     8b8:	0785                	addi	a5,a5,1
     8ba:	dcf43023          	sd	a5,-576(s0)
     8be:	fe041723          	sh	zero,-18(s0)
     8c2:	a805                	j	8f2 <__fopen+0xdc>
     8c4:	dc043783          	ld	a5,-576(s0)
     8c8:	00178713          	addi	a4,a5,1
     8cc:	dce43023          	sd	a4,-576(s0)
     8d0:	0007c703          	lbu	a4,0(a5)
     8d4:	fee45783          	lhu	a5,-18(s0)
     8d8:	0017869b          	addiw	a3,a5,1
     8dc:	fed41723          	sh	a3,-18(s0)
     8e0:	2781                	sext.w	a5,a5
     8e2:	fdf77713          	andi	a4,a4,-33
     8e6:	0ff77713          	zext.b	a4,a4
     8ea:	17c1                	addi	a5,a5,-16
     8ec:	97a2                	add	a5,a5,s0
     8ee:	fee78023          	sb	a4,-32(a5)
     8f2:	fee45783          	lhu	a5,-18(s0)
     8f6:	0007871b          	sext.w	a4,a5
     8fa:	4789                	li	a5,2
     8fc:	02e7e563          	bltu	a5,a4,926 <__fopen+0x110>
     900:	dc043783          	ld	a5,-576(s0)
     904:	0007c783          	lbu	a5,0(a5)
     908:	ffd5                	bnez	a5,8c4 <__fopen+0xae>
     90a:	a831                	j	926 <__fopen+0x110>
     90c:	fee45783          	lhu	a5,-18(s0)
     910:	0017871b          	addiw	a4,a5,1
     914:	fee41723          	sh	a4,-18(s0)
     918:	2781                	sext.w	a5,a5
     91a:	17c1                	addi	a5,a5,-16
     91c:	97a2                	add	a5,a5,s0
     91e:	02000713          	li	a4,32
     922:	fee78023          	sb	a4,-32(a5)
     926:	fee45783          	lhu	a5,-18(s0)
     92a:	0007871b          	sext.w	a4,a5
     92e:	4789                	li	a5,2
     930:	fce7fee3          	bgeu	a5,a4,90c <__fopen+0xf6>
     934:	dc843783          	ld	a5,-568(s0)
     938:	739c                	ld	a5,32(a5)
     93a:	0107d783          	lhu	a5,16(a5)
     93e:	2781                	sext.w	a5,a5
     940:	dd040713          	addi	a4,s0,-560
     944:	85ba                	mv	a1,a4
     946:	853e                	mv	a0,a5
     948:	72c000ef          	jal	ra,1074 <__sd_readblk>
     94c:	87aa                	mv	a5,a0
     94e:	e399                	bnez	a5,954 <__fopen+0x13e>
     950:	4781                	li	a5,0
     952:	aa45                	j	b02 <__fopen+0x2ec>
     954:	fe041723          	sh	zero,-18(s0)
     958:	aa61                	j	af0 <__fopen+0x2da>
     95a:	fee45783          	lhu	a5,-18(s0)
     95e:	2781                	sext.w	a5,a5
     960:	17c1                	addi	a5,a5,-16
     962:	97a2                	add	a5,a5,s0
     964:	de07c783          	lbu	a5,-544(a5)
     968:	873e                	mv	a4,a5
     96a:	0e500793          	li	a5,229
     96e:	04f70463          	beq	a4,a5,9b6 <__fopen+0x1a0>
     972:	fee45783          	lhu	a5,-18(s0)
     976:	2781                	sext.w	a5,a5
     978:	dd040713          	addi	a4,s0,-560
     97c:	97ba                	add	a5,a5,a4
     97e:	fd840713          	addi	a4,s0,-40
     982:	4621                	li	a2,8
     984:	85ba                	mv	a1,a4
     986:	853e                	mv	a0,a5
     988:	1d9000ef          	jal	ra,1360 <__strcmp>
     98c:	87aa                	mv	a5,a0
     98e:	2781                	sext.w	a5,a5
     990:	e39d                	bnez	a5,9b6 <__fopen+0x1a0>
     992:	fee45783          	lhu	a5,-18(s0)
     996:	2781                	sext.w	a5,a5
     998:	27a1                	addiw	a5,a5,8
     99a:	2781                	sext.w	a5,a5
     99c:	dd040713          	addi	a4,s0,-560
     9a0:	97ba                	add	a5,a5,a4
     9a2:	fd040713          	addi	a4,s0,-48
     9a6:	460d                	li	a2,3
     9a8:	85ba                	mv	a1,a4
     9aa:	853e                	mv	a0,a5
     9ac:	1b5000ef          	jal	ra,1360 <__strcmp>
     9b0:	87aa                	mv	a5,a0
     9b2:	2781                	sext.w	a5,a5
     9b4:	cb81                	beqz	a5,9c4 <__fopen+0x1ae>
     9b6:	fee45783          	lhu	a5,-18(s0)
     9ba:	0207879b          	addiw	a5,a5,32
     9be:	fef41723          	sh	a5,-18(s0)
     9c2:	a23d                	j	af0 <__fopen+0x2da>
     9c4:	fee45783          	lhu	a5,-18(s0)
     9c8:	2781                	sext.w	a5,a5
     9ca:	dd040713          	addi	a4,s0,-560
     9ce:	97ba                	add	a5,a5,a4
     9d0:	02000613          	li	a2,32
     9d4:	85be                	mv	a1,a5
     9d6:	dc843503          	ld	a0,-568(s0)
     9da:	1f9000ef          	jal	ra,13d2 <__memcpy>
     9de:	dc843783          	ld	a5,-568(s0)
     9e2:	0207a423          	sw	zero,40(a5)
     9e6:	dc843783          	ld	a5,-568(s0)
     9ea:	577d                	li	a4,-1
     9ec:	d7d8                	sw	a4,44(a5)
     9ee:	dc843783          	ld	a5,-568(s0)
     9f2:	01a7d783          	lhu	a5,26(a5)
     9f6:	0007871b          	sext.w	a4,a5
     9fa:	dc843783          	ld	a5,-568(s0)
     9fe:	0147d783          	lhu	a5,20(a5)
     a02:	2781                	sext.w	a5,a5
     a04:	0107979b          	slliw	a5,a5,0x10
     a08:	2781                	sext.w	a5,a5
     a0a:	2781                	sext.w	a5,a5
     a0c:	8fd9                	or	a5,a5,a4
     a0e:	0007871b          	sext.w	a4,a5
     a12:	dc843783          	ld	a5,-568(s0)
     a16:	739c                	ld	a5,32(a5)
     a18:	00e7d783          	lhu	a5,14(a5)
     a1c:	2781                	sext.w	a5,a5
     a1e:	40f707bb          	subw	a5,a4,a5
     a22:	0007871b          	sext.w	a4,a5
     a26:	dc843783          	ld	a5,-568(s0)
     a2a:	db98                	sw	a4,48(a5)
     a2c:	fe0403a3          	sb	zero,-25(s0)
     a30:	4785                	li	a5,1
     a32:	fef41623          	sh	a5,-20(s0)
     a36:	a05d                	j	adc <__fopen+0x2c6>
     a38:	fe744783          	lbu	a5,-25(s0)
     a3c:	0ff7f793          	zext.b	a5,a5
     a40:	efb1                	bnez	a5,a9c <__fopen+0x286>
     a42:	dc843783          	ld	a5,-568(s0)
     a46:	7398                	ld	a4,32(a5)
     a48:	fec45783          	lhu	a5,-20(s0)
     a4c:	2781                	sext.w	a5,a5
     a4e:	37fd                	addiw	a5,a5,-1
     a50:	2781                	sext.w	a5,a5
     a52:	dc843683          	ld	a3,-568(s0)
     a56:	07b1                	addi	a5,a5,12
     a58:	078a                	slli	a5,a5,0x2
     a5a:	97b6                	add	a5,a5,a3
     a5c:	4394                	lw	a3,0(a5)
     a5e:	dc843783          	ld	a5,-568(s0)
     a62:	739c                	ld	a5,32(a5)
     a64:	00e7d783          	lhu	a5,14(a5)
     a68:	2781                	sext.w	a5,a5
     a6a:	9fb5                	addw	a5,a5,a3
     a6c:	2781                	sext.w	a5,a5
     a6e:	1782                	slli	a5,a5,0x20
     a70:	9381                	srli	a5,a5,0x20
     a72:	0791                	addi	a5,a5,4
     a74:	078a                	slli	a5,a5,0x2
     a76:	97ba                	add	a5,a5,a4
     a78:	479c                	lw	a5,8(a5)
     a7a:	fef42423          	sw	a5,-24(s0)
     a7e:	fe842783          	lw	a5,-24(s0)
     a82:	0007871b          	sext.w	a4,a5
     a86:	100007b7          	lui	a5,0x10000
     a8a:	17fd                	addi	a5,a5,-1 # fffffff <__stack+0xffbffff>
     a8c:	40f707b3          	sub	a5,a4,a5
     a90:	0017b793          	seqz	a5,a5
     a94:	0ff7f793          	zext.b	a5,a5
     a98:	fef403a3          	sb	a5,-25(s0)
     a9c:	fe744783          	lbu	a5,-25(s0)
     aa0:	0ff7f793          	zext.b	a5,a5
     aa4:	ef89                	bnez	a5,abe <__fopen+0x2a8>
     aa6:	dc843783          	ld	a5,-568(s0)
     aaa:	739c                	ld	a5,32(a5)
     aac:	00e7d783          	lhu	a5,14(a5)
     ab0:	2781                	sext.w	a5,a5
     ab2:	fe842703          	lw	a4,-24(s0)
     ab6:	40f707bb          	subw	a5,a4,a5
     aba:	2781                	sext.w	a5,a5
     abc:	a011                	j	ac0 <__fopen+0x2aa>
     abe:	57fd                	li	a5,-1
     ac0:	fec45703          	lhu	a4,-20(s0)
     ac4:	2701                	sext.w	a4,a4
     ac6:	dc843683          	ld	a3,-568(s0)
     aca:	0731                	addi	a4,a4,12
     acc:	070a                	slli	a4,a4,0x2
     ace:	9736                	add	a4,a4,a3
     ad0:	c31c                	sw	a5,0(a4)
     ad2:	fec45783          	lhu	a5,-20(s0)
     ad6:	2785                	addiw	a5,a5,1
     ad8:	fef41623          	sh	a5,-20(s0)
     adc:	fec45783          	lhu	a5,-20(s0)
     ae0:	0007871b          	sext.w	a4,a5
     ae4:	07f00793          	li	a5,127
     ae8:	f4e7f8e3          	bgeu	a5,a4,a38 <__fopen+0x222>
     aec:	4785                	li	a5,1
     aee:	a811                	j	b02 <__fopen+0x2ec>
     af0:	fee45783          	lhu	a5,-18(s0)
     af4:	0007871b          	sext.w	a4,a5
     af8:	1ff00793          	li	a5,511
     afc:	e4e7ffe3          	bgeu	a5,a4,95a <__fopen+0x144>
     b00:	4781                	li	a5,0
     b02:	853e                	mv	a0,a5
     b04:	23813083          	ld	ra,568(sp)
     b08:	23013403          	ld	s0,560(sp)
     b0c:	24010113          	addi	sp,sp,576
     b10:	8082                	ret

0000000000000b12 <__fseek>:
     b12:	1101                	addi	sp,sp,-32
     b14:	ec22                	sd	s0,24(sp)
     b16:	1000                	addi	s0,sp,32
     b18:	fea43423          	sd	a0,-24(s0)
     b1c:	87ae                	mv	a5,a1
     b1e:	8732                	mv	a4,a2
     b20:	fef42223          	sw	a5,-28(s0)
     b24:	87ba                	mv	a5,a4
     b26:	fef401a3          	sb	a5,-29(s0)
     b2a:	fe344783          	lbu	a5,-29(s0)
     b2e:	2781                	sext.w	a5,a5
     b30:	86be                	mv	a3,a5
     b32:	4709                	li	a4,2
     b34:	02e68e63          	beq	a3,a4,b70 <__fseek+0x5e>
     b38:	86be                	mv	a3,a5
     b3a:	4709                	li	a4,2
     b3c:	04d74663          	blt	a4,a3,b88 <__fseek+0x76>
     b40:	c791                	beqz	a5,b4c <__fseek+0x3a>
     b42:	873e                	mv	a4,a5
     b44:	4785                	li	a5,1
     b46:	00f70963          	beq	a4,a5,b58 <__fseek+0x46>
     b4a:	a83d                	j	b88 <__fseek+0x76>
     b4c:	fe843783          	ld	a5,-24(s0)
     b50:	fe442703          	lw	a4,-28(s0)
     b54:	d798                	sw	a4,40(a5)
     b56:	a81d                	j	b8c <__fseek+0x7a>
     b58:	fe843783          	ld	a5,-24(s0)
     b5c:	579c                	lw	a5,40(a5)
     b5e:	fe442703          	lw	a4,-28(s0)
     b62:	9fb9                	addw	a5,a5,a4
     b64:	0007871b          	sext.w	a4,a5
     b68:	fe843783          	ld	a5,-24(s0)
     b6c:	d798                	sw	a4,40(a5)
     b6e:	a839                	j	b8c <__fseek+0x7a>
     b70:	fe843783          	ld	a5,-24(s0)
     b74:	4fdc                	lw	a5,28(a5)
     b76:	fe442703          	lw	a4,-28(s0)
     b7a:	9fb9                	addw	a5,a5,a4
     b7c:	0007871b          	sext.w	a4,a5
     b80:	fe843783          	ld	a5,-24(s0)
     b84:	d798                	sw	a4,40(a5)
     b86:	a019                	j	b8c <__fseek+0x7a>
     b88:	4781                	li	a5,0
     b8a:	a011                	j	b8e <__fseek+0x7c>
     b8c:	4785                	li	a5,1
     b8e:	853e                	mv	a0,a5
     b90:	6462                	ld	s0,24(sp)
     b92:	6105                	addi	sp,sp,32
     b94:	8082                	ret

0000000000000b96 <__fread>:
     b96:	715d                	addi	sp,sp,-80
     b98:	e486                	sd	ra,72(sp)
     b9a:	e0a2                	sd	s0,64(sp)
     b9c:	0880                	addi	s0,sp,80
     b9e:	fca43423          	sd	a0,-56(s0)
     ba2:	fcb43023          	sd	a1,-64(s0)
     ba6:	87b2                	mv	a5,a2
     ba8:	faf42e23          	sw	a5,-68(s0)
     bac:	fc043783          	ld	a5,-64(s0)
     bb0:	fef43423          	sd	a5,-24(s0)
     bb4:	fe042023          	sw	zero,-32(s0)
     bb8:	fc843783          	ld	a5,-56(s0)
     bbc:	579c                	lw	a5,40(a5)
     bbe:	1ff7f793          	andi	a5,a5,511
     bc2:	fcf42e23          	sw	a5,-36(s0)
     bc6:	a291                	j	d0a <__fread+0x174>
     bc8:	fc843783          	ld	a5,-56(s0)
     bcc:	579c                	lw	a5,40(a5)
     bce:	0097d79b          	srliw	a5,a5,0x9
     bd2:	fcf42c23          	sw	a5,-40(s0)
     bd6:	fc843783          	ld	a5,-56(s0)
     bda:	57d8                	lw	a4,44(a5)
     bdc:	fd842783          	lw	a5,-40(s0)
     be0:	2781                	sext.w	a5,a5
     be2:	08e78763          	beq	a5,a4,c70 <__fread+0xda>
     be6:	fc843783          	ld	a5,-56(s0)
     bea:	739c                	ld	a5,32(a5)
     bec:	0107d783          	lhu	a5,16(a5)
     bf0:	0007871b          	sext.w	a4,a5
     bf4:	fc843783          	ld	a5,-56(s0)
     bf8:	739c                	ld	a5,32(a5)
     bfa:	0127c783          	lbu	a5,18(a5)
     bfe:	2781                	sext.w	a5,a5
     c00:	fd842683          	lw	a3,-40(s0)
     c04:	02f6f7bb          	remuw	a5,a3,a5
     c08:	2781                	sext.w	a5,a5
     c0a:	9fb9                	addw	a5,a5,a4
     c0c:	0007871b          	sext.w	a4,a5
     c10:	fc843783          	ld	a5,-56(s0)
     c14:	739c                	ld	a5,32(a5)
     c16:	0127c783          	lbu	a5,18(a5)
     c1a:	2781                	sext.w	a5,a5
     c1c:	fd842683          	lw	a3,-40(s0)
     c20:	02f6d7bb          	divuw	a5,a3,a5
     c24:	2781                	sext.w	a5,a5
     c26:	fc843683          	ld	a3,-56(s0)
     c2a:	1782                	slli	a5,a5,0x20
     c2c:	9381                	srli	a5,a5,0x20
     c2e:	07b1                	addi	a5,a5,12
     c30:	078a                	slli	a5,a5,0x2
     c32:	97b6                	add	a5,a5,a3
     c34:	4394                	lw	a3,0(a5)
     c36:	fc843783          	ld	a5,-56(s0)
     c3a:	739c                	ld	a5,32(a5)
     c3c:	0127c783          	lbu	a5,18(a5)
     c40:	2781                	sext.w	a5,a5
     c42:	02f687bb          	mulw	a5,a3,a5
     c46:	2781                	sext.w	a5,a5
     c48:	9fb9                	addw	a5,a5,a4
     c4a:	0007871b          	sext.w	a4,a5
     c4e:	fc843783          	ld	a5,-56(s0)
     c52:	23078793          	addi	a5,a5,560
     c56:	85be                	mv	a1,a5
     c58:	853a                	mv	a0,a4
     c5a:	41a000ef          	jal	ra,1074 <__sd_readblk>
     c5e:	87aa                	mv	a5,a0
     c60:	e399                	bnez	a5,c66 <__fread+0xd0>
     c62:	4781                	li	a5,0
     c64:	a86d                	j	d1e <__fread+0x188>
     c66:	fc843783          	ld	a5,-56(s0)
     c6a:	fd842703          	lw	a4,-40(s0)
     c6e:	d7d8                	sw	a4,44(a5)
     c70:	fc843783          	ld	a5,-56(s0)
     c74:	579c                	lw	a5,40(a5)
     c76:	1ff7f793          	andi	a5,a5,511
     c7a:	2781                	sext.w	a5,a5
     c7c:	20000713          	li	a4,512
     c80:	40f707bb          	subw	a5,a4,a5
     c84:	fef42223          	sw	a5,-28(s0)
     c88:	fe042783          	lw	a5,-32(s0)
     c8c:	873e                	mv	a4,a5
     c8e:	fe442783          	lw	a5,-28(s0)
     c92:	9fb9                	addw	a5,a5,a4
     c94:	0007871b          	sext.w	a4,a5
     c98:	fbc42783          	lw	a5,-68(s0)
     c9c:	2781                	sext.w	a5,a5
     c9e:	00f76b63          	bltu	a4,a5,cb4 <__fread+0x11e>
     ca2:	fbc42783          	lw	a5,-68(s0)
     ca6:	873e                	mv	a4,a5
     ca8:	fe042783          	lw	a5,-32(s0)
     cac:	40f707bb          	subw	a5,a4,a5
     cb0:	fef42223          	sw	a5,-28(s0)
     cb4:	fc843783          	ld	a5,-56(s0)
     cb8:	23078713          	addi	a4,a5,560
     cbc:	fdc46783          	lwu	a5,-36(s0)
     cc0:	97ba                	add	a5,a5,a4
     cc2:	fe442703          	lw	a4,-28(s0)
     cc6:	863a                	mv	a2,a4
     cc8:	85be                	mv	a1,a5
     cca:	fe843503          	ld	a0,-24(s0)
     cce:	704000ef          	jal	ra,13d2 <__memcpy>
     cd2:	fe042783          	lw	a5,-32(s0)
     cd6:	873e                	mv	a4,a5
     cd8:	fe442783          	lw	a5,-28(s0)
     cdc:	9fb9                	addw	a5,a5,a4
     cde:	fef42023          	sw	a5,-32(s0)
     ce2:	fe446783          	lwu	a5,-28(s0)
     ce6:	fe843703          	ld	a4,-24(s0)
     cea:	97ba                	add	a5,a5,a4
     cec:	fef43423          	sd	a5,-24(s0)
     cf0:	fc843783          	ld	a5,-56(s0)
     cf4:	579c                	lw	a5,40(a5)
     cf6:	fe442703          	lw	a4,-28(s0)
     cfa:	9fb9                	addw	a5,a5,a4
     cfc:	0007871b          	sext.w	a4,a5
     d00:	fc843783          	ld	a5,-56(s0)
     d04:	d798                	sw	a4,40(a5)
     d06:	fc042e23          	sw	zero,-36(s0)
     d0a:	fe042783          	lw	a5,-32(s0)
     d0e:	873e                	mv	a4,a5
     d10:	fbc42783          	lw	a5,-68(s0)
     d14:	2701                	sext.w	a4,a4
     d16:	2781                	sext.w	a5,a5
     d18:	eaf768e3          	bltu	a4,a5,bc8 <__fread+0x32>
     d1c:	4785                	li	a5,1
     d1e:	853e                	mv	a0,a5
     d20:	60a6                	ld	ra,72(sp)
     d22:	6406                	ld	s0,64(sp)
     d24:	6161                	addi	sp,sp,80
     d26:	8082                	ret

0000000000000d28 <__dma_spi_mem_cpy>:
     d28:	1101                	addi	sp,sp,-32
     d2a:	ec22                	sd	s0,24(sp)
     d2c:	1000                	addi	s0,sp,32
     d2e:	fea43423          	sd	a0,-24(s0)
     d32:	87ae                	mv	a5,a1
     d34:	fef42223          	sw	a5,-28(s0)
     d38:	fe843703          	ld	a4,-24(s0)
     d3c:	100027b7          	lui	a5,0x10002
     d40:	80478793          	addi	a5,a5,-2044 # 10001804 <__stack+0xffc1804>
     d44:	2701                	sext.w	a4,a4
     d46:	c398                	sw	a4,0(a5)
     d48:	100027b7          	lui	a5,0x10002
     d4c:	80878793          	addi	a5,a5,-2040 # 10001808 <__stack+0xffc1808>
     d50:	fe442703          	lw	a4,-28(s0)
     d54:	c398                	sw	a4,0(a5)
     d56:	100027b7          	lui	a5,0x10002
     d5a:	80c78793          	addi	a5,a5,-2036 # 1000180c <__stack+0xffc180c>
     d5e:	0007a023          	sw	zero,0(a5)
     d62:	100027b7          	lui	a5,0x10002
     d66:	80c78793          	addi	a5,a5,-2036 # 1000180c <__stack+0xffc180c>
     d6a:	439c                	lw	a5,0(a5)
     d6c:	0007871b          	sext.w	a4,a5
     d70:	100027b7          	lui	a5,0x10002
     d74:	80c78793          	addi	a5,a5,-2036 # 1000180c <__stack+0xffc180c>
     d78:	06076713          	ori	a4,a4,96
     d7c:	2701                	sext.w	a4,a4
     d7e:	c398                	sw	a4,0(a5)
     d80:	100027b7          	lui	a5,0x10002
     d84:	80c78793          	addi	a5,a5,-2036 # 1000180c <__stack+0xffc180c>
     d88:	439c                	lw	a5,0(a5)
     d8a:	0007871b          	sext.w	a4,a5
     d8e:	100027b7          	lui	a5,0x10002
     d92:	80c78793          	addi	a5,a5,-2036 # 1000180c <__stack+0xffc180c>
     d96:	86ba                	mv	a3,a4
     d98:	6705                	lui	a4,0x1
     d9a:	80070713          	addi	a4,a4,-2048 # 800 <_binary_tmp_size+0xa7>
     d9e:	8f55                	or	a4,a4,a3
     da0:	2701                	sext.w	a4,a4
     da2:	c398                	sw	a4,0(a5)
     da4:	100027b7          	lui	a5,0x10002
     da8:	80c78793          	addi	a5,a5,-2036 # 1000180c <__stack+0xffc180c>
     dac:	439c                	lw	a5,0(a5)
     dae:	0007871b          	sext.w	a4,a5
     db2:	100027b7          	lui	a5,0x10002
     db6:	80c78793          	addi	a5,a5,-2036 # 1000180c <__stack+0xffc180c>
     dba:	00176713          	ori	a4,a4,1
     dbe:	2701                	sext.w	a4,a4
     dc0:	c398                	sw	a4,0(a5)
     dc2:	0001                	nop
     dc4:	100027b7          	lui	a5,0x10002
     dc8:	80c78793          	addi	a5,a5,-2036 # 1000180c <__stack+0xffc180c>
     dcc:	439c                	lw	a5,0(a5)
     dce:	2781                	sext.w	a5,a5
     dd0:	2781                	sext.w	a5,a5
     dd2:	fe07c9e3          	bltz	a5,dc4 <__dma_spi_mem_cpy+0x9c>
     dd6:	4785                	li	a5,1
     dd8:	853e                	mv	a0,a5
     dda:	6462                	ld	s0,24(sp)
     ddc:	6105                	addi	sp,sp,32
     dde:	8082                	ret

0000000000000de0 <__spi_init>:
     de0:	1101                	addi	sp,sp,-32
     de2:	ec22                	sd	s0,24(sp)
     de4:	1000                	addi	s0,sp,32
     de6:	87aa                	mv	a5,a0
     de8:	fef42623          	sw	a5,-20(s0)
     dec:	100017b7          	lui	a5,0x10001
     df0:	0007a023          	sw	zero,0(a5) # 10001000 <__stack+0xffc1000>
     df4:	fec42783          	lw	a5,-20(s0)
     df8:	0037979b          	slliw	a5,a5,0x3
     dfc:	2781                	sext.w	a5,a5
     dfe:	0387f793          	andi	a5,a5,56
     e02:	0007871b          	sext.w	a4,a5
     e06:	100017b7          	lui	a5,0x10001
     e0a:	04476713          	ori	a4,a4,68
     e0e:	2701                	sext.w	a4,a4
     e10:	c398                	sw	a4,0(a5)
     e12:	4785                	li	a5,1
     e14:	853e                	mv	a0,a5
     e16:	6462                	ld	s0,24(sp)
     e18:	6105                	addi	sp,sp,32
     e1a:	8082                	ret

0000000000000e1c <__spi_rwbyte>:
     e1c:	1101                	addi	sp,sp,-32
     e1e:	ec22                	sd	s0,24(sp)
     e20:	1000                	addi	s0,sp,32
     e22:	87aa                	mv	a5,a0
     e24:	fef407a3          	sb	a5,-17(s0)
     e28:	0001                	nop
     e2a:	100017b7          	lui	a5,0x10001
     e2e:	07a1                	addi	a5,a5,8 # 10001008 <__stack+0xffc1008>
     e30:	439c                	lw	a5,0(a5)
     e32:	2781                	sext.w	a5,a5
     e34:	8b85                	andi	a5,a5,1
     e36:	2781                	sext.w	a5,a5
     e38:	dbed                	beqz	a5,e2a <__spi_rwbyte+0xe>
     e3a:	100017b7          	lui	a5,0x10001
     e3e:	07b1                	addi	a5,a5,12 # 1000100c <__stack+0xffc100c>
     e40:	fef44703          	lbu	a4,-17(s0)
     e44:	2701                	sext.w	a4,a4
     e46:	c398                	sw	a4,0(a5)
     e48:	0001                	nop
     e4a:	100017b7          	lui	a5,0x10001
     e4e:	07a1                	addi	a5,a5,8 # 10001008 <__stack+0xffc1008>
     e50:	439c                	lw	a5,0(a5)
     e52:	2781                	sext.w	a5,a5
     e54:	8b89                	andi	a5,a5,2
     e56:	2781                	sext.w	a5,a5
     e58:	dbed                	beqz	a5,e4a <__spi_rwbyte+0x2e>
     e5a:	100017b7          	lui	a5,0x10001
     e5e:	07b1                	addi	a5,a5,12 # 1000100c <__stack+0xffc100c>
     e60:	439c                	lw	a5,0(a5)
     e62:	2781                	sext.w	a5,a5
     e64:	0ff7f793          	zext.b	a5,a5
     e68:	853e                	mv	a0,a5
     e6a:	6462                	ld	s0,24(sp)
     e6c:	6105                	addi	sp,sp,32
     e6e:	8082                	ret

0000000000000e70 <__sd_getresp>:
     e70:	7139                	addi	sp,sp,-64
     e72:	fc06                	sd	ra,56(sp)
     e74:	f822                	sd	s0,48(sp)
     e76:	f426                	sd	s1,40(sp)
     e78:	0080                	addi	s0,sp,64
     e7a:	fca43423          	sd	a0,-56(s0)
     e7e:	87ae                	mv	a5,a1
     e80:	fcf42223          	sw	a5,-60(s0)
     e84:	fc042e23          	sw	zero,-36(s0)
     e88:	a01d                	j	eae <__sd_getresp+0x3e>
     e8a:	fdc46783          	lwu	a5,-36(s0)
     e8e:	fc843703          	ld	a4,-56(s0)
     e92:	00f704b3          	add	s1,a4,a5
     e96:	0ff00513          	li	a0,255
     e9a:	f83ff0ef          	jal	ra,e1c <__spi_rwbyte>
     e9e:	87aa                	mv	a5,a0
     ea0:	00f48023          	sb	a5,0(s1)
     ea4:	fdc42783          	lw	a5,-36(s0)
     ea8:	2785                	addiw	a5,a5,1
     eaa:	fcf42e23          	sw	a5,-36(s0)
     eae:	fdc42783          	lw	a5,-36(s0)
     eb2:	873e                	mv	a4,a5
     eb4:	fc442783          	lw	a5,-60(s0)
     eb8:	2701                	sext.w	a4,a4
     eba:	2781                	sext.w	a5,a5
     ebc:	fcf767e3          	bltu	a4,a5,e8a <__sd_getresp+0x1a>
     ec0:	4785                	li	a5,1
     ec2:	853e                	mv	a0,a5
     ec4:	70e2                	ld	ra,56(sp)
     ec6:	7442                	ld	s0,48(sp)
     ec8:	74a2                	ld	s1,40(sp)
     eca:	6121                	addi	sp,sp,64
     ecc:	8082                	ret

0000000000000ece <__sd_sendcmd>:
     ece:	7179                	addi	sp,sp,-48
     ed0:	f406                	sd	ra,40(sp)
     ed2:	f022                	sd	s0,32(sp)
     ed4:	1800                	addi	s0,sp,48
     ed6:	87aa                	mv	a5,a0
     ed8:	86ae                	mv	a3,a1
     eda:	8732                	mv	a4,a2
     edc:	fcf40fa3          	sb	a5,-33(s0)
     ee0:	87b6                	mv	a5,a3
     ee2:	fcf42c23          	sw	a5,-40(s0)
     ee6:	87ba                	mv	a5,a4
     ee8:	fcf40f23          	sb	a5,-34(s0)
     eec:	fe042623          	sw	zero,-20(s0)
     ef0:	fdf44783          	lbu	a5,-33(s0)
     ef4:	0407e793          	ori	a5,a5,64
     ef8:	0ff7f793          	zext.b	a5,a5
     efc:	853e                	mv	a0,a5
     efe:	f1fff0ef          	jal	ra,e1c <__spi_rwbyte>
     f02:	fd842783          	lw	a5,-40(s0)
     f06:	0187d79b          	srliw	a5,a5,0x18
     f0a:	2781                	sext.w	a5,a5
     f0c:	0ff7f793          	zext.b	a5,a5
     f10:	853e                	mv	a0,a5
     f12:	f0bff0ef          	jal	ra,e1c <__spi_rwbyte>
     f16:	fd842783          	lw	a5,-40(s0)
     f1a:	0107d79b          	srliw	a5,a5,0x10
     f1e:	2781                	sext.w	a5,a5
     f20:	0ff7f793          	zext.b	a5,a5
     f24:	853e                	mv	a0,a5
     f26:	ef7ff0ef          	jal	ra,e1c <__spi_rwbyte>
     f2a:	fd842783          	lw	a5,-40(s0)
     f2e:	0087d79b          	srliw	a5,a5,0x8
     f32:	2781                	sext.w	a5,a5
     f34:	0ff7f793          	zext.b	a5,a5
     f38:	853e                	mv	a0,a5
     f3a:	ee3ff0ef          	jal	ra,e1c <__spi_rwbyte>
     f3e:	fd842783          	lw	a5,-40(s0)
     f42:	0ff7f793          	zext.b	a5,a5
     f46:	853e                	mv	a0,a5
     f48:	ed5ff0ef          	jal	ra,e1c <__spi_rwbyte>
     f4c:	fde44783          	lbu	a5,-34(s0)
     f50:	0017e793          	ori	a5,a5,1
     f54:	0ff7f793          	zext.b	a5,a5
     f58:	853e                	mv	a0,a5
     f5a:	ec3ff0ef          	jal	ra,e1c <__spi_rwbyte>
     f5e:	0ff00513          	li	a0,255
     f62:	ebbff0ef          	jal	ra,e1c <__spi_rwbyte>
     f66:	87aa                	mv	a5,a0
     f68:	fef405a3          	sb	a5,-21(s0)
     f6c:	a801                	j	f7c <__sd_sendcmd+0xae>
     f6e:	0ff00513          	li	a0,255
     f72:	eabff0ef          	jal	ra,e1c <__spi_rwbyte>
     f76:	87aa                	mv	a5,a0
     f78:	fef405a3          	sb	a5,-21(s0)
     f7c:	feb44783          	lbu	a5,-21(s0)
     f80:	2781                	sext.w	a5,a5
     f82:	8ba1                	andi	a5,a5,8
     f84:	2781                	sext.w	a5,a5
     f86:	cf89                	beqz	a5,fa0 <__sd_sendcmd+0xd2>
     f88:	fec42783          	lw	a5,-20(s0)
     f8c:	0017871b          	addiw	a4,a5,1
     f90:	fee42623          	sw	a4,-20(s0)
     f94:	873e                	mv	a4,a5
     f96:	6785                	lui	a5,0x1
     f98:	38778793          	addi	a5,a5,903 # 1387 <__strcmp+0x27>
     f9c:	fce7f9e3          	bgeu	a5,a4,f6e <__sd_sendcmd+0xa0>
     fa0:	feb44783          	lbu	a5,-21(s0)
     fa4:	853e                	mv	a0,a5
     fa6:	70a2                	ld	ra,40(sp)
     fa8:	7402                	ld	s0,32(sp)
     faa:	6145                	addi	sp,sp,48
     fac:	8082                	ret

0000000000000fae <__sd_rcvdata>:
     fae:	7179                	addi	sp,sp,-48
     fb0:	f406                	sd	ra,40(sp)
     fb2:	f022                	sd	s0,32(sp)
     fb4:	1800                	addi	s0,sp,48
     fb6:	fca43c23          	sd	a0,-40(s0)
     fba:	87ae                	mv	a5,a1
     fbc:	8732                	mv	a4,a2
     fbe:	fcf42a23          	sw	a5,-44(s0)
     fc2:	87ba                	mv	a5,a4
     fc4:	fcf409a3          	sb	a5,-45(s0)
     fc8:	fe042623          	sw	zero,-20(s0)
     fcc:	100017b7          	lui	a5,0x10001
     fd0:	0791                	addi	a5,a5,4 # 10001004 <__stack+0xffc1004>
     fd2:	439c                	lw	a5,0(a5)
     fd4:	0007871b          	sext.w	a4,a5
     fd8:	100017b7          	lui	a5,0x10001
     fdc:	0791                	addi	a5,a5,4 # 10001004 <__stack+0xffc1004>
     fde:	00476713          	ori	a4,a4,4
     fe2:	2701                	sext.w	a4,a4
     fe4:	c398                	sw	a4,0(a5)
     fe6:	0ff00513          	li	a0,255
     fea:	e33ff0ef          	jal	ra,e1c <__spi_rwbyte>
     fee:	87aa                	mv	a5,a0
     ff0:	fef405a3          	sb	a5,-21(s0)
     ff4:	fec42783          	lw	a5,-20(s0)
     ff8:	0017871b          	addiw	a4,a5,1
     ffc:	fee42623          	sw	a4,-20(s0)
    1000:	873e                	mv	a4,a5
    1002:	6785                	lui	a5,0x1
    1004:	38878793          	addi	a5,a5,904 # 1388 <__strcmp+0x28>
    1008:	00e7f563          	bgeu	a5,a4,1012 <__sd_rcvdata+0x64>
    100c:	feb44783          	lbu	a5,-21(s0)
    1010:	a8a9                	j	106a <__sd_rcvdata+0xbc>
    1012:	feb44783          	lbu	a5,-21(s0)
    1016:	0ff7f713          	zext.b	a4,a5
    101a:	0fe00793          	li	a5,254
    101e:	fcf714e3          	bne	a4,a5,fe6 <__sd_rcvdata+0x38>
    1022:	20000593          	li	a1,512
    1026:	fd843503          	ld	a0,-40(s0)
    102a:	cffff0ef          	jal	ra,d28 <__dma_spi_mem_cpy>
    102e:	0ff00513          	li	a0,255
    1032:	debff0ef          	jal	ra,e1c <__spi_rwbyte>
    1036:	0ff00513          	li	a0,255
    103a:	de3ff0ef          	jal	ra,e1c <__spi_rwbyte>
    103e:	fd344783          	lbu	a5,-45(s0)
    1042:	0ff7f793          	zext.b	a5,a5
    1046:	c38d                	beqz	a5,1068 <__sd_rcvdata+0xba>
    1048:	100017b7          	lui	a5,0x10001
    104c:	0791                	addi	a5,a5,4 # 10001004 <__stack+0xffc1004>
    104e:	439c                	lw	a5,0(a5)
    1050:	0007871b          	sext.w	a4,a5
    1054:	100017b7          	lui	a5,0x10001
    1058:	0791                	addi	a5,a5,4 # 10001004 <__stack+0xffc1004>
    105a:	9b6d                	andi	a4,a4,-5
    105c:	2701                	sext.w	a4,a4
    105e:	c398                	sw	a4,0(a5)
    1060:	0ff00513          	li	a0,255
    1064:	db9ff0ef          	jal	ra,e1c <__spi_rwbyte>
    1068:	4785                	li	a5,1
    106a:	853e                	mv	a0,a5
    106c:	70a2                	ld	ra,40(sp)
    106e:	7402                	ld	s0,32(sp)
    1070:	6145                	addi	sp,sp,48
    1072:	8082                	ret

0000000000001074 <__sd_readblk>:
    1074:	1101                	addi	sp,sp,-32
    1076:	ec06                	sd	ra,24(sp)
    1078:	e822                	sd	s0,16(sp)
    107a:	1000                	addi	s0,sp,32
    107c:	87aa                	mv	a5,a0
    107e:	feb43023          	sd	a1,-32(s0)
    1082:	fef42623          	sw	a5,-20(s0)
    1086:	100017b7          	lui	a5,0x10001
    108a:	0791                	addi	a5,a5,4 # 10001004 <__stack+0xffc1004>
    108c:	439c                	lw	a5,0(a5)
    108e:	0007871b          	sext.w	a4,a5
    1092:	100017b7          	lui	a5,0x10001
    1096:	0791                	addi	a5,a5,4 # 10001004 <__stack+0xffc1004>
    1098:	00476713          	ori	a4,a4,4
    109c:	2701                	sext.w	a4,a4
    109e:	c398                	sw	a4,0(a5)
    10a0:	fec42783          	lw	a5,-20(s0)
    10a4:	4601                	li	a2,0
    10a6:	85be                	mv	a1,a5
    10a8:	4545                	li	a0,17
    10aa:	e25ff0ef          	jal	ra,ece <__sd_sendcmd>
    10ae:	87aa                	mv	a5,a0
    10b0:	c399                	beqz	a5,10b6 <__sd_readblk+0x42>
    10b2:	4781                	li	a5,0
    10b4:	a809                	j	10c6 <__sd_readblk+0x52>
    10b6:	4605                	li	a2,1
    10b8:	20000593          	li	a1,512
    10bc:	fe043503          	ld	a0,-32(s0)
    10c0:	eefff0ef          	jal	ra,fae <__sd_rcvdata>
    10c4:	87aa                	mv	a5,a0
    10c6:	853e                	mv	a0,a5
    10c8:	60e2                	ld	ra,24(sp)
    10ca:	6442                	ld	s0,16(sp)
    10cc:	6105                	addi	sp,sp,32
    10ce:	8082                	ret

00000000000010d0 <__sd_init>:
    10d0:	7179                	addi	sp,sp,-48
    10d2:	f406                	sd	ra,40(sp)
    10d4:	f022                	sd	s0,32(sp)
    10d6:	1800                	addi	s0,sp,48
    10d8:	fca43c23          	sd	a0,-40(s0)
    10dc:	fe040523          	sb	zero,-22(s0)
    10e0:	451d                	li	a0,7
    10e2:	cffff0ef          	jal	ra,de0 <__spi_init>
    10e6:	4505                	li	a0,1
    10e8:	416000ef          	jal	ra,14fe <__delay>
    10ec:	100017b7          	lui	a5,0x10001
    10f0:	0791                	addi	a5,a5,4 # 10001004 <__stack+0xffc1004>
    10f2:	439c                	lw	a5,0(a5)
    10f4:	0007871b          	sext.w	a4,a5
    10f8:	100017b7          	lui	a5,0x10001
    10fc:	0791                	addi	a5,a5,4 # 10001004 <__stack+0xffc1004>
    10fe:	9b6d                	andi	a4,a4,-5
    1100:	2701                	sext.w	a4,a4
    1102:	c398                	sw	a4,0(a5)
    1104:	fe0405a3          	sb	zero,-21(s0)
    1108:	a811                	j	111c <__sd_init+0x4c>
    110a:	0ff00513          	li	a0,255
    110e:	d0fff0ef          	jal	ra,e1c <__spi_rwbyte>
    1112:	feb44783          	lbu	a5,-21(s0)
    1116:	2785                	addiw	a5,a5,1
    1118:	fef405a3          	sb	a5,-21(s0)
    111c:	feb44783          	lbu	a5,-21(s0)
    1120:	0ff7f713          	zext.b	a4,a5
    1124:	47a5                	li	a5,9
    1126:	fee7f2e3          	bgeu	a5,a4,110a <__sd_init+0x3a>
    112a:	100017b7          	lui	a5,0x10001
    112e:	0791                	addi	a5,a5,4 # 10001004 <__stack+0xffc1004>
    1130:	439c                	lw	a5,0(a5)
    1132:	0007871b          	sext.w	a4,a5
    1136:	100017b7          	lui	a5,0x10001
    113a:	0791                	addi	a5,a5,4 # 10001004 <__stack+0xffc1004>
    113c:	00476713          	ori	a4,a4,4
    1140:	2701                	sext.w	a4,a4
    1142:	c398                	sw	a4,0(a5)
    1144:	4785                	li	a5,1
    1146:	fef40523          	sb	a5,-22(s0)
    114a:	fe042623          	sw	zero,-20(s0)
    114e:	09500613          	li	a2,149
    1152:	4581                	li	a1,0
    1154:	4501                	li	a0,0
    1156:	d79ff0ef          	jal	ra,ece <__sd_sendcmd>
    115a:	87aa                	mv	a5,a0
    115c:	fef404a3          	sb	a5,-23(s0)
    1160:	fec42783          	lw	a5,-20(s0)
    1164:	0017871b          	addiw	a4,a5,1
    1168:	fee42623          	sw	a4,-20(s0)
    116c:	873e                	mv	a4,a5
    116e:	3e800793          	li	a5,1000
    1172:	00e7f563          	bgeu	a5,a4,117c <__sd_init+0xac>
    1176:	fea44783          	lbu	a5,-22(s0)
    117a:	a289                	j	12bc <__sd_init+0x1ec>
    117c:	fe944783          	lbu	a5,-23(s0)
    1180:	0ff7f713          	zext.b	a4,a5
    1184:	4785                	li	a5,1
    1186:	fcf714e3          	bne	a4,a5,114e <__sd_init+0x7e>
    118a:	08700613          	li	a2,135
    118e:	1aa00593          	li	a1,426
    1192:	4521                	li	a0,8
    1194:	d3bff0ef          	jal	ra,ece <__sd_sendcmd>
    1198:	87aa                	mv	a5,a0
    119a:	fef404a3          	sb	a5,-23(s0)
    119e:	fe944783          	lbu	a5,-23(s0)
    11a2:	0ff7f713          	zext.b	a4,a5
    11a6:	4795                	li	a5,5
    11a8:	00f71d63          	bne	a4,a5,11c2 <__sd_init+0xf2>
    11ac:	fe040793          	addi	a5,s0,-32
    11b0:	4591                	li	a1,4
    11b2:	853e                	mv	a0,a5
    11b4:	cbdff0ef          	jal	ra,e70 <__sd_getresp>
    11b8:	fd843783          	ld	a5,-40(s0)
    11bc:	00078023          	sb	zero,0(a5)
    11c0:	a0d1                	j	1284 <__sd_init+0x1b4>
    11c2:	fe944783          	lbu	a5,-23(s0)
    11c6:	0ff7f713          	zext.b	a4,a5
    11ca:	4785                	li	a5,1
    11cc:	0af71c63          	bne	a4,a5,1284 <__sd_init+0x1b4>
    11d0:	fe040793          	addi	a5,s0,-32
    11d4:	4591                	li	a1,4
    11d6:	853e                	mv	a0,a5
    11d8:	c99ff0ef          	jal	ra,e70 <__sd_getresp>
    11dc:	fe042623          	sw	zero,-20(s0)
    11e0:	4601                	li	a2,0
    11e2:	4581                	li	a1,0
    11e4:	03700513          	li	a0,55
    11e8:	ce7ff0ef          	jal	ra,ece <__sd_sendcmd>
    11ec:	87aa                	mv	a5,a0
    11ee:	fef404a3          	sb	a5,-23(s0)
    11f2:	4601                	li	a2,0
    11f4:	400005b7          	lui	a1,0x40000
    11f8:	02900513          	li	a0,41
    11fc:	cd3ff0ef          	jal	ra,ece <__sd_sendcmd>
    1200:	87aa                	mv	a5,a0
    1202:	fef404a3          	sb	a5,-23(s0)
    1206:	fec42783          	lw	a5,-20(s0)
    120a:	0017871b          	addiw	a4,a5,1
    120e:	fee42623          	sw	a4,-20(s0)
    1212:	873e                	mv	a4,a5
    1214:	3e700793          	li	a5,999
    1218:	00e7e763          	bltu	a5,a4,1226 <__sd_init+0x156>
    121c:	fe944783          	lbu	a5,-23(s0)
    1220:	0ff7f793          	zext.b	a5,a5
    1224:	ffd5                	bnez	a5,11e0 <__sd_init+0x110>
    1226:	fe042623          	sw	zero,-20(s0)
    122a:	4601                	li	a2,0
    122c:	4581                	li	a1,0
    122e:	03a00513          	li	a0,58
    1232:	c9dff0ef          	jal	ra,ece <__sd_sendcmd>
    1236:	87aa                	mv	a5,a0
    1238:	fef404a3          	sb	a5,-23(s0)
    123c:	fec42783          	lw	a5,-20(s0)
    1240:	0017871b          	addiw	a4,a5,1
    1244:	fee42623          	sw	a4,-20(s0)
    1248:	873e                	mv	a4,a5
    124a:	3e700793          	li	a5,999
    124e:	00e7e763          	bltu	a5,a4,125c <__sd_init+0x18c>
    1252:	fe944783          	lbu	a5,-23(s0)
    1256:	0ff7f793          	zext.b	a5,a5
    125a:	fbe1                	bnez	a5,122a <__sd_init+0x15a>
    125c:	fe040793          	addi	a5,s0,-32
    1260:	4591                	li	a1,4
    1262:	853e                	mv	a0,a5
    1264:	c0dff0ef          	jal	ra,e70 <__sd_getresp>
    1268:	fe044783          	lbu	a5,-32(s0)
    126c:	2781                	sext.w	a5,a5
    126e:	0407f793          	andi	a5,a5,64
    1272:	2781                	sext.w	a5,a5
    1274:	c399                	beqz	a5,127a <__sd_init+0x1aa>
    1276:	478d                	li	a5,3
    1278:	a011                	j	127c <__sd_init+0x1ac>
    127a:	4789                	li	a5,2
    127c:	fd843703          	ld	a4,-40(s0)
    1280:	00f70023          	sb	a5,0(a4)
    1284:	4509                	li	a0,2
    1286:	b5bff0ef          	jal	ra,de0 <__spi_init>
    128a:	09500613          	li	a2,149
    128e:	4581                	li	a1,0
    1290:	03b00513          	li	a0,59
    1294:	c3bff0ef          	jal	ra,ece <__sd_sendcmd>
    1298:	87aa                	mv	a5,a0
    129a:	fef404a3          	sb	a5,-23(s0)
    129e:	09500613          	li	a2,149
    12a2:	20000593          	li	a1,512
    12a6:	4541                	li	a0,16
    12a8:	c27ff0ef          	jal	ra,ece <__sd_sendcmd>
    12ac:	87aa                	mv	a5,a0
    12ae:	fef404a3          	sb	a5,-23(s0)
    12b2:	4789                	li	a5,2
    12b4:	fef40523          	sb	a5,-22(s0)
    12b8:	fea44783          	lbu	a5,-22(s0)
    12bc:	853e                	mv	a0,a5
    12be:	70a2                	ld	ra,40(sp)
    12c0:	7402                	ld	s0,32(sp)
    12c2:	6145                	addi	sp,sp,48
    12c4:	8082                	ret

00000000000012c6 <__uart_init>:
    12c6:	1141                	addi	sp,sp,-16
    12c8:	e422                	sd	s0,8(sp)
    12ca:	0800                	addi	s0,sp,16
    12cc:	100007b7          	lui	a5,0x10000
    12d0:	07a1                	addi	a5,a5,8 # 10000008 <__stack+0xffc0008>
    12d2:	4705                	li	a4,1
    12d4:	c398                	sw	a4,0(a5)
    12d6:	100007b7          	lui	a5,0x10000
    12da:	07b1                	addi	a5,a5,12 # 1000000c <__stack+0xffc000c>
    12dc:	4705                	li	a4,1
    12de:	c398                	sw	a4,0(a5)
    12e0:	0001                	nop
    12e2:	6422                	ld	s0,8(sp)
    12e4:	0141                	addi	sp,sp,16
    12e6:	8082                	ret

00000000000012e8 <__putch>:
    12e8:	1101                	addi	sp,sp,-32
    12ea:	ec22                	sd	s0,24(sp)
    12ec:	1000                	addi	s0,sp,32
    12ee:	87aa                	mv	a5,a0
    12f0:	fef407a3          	sb	a5,-17(s0)
    12f4:	0001                	nop
    12f6:	100007b7          	lui	a5,0x10000
    12fa:	439c                	lw	a5,0(a5)
    12fc:	100007b7          	lui	a5,0x10000
    1300:	fef44703          	lbu	a4,-17(s0)
    1304:	2701                	sext.w	a4,a4
    1306:	c398                	sw	a4,0(a5)
    1308:	0001                	nop
    130a:	6462                	ld	s0,24(sp)
    130c:	6105                	addi	sp,sp,32
    130e:	8082                	ret

0000000000001310 <__puts>:
    1310:	7179                	addi	sp,sp,-48
    1312:	f406                	sd	ra,40(sp)
    1314:	f022                	sd	s0,32(sp)
    1316:	1800                	addi	s0,sp,48
    1318:	fca43c23          	sd	a0,-40(s0)
    131c:	fe042623          	sw	zero,-20(s0)
    1320:	a00d                	j	1342 <__puts+0x32>
    1322:	fd843783          	ld	a5,-40(s0)
    1326:	00178713          	addi	a4,a5,1 # 10000001 <__stack+0xffc0001>
    132a:	fce43c23          	sd	a4,-40(s0)
    132e:	0007c783          	lbu	a5,0(a5)
    1332:	853e                	mv	a0,a5
    1334:	fb5ff0ef          	jal	ra,12e8 <__putch>
    1338:	fec42783          	lw	a5,-20(s0)
    133c:	2785                	addiw	a5,a5,1
    133e:	fef42623          	sw	a5,-20(s0)
    1342:	fd843783          	ld	a5,-40(s0)
    1346:	0007c783          	lbu	a5,0(a5)
    134a:	ffe1                	bnez	a5,1322 <__puts+0x12>
    134c:	4529                	li	a0,10
    134e:	f9bff0ef          	jal	ra,12e8 <__putch>
    1352:	fec42783          	lw	a5,-20(s0)
    1356:	853e                	mv	a0,a5
    1358:	70a2                	ld	ra,40(sp)
    135a:	7402                	ld	s0,32(sp)
    135c:	6145                	addi	sp,sp,48
    135e:	8082                	ret

0000000000001360 <__strcmp>:
    1360:	7179                	addi	sp,sp,-48
    1362:	f422                	sd	s0,40(sp)
    1364:	1800                	addi	s0,sp,48
    1366:	fea43423          	sd	a0,-24(s0)
    136a:	feb43023          	sd	a1,-32(s0)
    136e:	87b2                	mv	a5,a2
    1370:	fcf42e23          	sw	a5,-36(s0)
    1374:	a099                	j	13ba <__strcmp+0x5a>
    1376:	fe843783          	ld	a5,-24(s0)
    137a:	0007c703          	lbu	a4,0(a5)
    137e:	fe043783          	ld	a5,-32(s0)
    1382:	0007c783          	lbu	a5,0(a5)
    1386:	00f77463          	bgeu	a4,a5,138e <__strcmp+0x2e>
    138a:	57fd                	li	a5,-1
    138c:	a83d                	j	13ca <__strcmp+0x6a>
    138e:	fe843783          	ld	a5,-24(s0)
    1392:	0007c703          	lbu	a4,0(a5)
    1396:	fe043783          	ld	a5,-32(s0)
    139a:	0007c783          	lbu	a5,0(a5)
    139e:	00e7f463          	bgeu	a5,a4,13a6 <__strcmp+0x46>
    13a2:	4785                	li	a5,1
    13a4:	a01d                	j	13ca <__strcmp+0x6a>
    13a6:	fe843783          	ld	a5,-24(s0)
    13aa:	0785                	addi	a5,a5,1
    13ac:	fef43423          	sd	a5,-24(s0)
    13b0:	fe043783          	ld	a5,-32(s0)
    13b4:	0785                	addi	a5,a5,1
    13b6:	fef43023          	sd	a5,-32(s0)
    13ba:	fdc42783          	lw	a5,-36(s0)
    13be:	fff7871b          	addiw	a4,a5,-1
    13c2:	fce42e23          	sw	a4,-36(s0)
    13c6:	fbc5                	bnez	a5,1376 <__strcmp+0x16>
    13c8:	4781                	li	a5,0
    13ca:	853e                	mv	a0,a5
    13cc:	7422                	ld	s0,40(sp)
    13ce:	6145                	addi	sp,sp,48
    13d0:	8082                	ret

00000000000013d2 <__memcpy>:
    13d2:	7179                	addi	sp,sp,-48
    13d4:	f422                	sd	s0,40(sp)
    13d6:	1800                	addi	s0,sp,48
    13d8:	fea43423          	sd	a0,-24(s0)
    13dc:	feb43023          	sd	a1,-32(s0)
    13e0:	87b2                	mv	a5,a2
    13e2:	fcf42e23          	sw	a5,-36(s0)
    13e6:	fe843703          	ld	a4,-24(s0)
    13ea:	fe043783          	ld	a5,-32(s0)
    13ee:	8fd9                	or	a5,a5,a4
    13f0:	8b9d                	andi	a5,a5,7
    13f2:	c3bd                	beqz	a5,1458 <__memcpy+0x86>
    13f4:	a805                	j	1424 <__memcpy+0x52>
    13f6:	fe043783          	ld	a5,-32(s0)
    13fa:	0007c703          	lbu	a4,0(a5)
    13fe:	fe843783          	ld	a5,-24(s0)
    1402:	00e78023          	sb	a4,0(a5)
    1406:	fe843783          	ld	a5,-24(s0)
    140a:	0785                	addi	a5,a5,1
    140c:	fef43423          	sd	a5,-24(s0)
    1410:	fe043783          	ld	a5,-32(s0)
    1414:	0785                	addi	a5,a5,1
    1416:	fef43023          	sd	a5,-32(s0)
    141a:	fdc42783          	lw	a5,-36(s0)
    141e:	37fd                	addiw	a5,a5,-1
    1420:	fcf42e23          	sw	a5,-36(s0)
    1424:	fdc42783          	lw	a5,-36(s0)
    1428:	2781                	sext.w	a5,a5
    142a:	f7f1                	bnez	a5,13f6 <__memcpy+0x24>
    142c:	a0d9                	j	14f2 <__memcpy+0x120>
    142e:	fe043783          	ld	a5,-32(s0)
    1432:	6398                	ld	a4,0(a5)
    1434:	fe843783          	ld	a5,-24(s0)
    1438:	e398                	sd	a4,0(a5)
    143a:	fe843783          	ld	a5,-24(s0)
    143e:	07a1                	addi	a5,a5,8
    1440:	fef43423          	sd	a5,-24(s0)
    1444:	fe043783          	ld	a5,-32(s0)
    1448:	07a1                	addi	a5,a5,8
    144a:	fef43023          	sd	a5,-32(s0)
    144e:	fdc42783          	lw	a5,-36(s0)
    1452:	37e1                	addiw	a5,a5,-8
    1454:	fcf42e23          	sw	a5,-36(s0)
    1458:	fdc42783          	lw	a5,-36(s0)
    145c:	0007871b          	sext.w	a4,a5
    1460:	479d                	li	a5,7
    1462:	fce7e6e3          	bltu	a5,a4,142e <__memcpy+0x5c>
    1466:	fdc42783          	lw	a5,-36(s0)
    146a:	0007871b          	sext.w	a4,a5
    146e:	478d                	li	a5,3
    1470:	02e7f763          	bgeu	a5,a4,149e <__memcpy+0xcc>
    1474:	fe043783          	ld	a5,-32(s0)
    1478:	4398                	lw	a4,0(a5)
    147a:	fe843783          	ld	a5,-24(s0)
    147e:	c398                	sw	a4,0(a5)
    1480:	fe843783          	ld	a5,-24(s0)
    1484:	0791                	addi	a5,a5,4
    1486:	fef43423          	sd	a5,-24(s0)
    148a:	fe043783          	ld	a5,-32(s0)
    148e:	0791                	addi	a5,a5,4
    1490:	fef43023          	sd	a5,-32(s0)
    1494:	fdc42783          	lw	a5,-36(s0)
    1498:	37f1                	addiw	a5,a5,-4
    149a:	fcf42e23          	sw	a5,-36(s0)
    149e:	fdc42783          	lw	a5,-36(s0)
    14a2:	0007871b          	sext.w	a4,a5
    14a6:	4785                	li	a5,1
    14a8:	02e7f963          	bgeu	a5,a4,14da <__memcpy+0x108>
    14ac:	fe043783          	ld	a5,-32(s0)
    14b0:	0007d703          	lhu	a4,0(a5)
    14b4:	fe843783          	ld	a5,-24(s0)
    14b8:	00e79023          	sh	a4,0(a5)
    14bc:	fe843783          	ld	a5,-24(s0)
    14c0:	0789                	addi	a5,a5,2
    14c2:	fef43423          	sd	a5,-24(s0)
    14c6:	fe043783          	ld	a5,-32(s0)
    14ca:	0789                	addi	a5,a5,2
    14cc:	fef43023          	sd	a5,-32(s0)
    14d0:	fdc42783          	lw	a5,-36(s0)
    14d4:	37f9                	addiw	a5,a5,-2
    14d6:	fcf42e23          	sw	a5,-36(s0)
    14da:	fdc42783          	lw	a5,-36(s0)
    14de:	2781                	sext.w	a5,a5
    14e0:	cb89                	beqz	a5,14f2 <__memcpy+0x120>
    14e2:	fe043783          	ld	a5,-32(s0)
    14e6:	0007c703          	lbu	a4,0(a5)
    14ea:	fe843783          	ld	a5,-24(s0)
    14ee:	00e78023          	sb	a4,0(a5)
    14f2:	fe843783          	ld	a5,-24(s0)
    14f6:	853e                	mv	a0,a5
    14f8:	7422                	ld	s0,40(sp)
    14fa:	6145                	addi	sp,sp,48
    14fc:	8082                	ret

00000000000014fe <__delay>:
    14fe:	1101                	addi	sp,sp,-32
    1500:	ec22                	sd	s0,24(sp)
    1502:	1000                	addi	s0,sp,32
    1504:	87aa                	mv	a5,a0
    1506:	fef42623          	sw	a5,-20(s0)
    150a:	0800c7b7          	lui	a5,0x800c
    150e:	17e1                	addi	a5,a5,-8 # 800bff8 <__stack+0x7fcbff8>
    1510:	6394                	ld	a3,0(a5)
    1512:	fec42783          	lw	a5,-20(s0)
    1516:	873e                	mv	a4,a5
    1518:	000f47b7          	lui	a5,0xf4
    151c:	2407879b          	addiw	a5,a5,576 # f4240 <__stack+0xb4240>
    1520:	02f707bb          	mulw	a5,a4,a5
    1524:	2781                	sext.w	a5,a5
    1526:	873e                	mv	a4,a5
    1528:	47f9                	li	a5,30
    152a:	02f757bb          	divuw	a5,a4,a5
    152e:	2781                	sext.w	a5,a5
    1530:	02079713          	slli	a4,a5,0x20
    1534:	9301                	srli	a4,a4,0x20
    1536:	080047b7          	lui	a5,0x8004
    153a:	9736                	add	a4,a4,a3
    153c:	e398                	sd	a4,0(a5)
    153e:	08000793          	li	a5,128
    1542:	3047a073          	csrs	mie,a5
    1546:	10500073          	wfi
    154a:	08000793          	li	a5,128
    154e:	3047b073          	csrc	mie,a5
    1552:	0001                	nop
    1554:	6462                	ld	s0,24(sp)
    1556:	6105                	addi	sp,sp,32
    1558:	8082                	ret
	...
