
main:     file format elf64-littleriscv
main
architecture: riscv:rv64, flags 0x00000112:
EXEC_P, HAS_SYMS, D_PAGED
start address 0x0000000000000000

Program Header:
0x70000003 off    0x0000000000002e3b vaddr 0x0000000000000000 paddr 0x0000000000000000 align 2**0
         filesz 0x0000000000000044 memsz 0x0000000000000000 flags r--
    LOAD off    0x0000000000001000 vaddr 0x0000000000000000 paddr 0x0000000000000000 align 2**12
         filesz 0x0000000000001e20 memsz 0x0000000000001e20 flags rwx
    LOAD off    0x0000000000000000 vaddr 0x0000000000020000 paddr 0x0000000000020000 align 2**12
         filesz 0x0000000000000000 memsz 0x0000000000020000 flags rw-

Sections:
Idx Name          Size      VMA               LMA               File off  Algn
  0 .text         00001566  0000000000000000  0000000000000000  00001000  2**3
                  CONTENTS, ALLOC, LOAD, READONLY, CODE
  1 .rodata       00000040  0000000000001568  0000000000001568  00002568  2**3
                  CONTENTS, ALLOC, LOAD, READONLY, DATA
  2 .data         00000878  00000000000015a8  00000000000015a8  000025a8  2**0
                  CONTENTS, ALLOC, LOAD, DATA
  3 .stack        00020000  0000000000020000  0000000000020000  00003000  2**0
                  ALLOC
  4 .comment      0000001b  0000000000000000  0000000000000000  00002e20  2**0
                  CONTENTS, READONLY
  5 .riscv.attributes 00000044  0000000000000000  0000000000000000  00002e3b  2**0
                  CONTENTS, READONLY
SYMBOL TABLE:
0000000000000000 l    d  .text	0000000000000000 .text
0000000000001568 l    d  .rodata	0000000000000000 .rodata
00000000000015a8 l    d  .data	0000000000000000 .data
0000000000020000 l    d  .stack	0000000000000000 .stack
0000000000000000 l    d  .comment	0000000000000000 .comment
0000000000000000 l    d  .riscv.attributes	0000000000000000 .riscv.attributes
0000000000000000 l    df *ABS*	0000000000000000 setup.o
000000000000003e l       .text	0000000000000000 fill_stack
00000000000000e0 l       .text	0000000000000000 fill_block
0000000000000054 l       .text	0000000000000000 init_stack
000000000000005c l       .text	0000000000000000 init_system
0000000000000098 l       .text	0000000000000000 rv64
00000000000000f0 l       .text	0000000000000000 sysram_base
00000000000000f8 l       .text	0000000000000000 sysram_size
00000000000000cc l       .text	0000000000000000 goto_main
00000000000000de l       .text	0000000000000000 dead_loop
00000000000000ea l       .text	0000000000000000 fb_end
0000000000000000 l    df *ABS*	0000000000000000 main.c
0000000000000000 l    df *ABS*	0000000000000000 elf_loader.c
0000000000000000 l    df *ABS*	0000000000000000 iolib.c
0000000000000000 l    df *ABS*	0000000000000000 spi.c
0000000000000000 l    df *ABS*	0000000000000000 uart.c
0000000000000000 l    df *ABS*	0000000000000000 util.c
000000000000131c g     F .text	0000000000000050 .hidden __puts
0000000000000876 g       *ABS*	0000000000000000 _binary_tmp_size
0000000000000dec g     F .text	000000000000003c .hidden __spi_init
00000000000015a8 g       *ABS*	0000000000000000 __data_paddr_start
000000000000150a g     F .text	000000000000005c .hidden __delay
0000000000000000 g       .text	0000000000000000 __text_start
0000000000000ba2 g     F .text	0000000000000192 .hidden __fread
00000000000010dc g     F .text	00000000000001f6 .hidden __sd_init
0000000000001080 g     F .text	000000000000005c .hidden __sd_readblk
000000000000136c g     F .text	0000000000000072 .hidden __strcmp
0000000000000d34 g     F .text	00000000000000b8 .hidden __dma_spi_mem_cpy
0000000000000000 g       .text	0000000000000000 _start
0000000000000230 g     F .text	00000000000001f2 .hidden __elf_loader
00000000000015a8 g       .data	0000000000000000 _binary_tmp_start
0000000000000422 g     F .text	0000000000000400 .hidden __fat_bpb_init
00000000000015a8 g       .data	0000000000000000 _DTB
0000000000001e20 g       .data	0000000000000000 __data_end
0000000000000eda g     F .text	00000000000000e0 .hidden __sd_sendcmd
00000000000013de g     F .text	000000000000012c .hidden __memcpy
0000000000001566 g       .text	0000000000000000 __text_end
0000000000000104 g     F .text	000000000000005e .hidden main
00000000000012d2 g     F .text	0000000000000022 .hidden __uart_init
000000000003f000 g       .stack	0000000000000000 _stack_end
0000000000000162 g     F .text	00000000000000ce .hidden __dma_memfill
00000000000012f4 g     F .text	0000000000000028 .hidden __putch
0000000000000e28 g     F .text	0000000000000054 .hidden __spi_rwbyte
0000000000040000 g       .stack	0000000000000000 __stack
0000000000001e1e g       .data	0000000000000000 _binary_tmp_end
0000000000000822 g     F .text	00000000000002fc .hidden __fopen
0000000000000fba g     F .text	00000000000000c6 .hidden __sd_rcvdata
0000000000040000 g       .stack	0000000000000000 _stack
00000000000015a8 g       .data	0000000000000000 __data_start
0000000000000e7c g     F .text	000000000000005e .hidden __sd_getresp
0000000000000b1e g     F .text	0000000000000084 .hidden __fseek


Contents of section .text:
 0000 81400141 81410142 81420143 81430144  .@.A.A.B.B.C.C.D
 0010 81440145 81450146 81460147 81470148  .D.E.E.F.F.G.G.H
 0020 81480149 8149014a 814a014b 814b014c  .H.I.I.J.J.K.K.L
 0030 814c014d 814d014e 814e014f 814f17f5  .L.M.M.N.N.O.O..
 0040 03001305 25fc9705 04009385 65fb0146  ....%.......e..F
 0050 ef000009 17010400 1301c1fa f3221030  .............".0
 0060 63cc0202 b702001a 7390323c 97020000  c.......s.2<....
 0070 83a24208 17030000 03234308 7d131353  ..B......#C.}..S
 0080 1300b3e2 620093d2 22007390 f23d1704  ....b...".s..=..
 0090 00000324 24061da8 9b02d000 e6127390  ...$$.........s.
 00a0 223c9702 000083b2 e2041703 00000333  "<.............3
 00b0 e3047d13 13531300 b3e26200 93d22200  ..}..S....b...".
 00c0 7390f23d 17040000 0334c402 ef008003  s..=.....4......
 00d0 732540f1 97150000 9385454d 028401a0  s%@.......EM....
 00e0 63e5a500 10c11105 e5bf8280 13000000  c...............
 00f0 00000200 00000000 00000200 00000000  ................
 0100 00000000 1301019a 233c1164 23388164  ........#<.d#8.d
 0110 13040166 930704dd 2330f49c ef10601b  ...f....#0....`.
 0120 9307f4fe 3e85ef00 707b9307 04dd3e85  ....>...p{....>.
 0130 ef00202f 9307049a 97150000 93850546  .. /...........F
 0140 3e85ef00 006e9307 049a3e85 ef00400e  >....n....>...@.
 0150 81473e85 83308165 03340165 13010166  .G>..0.e.4.e...f
 0160 82800111 22ec0010 2334a4fe ae873287  ...."...#4....2.
 0170 2322f4fe ba872320 f4feb727 00109387  #"....# ...'....
 0180 07800327 44fe98c3 033784fe b7270010  ...'D....7...'..
 0190 93874780 012798c3 b7270010 93878780  ..G..'...'......
 01a0 032704fe 98c3b727 00109387 c78023a0  .'.....'......#.
 01b0 0700b727 00109387 c7809c43 1b870700  ...'.......C....
 01c0 b7270010 9387c780 13670707 012798c3  .'.......g...'..
 01d0 b7270010 9387c780 9c431b87 0700b727  .'.......C.....'
 01e0 00109387 c780ba86 05671307 07a0558f  .........g....U.
 01f0 012798c3 b7270010 9387c780 9c431b87  .'...'.......C..
 0200 0700b727 00109387 c7801367 17000127  ...'.......g...'
 0210 98c30100 b7270010 9387c780 9c438127  .....'.......C.'
 0220 8127e3c9 07fe8547 3e856264 05618280  .'.....G>.bd.a..
 0230 130101dd 23341122 23308122 001c233c  ....#4."#0."..#<
 0240 a4dc2326 04fe0146 81450335 84ddef00  ..#&...F.E.5....
 0250 100d9307 04fa1306 0004be85 033584dd  .............5..
 0260 ef003014 61aa8357 84fd8127 0327c4fe  ..0.a..W...'.'..
 0270 999f8127 3e87a147 63e6e700 835784fd  ...'>..Gc....W..
 0280 812711a0 a1472322 f4fe8327 c4fe3e87  .'...G#"...'..>.
 0290 ba879b97 3700999f 9b973700 1b870700  ....7.....7.....
 02a0 833704fc 8127b99f 81270146 be850335  .7...'...'.F...5
 02b0 84ddef00 d0068327 44fe3e87 ba879b97  .......'D.>.....
 02c0 3700999f 9b973700 1b870700 930704de  7.....7.........
 02d0 3a86be85 033584dd ef00b00c 232404fe  :....5......#$..
 02e0 eda80367 84feba87 8e07998f 8e07c117  ...g............
 02f0 a29783b7 87df8127 0146be85 033584dd  .......'.F...5..
 0300 ef00f001 036784fe ba878e07 998f8e07  .....g..........
 0310 c117a297 83b787e0 be860367 84feba87  ...........g....
 0320 8e07998f 8e07c117 a29783b7 07e18127  ...............'
 0330 3e86b685 033584dd ef00b006 036784fe  >....5.......g..
 0340 ba878e07 998f8e07 c117a297 83b607e1  ................
 0350 036784fe ba878e07 998f8e07 c117a297  .g..............
 0360 83b787e1 63f6f606 036784fe ba878e07  ....c....g......
 0370 998f8e07 c117a297 83b687e0 036784fe  .............g..
 0380 ba878e07 998f8e07 c117a297 83b707e1  ................
 0390 b6973e85 036784fe ba878e07 998f8e07  ..>..g..........
 03a0 c117a297 83b787e1 9b860700 036784fe  .............g..
 03b0 ba878e07 998f8e07 c117a297 83b707e1  ................
 03c0 8127bb87 f6408127 3e868145 eff07fd9  .'...@.'>..E....
 03d0 832784fe 85272324 f4fe8327 84fe3e87  .'...'#$...'..>.
 03e0 832744fe 01278127 e36df7ee 8327c4fe  .'D..'.'.m...'..
 03f0 3e878327 44feb99f 2326f4fe 835784fd  >..'D...#&...W..
 0400 1b870700 8327c4fe 8127e3ee e7e48337  .....'...'.....7
 0410 84fb3e85 83308122 03340122 13010123  ..>..0.".4."...#
 0420 82801301 01dd2334 11222330 8122001c  ......#4."#0."..
 0430 233ca4dc 231704fe 8357e4fe 81271307  #<..#....W...'..
 0440 84deba85 3e85ef00 b043aa87 99e38147  ....>....C.....G
 0450 c9a69307 84de9387 e71f83d7 07001b87  ................
 0460 0700ad67 938757a5 6304f700 814755a6  ...g..W.c....GU.
 0470 930784de 93876703 21469715 00009385  ......g.!F......
 0480 e50e3e85 ef00906e aa878127 99e78337  ..>....n...'...7
 0490 84dd0d47 238ae700 05a29307 84de9387  ...G#...........
 04a0 67032146 97150000 9385450d 3e85ef00  g.!F......E.>...
 04b0 f06baa87 812799e7 833784dd 1147238a  .k...'...7...G#.
 04c0 e700dda8 930784de 93872705 21469715  ..........'.!F..
 04d0 00009385 a50b3e85 ef005069 aa878127  ......>...Pi...'
 04e0 99e78337 84dd1547 238ae700 f1a09307  ...7...G#.......
 04f0 84de9387 671c83d7 07002317 f4fe8357  ....g.....#....W
 0500 e4fe8127 130784de ba853e85 ef005037  ...'......>...P7
 0510 aa8799e3 8147f5ac 930784de 9387e71f  .....G..........
 0520 83d70700 1b870700 ad679387 57a56304  .........g..W.c.
 0530 f7008147 f9ac9307 84de9387 67032146  ...G........g.!F
 0540 97150000 93858502 3e85ef00 3062aa87  ........>...0b..
 0550 812799e7 833784dd 0d47238a e700a9a8  .'...7...G#.....
 0560 930784de 93876703 21469715 00009385  ......g.!F......
 0570 e5003e85 ef00905f aa878127 99e78337  ..>...._...'...7
 0580 84dd1147 238ae700 05a89307 84de9387  ...G#...........
 0590 27052146 97150000 938545ff 3e85ef00  '.!F......E.>...
 05a0 f05caa87 812799e7 833784dd 1547238a  .\...'...7...G#.
 05b0 e70019a0 8147b1ac 834734df 1b970701  .....G...G4.....
 05c0 1b570741 930784de ad078507 83c70700  .W.A............
 05d0 81279b97 87008127 9b970701 9bd70741  .'.....'.......A
 05e0 d98f9b97 07019bd7 07411397 07034193  .........A....A.
 05f0 833784dd 2390e700 034754df 833784dd  .7..#....GT..7..
 0600 2389e700 833784dd 83c74701 3e879547  #....7....G.>..G
 0610 6319f700 930784de 93874702 83d70700  c.........G.....
 0620 31a09307 84ded907 83d70700 033784dd  1............7..
 0630 2311f700 034784df 833784dd a389e700  #....G...7......
 0640 834764df 1b970701 1b570741 930784de  .Gd......W.A....
 0650 b9078507 83c70700 81279b97 87008127  .........'.....'
 0660 9b970701 9bd70741 d98f9b97 07019bd7  .......A........
 0670 0741c217 c1930357 e4feb99f 13970703  .A.....W........
 0680 41938337 84dd2392 e7008337 84dd83c7  A..7..#....7....
 0690 37011397 07034193 833784dd 83d72700  7.....A..7....'.
 06a0 bb07f702 13970703 41938337 84dd83d7  ........A..7....
 06b0 4700b99f 13970703 41938337 84dd2393  G.......A..7..#.
 06c0 e7008347 94df1b97 07011b57 07419307  ...G.......W.A..
 06d0 84dec507 850783c7 07008127 9b978700  ...........'....
 06e0 81279b97 07019bd7 0741d98f 9b970701  .'.......A......
 06f0 9bd70741 13970703 41938337 84dd2396  ...A....A..7..#.
 0700 e7008337 84dd83c7 47013e87 95476315  ...7....G.>..Gc.
 0710 f7029307 84de9387 c70203d7 07008337  ...............7
 0720 84dd2397 e7008337 84dd03d7 67008337  ..#....7....g..7
 0730 84dd2398 e70035a8 833784dd 03d76700  ..#...5..7....g.
 0740 833784dd 2397e700 833784dd 83d7c700  .7..#....7......
 0750 9bd74700 13970703 41938337 84dd83d7  ..G.....A..7....
 0760 6700b99f 13970703 41938337 84dd2398  g.......A..7..#.
 0770 e7009307 84de9387 07029c43 99c79307  ...........C....
 0780 84de9387 07029c43 15a08347 b4df1b87  .......C...G....
 0790 07009307 84decd07 850783c7 07008127  ...............'
 07a0 9b978700 8127d98f 81278127 2324f4fe  .....'...'.'#$..
 07b0 833784dd 83d70701 81270327 84febb07  .7.......'.'....
 07c0 f7401b87 07008357 e4fe8127 b99f1b87  .@.....W...'....
 07d0 07008337 84dd83c7 27018127 bb57f702  ...7....'..'.W..
 07e0 81278927 1b870700 833784dd 98c78337  .'.'.....7.....7
 07f0 84dd83d7 47001b87 07008337 84dde107  ....G......7....
 0800 be853a85 ef00d007 aa8799e3 814711a0  ..:..........G..
 0810 85473e85 83308122 03340122 13010123  .G>..0.".4."...#
 0820 82801301 01dc233c 11222338 81228004  ......#<."#8."..
 0830 2334a4dc 2330b4dc 231704fe 05a88337  #4..#0..#......7
 0840 04dc1387 17002330 e4dc03c7 07008357  ......#0.......W
 0850 e4fe9b86 17002317 d4fe8127 1377f7fd  ......#....'.w..
 0860 1377f70f c117a297 2384e7fe 8357e4fe  .w......#....W..
 0870 1b870700 9d4763ee e7028337 04dc83c7  .....Gc....7....
 0880 070085cb 833704dc 83c70700 3e879307  .....7......>...
 0890 e002e316 f7fa31a8 8357e4fe 1b871700  ......1..W......
 08a0 2317e4fe 8127c117 a2971307 00022384  #....'........#.
 08b0 e7fe8357 e4fe1b87 07009d47 e3fee7fc  ...W.......G....
 08c0 833704dc 85072330 f4dc2317 04fe05a8  .7....#0..#.....
 08d0 833704dc 13871700 2330e4dc 03c70700  .7......#0......
 08e0 8357e4fe 9b861700 2317d4fe 81271377  .W......#....'.w
 08f0 f7fd1377 f70fc117 a2972380 e7fe8357  ...w......#....W
 0900 e4fe1b87 07008947 63e5e702 833704dc  .......Gc....7..
 0910 83c70700 d5ff31a8 8357e4fe 1b871700  ......1..W......
 0920 2317e4fe 8127c117 a2971307 00022380  #....'........#.
 0930 e7fe8357 e4fe1b87 07008947 e3fee7fc  ...W.......G....
 0940 833784dc 9c7383d7 07018127 130704dd  .7...s.....'....
 0950 ba853e85 ef00c072 aa8799e3 814745aa  ..>....r.....GE.
 0960 231704fe 61aa8357 e4fe8127 c117a297  #...a..W...'....
 0970 83c707de 3e879307 500e6304 f7048357  ....>...P.c....W
 0980 e4fe8127 130704dd ba971307 84fd2146  ...'..........!F
 0990 ba853e85 ef00901d aa878127 9de38357  ..>........'...W
 09a0 e4fe8127 a1278127 130704dd ba971307  ...'.'.'........
 09b0 04fd0d46 ba853e85 ef00501b aa878127  ...F..>...P....'
 09c0 81cb8357 e4fe9b87 07022317 f4fe3da2  ...W......#...=.
 09d0 8357e4fe 81271307 04ddba97 13060002  .W...'..........
 09e0 be850335 84dcef00 901f8337 84dc23a4  ...5.......7..#.
 09f0 07028337 84dc7d57 d8d78337 84dc83d7  ...7..}W...7....
 0a00 a7011b87 07008337 84dc83d7 47018127  .......7....G..'
 0a10 9b970701 81278127 d98f1b87 07008337  .....'.'.......7
 0a20 84dc9c73 83d7e700 8127bb07 f7401b87  ...s.....'...@..
 0a30 07008337 84dc98db a30304fe 85472316  ...7.........G#.
 0a40 f4fe5da0 834774fe 93f7f70f b1ef8337  ..]..Gt........7
 0a50 84dc9873 8357c4fe 8127fd37 81278336  ...s.W...'.7.'.6
 0a60 84dcb107 8a07b697 94438337 84dc9c73  .........C.7...s
 0a70 83d7e700 8127b59f 81278217 81939107  .....'...'......
 0a80 8a07ba97 9c472324 f4fe8327 84fe1b87  .....G#$...'....
 0a90 0700b707 0010fd17 b307f740 93b71700  ...........@....
 0aa0 93f7f70f a303f4fe 834774fe 93f7f70f  .........Gt.....
 0ab0 89ef8337 84dc9c73 83d7e700 81270327  ...7...s.....'.'
 0ac0 84febb07 f7408127 11a0fd57 0357c4fe  .....@.'...W.W..
 0ad0 01278336 84dc3107 0a073697 1cc38357  .'.6..1...6....W
 0ae0 c4fe8527 2316f4fe 8357c4fe 1b870700  ...'#....W......
 0af0 9307f007 e3f8e7f4 854711a8 8357e4fe  .........G...W..
 0b00 1b870700 9307f01f e3ffe7e4 81473e85  .............G>.
 0b10 83308123 03340123 13010124 82800111  .0.#.4.#...$....
 0b20 22ec0010 2334a4fe ae873287 2322f4fe  "...#4....2.#"..
 0b30 ba87a301 f4fe8347 34fe8127 be860947  .......G4..'...G
 0b40 638ee602 be860947 6346d704 91c73e87  c......GcF....>.
 0b50 85476309 f7003da8 833784fe 032744fe  .Gc...=..7...'D.
 0b60 98d71da8 833784fe 9c570327 44feb99f  .....7...W.'D...
 0b70 1b870700 833784fe 98d739a8 833784fe  .....7....9..7..
 0b80 dc4f0327 44feb99f 1b870700 833784fe  .O.'D........7..
 0b90 98d719a0 814711a0 85473e85 62640561  .....G...G>.bd.a
 0ba0 82805d71 86e4a2e0 80082334 a4fc2330  ..]q......#4..#0
 0bb0 b4fcb287 232ef4fa 833704fc 2334f4fe  ....#....7..#4..
 0bc0 232004fe 833784fc 9c5793f7 f71f232e  # ...7...W....#.
 0bd0 f4fc91a2 833784fc 9c579bd7 9700232c  .....7...W....#,
 0be0 f4fc8337 84fcd857 832784fd 81276387  ...7...W.'...'c.
 0bf0 e7088337 84fc9c73 83d70701 1b870700  ...7...s........
 0c00 833784fc 9c7383c7 27018127 832684fd  .7...s..'..'.&..
 0c10 bbf7f602 8127b99f 1b870700 833784fc  .....'.......7..
 0c20 9c7383c7 27018127 832684fd bbd7f602  .s..'..'.&......
 0c30 81278336 84fc8217 8193b107 8a07b697  .'.6............
 0c40 94438337 84fc9c73 83c72701 8127bb87  .C.7...s..'..'..
 0c50 f6028127 b99f1b87 07008337 84fc9387  ...'.......7....
 0c60 0723be85 3a85ef00 a041aa87 99e38147  .#..:....A.....G
 0c70 6da88337 84fc0327 84fdd8d7 833784fc  m..7...'.....7..
 0c80 9c5793f7 f71f8127 13070020 bb07f740  .W.....'... ...@
 0c90 2322f4fe 832704fe 3e878327 44feb99f  #"...'..>..'D...
 0ca0 1b870700 8327c4fb 8127636b f7008327  .....'...'ck...'
 0cb0 c4fb3e87 832704fe bb07f740 2322f4fe  ..>..'.....@#"..
 0cc0 833784fc 13870723 8367c4fd ba970327  .7.....#.g.....'
 0cd0 44fe3a86 be850335 84feef00 40708327  D.:....5....@p.'
 0ce0 04fe3e87 832744fe b99f2320 f4fe8367  ..>..'D...# ...g
 0cf0 44fe0337 84feba97 2334f4fe 833784fc  D..7....#4...7..
 0d00 9c570327 44feb99f 1b870700 833784fc  .W.'D........7..
 0d10 98d7232e 04fc8327 04fe3e87 8327c4fb  ..#....'..>..'..
 0d20 01278127 e368f7ea 85473e85 a6600664  .'.'.h...G>..`.d
 0d30 61618280 011122ec 00102334 a4feae87  aa...."...#4....
 0d40 2322f4fe 033784fe b7270010 93874780  #"...7...'....G.
 0d50 012798c3 b7270010 93878780 032744fe  .'...'.......'D.
 0d60 98c3b727 00109387 c78023a0 0700b727  ...'......#....'
 0d70 00109387 c7809c43 1b870700 b7270010  .......C.....'..
 0d80 9387c780 13670706 012798c3 b7270010  .....g...'...'..
 0d90 9387c780 9c431b87 0700b727 00109387  .....C.....'....
 0da0 c780ba86 05671307 0780558f 012798c3  .....g....U..'..
 0db0 b7270010 9387c780 9c431b87 0700b727  .'.......C.....'
 0dc0 00109387 c7801367 17000127 98c30100  .......g...'....
 0dd0 b7270010 9387c780 9c438127 8127e3c9  .'.......C.'.'..
 0de0 07fe8547 3e856264 05618280 011122ec  ...G>.bd.a....".
 0df0 0010aa87 2326f4fe b7170010 23a00700  ....#&......#...
 0e00 8327c4fe 9b973700 812793f7 87031b87  .'....7..'......
 0e10 0700b717 00101367 47040127 98c38547  .......gG..'...G
 0e20 3e856264 05618280 011122ec 0010aa87  >.bd.a....".....
 0e30 a307f4fe 0100b717 0010a107 9c438127  .............C.'
 0e40 858b8127 eddbb717 0010b107 0347f4fe  ...'.........G..
 0e50 012798c3 0100b717 0010a107 9c438127  .'...........C.'
 0e60 898b8127 eddbb717 0010b107 9c438127  ...'.........C.'
 0e70 93f7f70f 3e856264 05618280 397106fc  ....>.bd.a..9q..
 0e80 22f826f4 80002334 a4fcae87 2322f4fc  ".&...#4....#"..
 0e90 232e04fc 1da08367 c4fd0337 84fcb304  #......g...7....
 0ea0 f7001305 f00feff0 3ff8aa87 2380f400  ........?...#...
 0eb0 8327c4fd 8527232e f4fc8327 c4fd3e87  .'...'#....'..>.
 0ec0 832744fc 01278127 e367f7fc 85473e85  .'D..'.'.g...G>.
 0ed0 e2704274 a2742161 82807971 06f422f0  .pBt.t!a..yq..".
 0ee0 0018aa87 ae863287 a30ff4fc b687232c  ......2.......#,
 0ef0 f4fcba87 230ff4fc 232604fe 8347f4fd  ....#...#&...G..
 0f00 93e70704 93f7f70f 3e85eff0 fff18327  ........>......'
 0f10 84fd9bd7 87018127 93f7f70f 3e85eff0  .......'....>...
 0f20 bff08327 84fd9bd7 07018127 93f7f70f  ...'.......'....
 0f30 3e85eff0 7fef8327 84fd9bd7 87008127  >......'.......'
 0f40 93f7f70f 3e85eff0 3fee8327 84fd93f7  ....>...?..'....
 0f50 f70f3e85 eff05fed 8347e4fd 93e71700  ..>..._..G......
 0f60 93f7f70f 3e85eff0 3fec1305 f00feff0  ....>...?.......
 0f70 bfebaa87 a305f4fe 01a81305 f00feff0  ................
 0f80 bfeaaa87 a305f4fe 8347b4fe 8127a18b  .........G...'..
 0f90 812789cf 8327c4fe 1b871700 2326e4fe  .'...'......#&..
 0fa0 3e878567 93877738 e3f9e7fc 8347b4fe  >..g..w8.....G..
 0fb0 3e85a270 02744561 82807971 06f422f0  >..p.tEa..yq..".
 0fc0 0018233c a4fcae87 3287232a f4fcba87  ..#<....2.#*....
 0fd0 a309f4fc 232604fe b7170010 91079c43  ....#&.........C
 0fe0 1b870700 b7170010 91071367 47000127  ...........gG..'
 0ff0 98c31305 f00feff0 3fe3aa87 a305f4fe  ........?.......
 1000 8327c4fe 1b871700 2326e4fe 3e878567  .'......#&..>..g
 1010 93878738 63f5e700 8347b4fe a9a88347  ...8c....G.....G
 1020 b4fe13f7 f70f9307 e00fe314 f7fc9305  ................
 1030 00200335 84fdeff0 ffcf1305 f00feff0  . .5............
 1040 bfde1305 f00feff0 3fde8347 34fd93f7  ........?..G4...
 1050 f70f8dc3 b7170010 91079c43 1b870700  ...........C....
 1060 b7170010 91076d9b 012798c3 1305f00f  ......m..'......
 1070 eff09fdb 85473e85 a2700274 45618280  .....G>..p.tEa..
 1080 011106ec 22e80010 aa872330 b4fe2326  ....".....#0..#&
 1090 f4feb717 00109107 9c431b87 0700b717  .........C......
 10a0 00109107 13674700 012798c3 8327c4fe  .....gG..'...'..
 10b0 0146be85 4545eff0 5fe2aa87 99c38147  .F..EE.._......G
 10c0 09a80546 93050020 033504fe eff0ffee  ...F... .5......
 10d0 aa873e85 e2604264 05618280 797106f4  ..>..`Bd.a..yq..
 10e0 22f00018 233ca4fc 230504fe 1d45eff0  "...#<..#....E..
 10f0 ffcf0545 ef006041 b7170010 91079c43  ...E..`A.......C
 1100 1b870700 b7170010 91076d9b 012798c3  ..........m..'..
 1110 a30504fe 11a81305 f00feff0 ffd08347  ...............G
 1120 b4fe8527 a305f4fe 8347b4fe 13f7f70f  ...'.....G......
 1130 a547e3f2 e7feb717 00109107 9c431b87  .G...........C..
 1140 0700b717 00109107 13674700 012798c3  .........gG..'..
 1150 85472305 f4fe2326 04fe1306 50098145  .G#...#&....P..E
 1160 0145eff0 9fd7aa87 a304f4fe 8327c4fe  .E...........'..
 1170 1b871700 2326e4fe 3e879307 803e63f5  ....#&..>....>c.
 1180 e7008347 a4fe89a2 834794fe 13f7f70f  ...G.....G......
 1190 8547e314 f7fc1306 70089305 a01a2145  .G......p.....!E
 11a0 eff0bfd3 aa87a304 f4fe8347 94fe13f7  ...........G....
 11b0 f70f9547 631df700 930704fe 91453e85  ...Gc........E>.
 11c0 eff0dfcb 833784fd 23800700 d1a08347  .....7..#......G
 11d0 94fe13f7 f70f8547 631cf70a 930704fe  .......Gc.......
 11e0 91453e85 eff09fc9 232604fe 01468145  .E>.....#&...F.E
 11f0 13057003 eff07fce aa87a304 f4fe0146  ..p............F
 1200 b7050040 13059002 eff03fcd aa87a304  ...@......?.....
 1210 f4fe8327 c4fe1b87 17002326 e4fe3e87  ...'......#&..>.
 1220 9307703e 63e7e700 834794fe 93f7f70f  ..p>c....G......
 1230 d5ff2326 04fe0146 81451305 a003eff0  ..#&...F.E......
 1240 dfc9aa87 a304f4fe 8327c4fe 1b871700  .........'......
 1250 2326e4fe 3e879307 703e63e7 e7008347  #&..>...p>c....G
 1260 94fe93f7 f70fe1fb 930704fe 91453e85  .............E>.
 1270 eff0dfc0 834704fe 812793f7 07048127  .....G...'.....'
 1280 99c38d47 11a08947 033784fd 2300f700  ...G...G.7..#...
 1290 0945eff0 bfb51306 50098145 1305b003  .E......P..E....
 12a0 eff0bfc3 aa87a304 f4fe1306 50099305  ............P...
 12b0 00204145 eff07fc2 aa87a304 f4fe8947  . AE...........G
 12c0 2305f4fe 8347a4fe 3e85a270 02744561  #....G..>..p.tEa
 12d0 82804111 22e40008 b7070010 a1070547  ..A."..........G
 12e0 98c3b707 0010b107 054798c3 01002264  .........G...."d
 12f0 41018280 011122ec 0010aa87 a307f4fe  A.....".........
 1300 0100b707 00109c43 b7070010 0347f4fe  .......C.....G..
 1310 012798c3 01006264 05618280 797106f4  .'....bd.a..yq..
 1320 22f00018 233ca4fc 232604fe 0da08337  "...#<..#&.....7
 1330 84fd1387 1700233c e4fc83c7 07003e85  ......#<......>.
 1340 eff05ffb 8327c4fe 85272326 f4fe8337  .._..'...'#&...7
 1350 84fd83c7 0700e1ff 2945eff0 bff98327  ........)E.....'
 1360 c4fe3e85 a2700274 45618280 797122f4  ..>..p.tEa..yq".
 1370 00182334 a4fe2330 b4feb287 232ef4fc  ..#4..#0....#...
 1380 99a08337 84fe03c7 07008337 04fe83c7  ...7.......7....
 1390 07006374 f700fd57 3da88337 84fe03c7  ..ct...W=..7....
 13a0 07008337 04fe83c7 070063f4 e7008547  ...7......c....G
 13b0 1da08337 84fe8507 2334f4fe 833704fe  ...7....#4...7..
 13c0 85072330 f4fe8327 c4fd1b87 f7ff232e  ..#0...'......#.
 13d0 e4fcc5fb 81473e85 22744561 82807971  .....G>."tEa..yq
 13e0 22f40018 2334a4fe 2330b4fe b287232e  "...#4..#0....#.
 13f0 f4fc0337 84fe8337 04fed98f 9d8bbdc3  ...7...7........
 1400 05a88337 04fe03c7 07008337 84fe2380  ...7.......7..#.
 1410 e7008337 84fe8507 2334f4fe 833704fe  ...7....#4...7..
 1420 85072330 f4fe8327 c4fdfd37 232ef4fc  ..#0...'...7#...
 1430 8327c4fd 8127f1f7 d9a08337 04fe9863  .'...'.....7...c
 1440 833784fe 98e38337 84fea107 2334f4fe  .7.....7....#4..
 1450 833704fe a1072330 f4fe8327 c4fde137  .7....#0...'...7
 1460 232ef4fc 8327c4fd 1b870700 9d47e3e6  #....'.......G..
 1470 e7fc8327 c4fd1b87 07008d47 63f7e702  ...'.......Gc...
 1480 833704fe 98438337 84fe98c3 833784fe  .7...C.7.....7..
 1490 91072334 f4fe8337 04fe9107 2330f4fe  ..#4...7....#0..
 14a0 8327c4fd f137232e f4fc8327 c4fd1b87  .'...7#....'....
 14b0 07008547 63f9e702 833704fe 03d70700  ...Gc....7......
 14c0 833784fe 2390e700 833784fe 89072334  .7..#....7....#4
 14d0 f4fe8337 04fe8907 2330f4fe 8327c4fd  ...7....#0...'..
 14e0 f937232e f4fc8327 c4fd8127 89cb8337  .7#....'...'...7
 14f0 04fe03c7 07008337 84fe2380 e7008337  .......7..#....7
 1500 84fe3e85 22744561 82800111 22ec0010  ..>."tEa...."...
 1510 aa872326 f4feb7c7 0008e117 94638327  ..#&.........c.'
 1520 c4fe3e87 b7470f00 9b870724 bb07f702  ..>..G.....$....
 1530 81273e87 f947bb57 f7028127 13970702  .'>..G.W...'....
 1540 0193b747 00083697 98e39307 000873a0  ...G..6.......s.
 1550 47307300 50109307 000873b0 47300100  G0s.P.....s.G0..
 1560 62640561 8280                        bd.a..          
Contents of section .rodata:
 1568 46415431 32202020 00000000 00000000  FAT12   ........
 1578 46415431 36202020 00000000 00000000  FAT16   ........
 1588 46415433 32202020 00000000 00000000  FAT32   ........
 1598 626f6f74 2e62696e 00000000 00000000  boot.bin........
Contents of section .data:
 15a8 d00dfeed 00000876 00000038 00000690  .......v...8....
 15b8 00000028 00000011 00000010 00000000  ...(............
 15c8 000001e6 00000658 00000000 00000000  .......X........
 15d8 00000000 00000000 00000001 00000000  ................
 15e8 00000003 00000008 00000000 79745f72  ............yt_r
 15f8 76363400 00000003 0000000f 00000006  v64.............
 1608 7975746f 6e670079 745f7276 36340000  yutong.yt_rv64..
 1618 00000003 00000004 00000011 00000002  ................
 1628 00000003 00000004 00000020 00000002  ........... ....
 1638 00000003 00000004 0000002c 00000002  ...........,....
 1648 00000001 63707573 00000000 00000003  ....cpus........
 1658 00000004 0000003d 00000001 00000003  .......=........
 1668 00000004 00000011 00000001 00000003  ................
 1678 00000004 00000020 00000000 00000003  ....... ........
 1688 00000004 0000004b 00989680 00000001  .......K........
 1698 63707540 30000000 00000003 00000004  cpu@0...........
 16a8 0000005e 63707500 00000003 00000004  ...^cpu.........
 16b8 0000006a 00000000 00000003 00000005  ...j............
 16c8 0000006e 6f6b6179 00000000 00000003  ...nokay........
 16d8 00000006 00000006 72697363 76000000  ........riscv...
 16e8 00000003 00000004 00000075 00000010  ...........u....
 16f8 00000003 00000004 00000088 00000040  ...............@
 1708 00000003 00000004 00000095 00000400  ................
 1718 00000003 00000004 000000a2 00000020  ............... 
 1728 00000003 00000004 000000ad 00000080  ................
 1738 00000003 00000004 000000b8 00000010  ................
 1748 00000003 00000004 000000cb 00000040  ...............@
 1758 00000003 00000004 000000d8 00000400  ................
 1768 00000003 00000004 000000e5 00000020  ............... 
 1778 00000003 00000004 000000f0 00000080  ................
 1788 00000003 00000009 000000fb 72763634  ............rv64
 1798 696d6163 00000000 00000003 0000000b  imac............
 17a8 00000105 72697363 762c7376 34380000  ....riscv,sv48..
 17b8 00000003 00000004 0000010e 00000010  ................
 17c8 00000003 00000004 0000011f 00000004  ................
 17d8 00000003 00000004 00000134 3b9aca00  ...........4;...
 17e8 00000003 00000000 00000144 00000003  ...........D....
 17f8 00000004 0000003d 00000003 00000003  .......=........
 1808 00000004 00000043 00000003 00000001  .......C........
 1818 696e7465 72727570 742d636f 6e74726f  interrupt-contro
 1828 6c6c6572 00000000 00000003 00000004  ller............
 1838 00000153 00000001 00000003 00000000  ...S............
 1848 00000164 00000003 0000000f 00000006  ...d............
 1858 72697363 762c6370 752d696e 74630000  riscv,cpu-intc..
 1868 00000003 00000004 0000003d 00000004  ...........=....
 1878 00000003 00000004 00000043 00000004  ...........C....
 1888 00000002 00000002 00000001 6370752d  ............cpu-
 1898 6d617000 00000001 636c7573 74657230  map.....cluster0
 18a8 00000000 00000001 636f7265 30000000  ........core0...
 18b8 00000003 00000004 0000014f 00000003  ...........O....
 18c8 00000002 00000002 00000002 00000002  ................
 18d8 00000001 626f6f74 726f6d40 30000000  ....bootrom@0...
 18e8 00000003 00000008 0000005e 626f6f74  ...........^boot
 18f8 726f6d00 00000003 00000010 0000006a  rom............j
 1908 00000000 00000000 00000000 00002000  .............. .
 1918 00000002 00000001 73797372 616d4031  ........sysram@1
 1928 30303030 00000000 00000003 00000007  0000............
 1938 0000005e 6d656d6f 72790000 00000003  ...^memory......
 1948 00000010 0000006a 00000000 00020000  .......j........
 1958 00000000 00020000 00000002 00000001  ................
 1968 64647240 38303030 30303030 00000000  ddr@80000000....
 1978 00000003 00000007 0000005e 6d656d6f  ...........^memo
 1988 72790000 00000003 00000010 0000006a  ry.............j
 1998 00000000 80000000 00000000 08000000  ................
 19a8 00000002 00000001 70657269 62757340  ........peribus@
 19b8 30343030 30303030 00000000 00000003  04000000........
 19c8 0000000a 00000006 72697363 762c6275  ........riscv,bu
 19d8 73000000 00000003 00000004 00000011  s...............
 19e8 00000001 00000003 00000004 00000020  ............... 
 19f8 00000001 00000003 00000000 00000179  ...............y
 1a08 00000001 63666772 65674030 34303030  ....cfgreg@04000
 1a18 30303000 00000003 0000000d 00000006  000.............
 1a28 72697363 762c6366 67726567 00000000  riscv,cfgreg....
 1a38 00000003 00000008 0000006a 04000000  ...........j....
 1a48 00001000 00000002 00000001 636c696e  ............clin
 1a58 74403038 30303030 30300000 00000003  t@08000000......
 1a68 0000000d 00000006 72697363 762c636c  ........riscv,cl
 1a78 696e7430 00000000 00000003 00000008  int0............
 1a88 0000006a 08000000 00010000 00000003  ...j............
 1a98 00000010 00000180 00000004 00000007  ................
 1aa8 00000004 00000003 00000002 00000001  ................
 1ab8 696e7465 72727570 742d636f 6e74726f  interrupt-contro
 1ac8 6c6c6572 40306330 30303030 30000000  ller@0c000000...
 1ad8 00000003 00000004 00000153 00000001  ...........S....
 1ae8 00000003 00000000 00000164 00000003  ...........d....
 1af8 0000000c 00000006 72697363 762c706c  ........riscv,pl
 1b08 69633000 00000003 00000004 00000194  ic0.............
 1b18 00000020 00000003 00000008 0000006a  ... ...........j
 1b28 0c000000 04000000 00000003 00000010  ................
 1b38 00000180 00000004 0000000b 00000004  ................
 1b48 00000009 00000003 00000004 0000003d  ...............=
 1b58 00000002 00000003 00000004 00000043  ...............C
 1b68 00000002 00000002 00000001 75617274  ............uart
 1b78 40313030 30303030 30000000 00000003  @10000000.......
 1b88 0000000d 00000006 73696669 76652c75  ........sifive,u
 1b98 61727430 00000000 00000003 00000008  art0............
 1ba8 0000006a 10000000 00001000 00000003  ...j............
 1bb8 00000004 0000019f 00000001 00000002  ................
 1bc8 00000002 00000001 63686f73 656e0000  ........chosen..
 1bd8 00000003 00000008 000001aa 00000000  ................
 1be8 80200000 00000003 00000008 000001bd  . ..............
 1bf8 00000000 84000000 00000003 0000000f  ................
 1c08 000001ce 726f6f74 3d2f6465 762f7364  ....root=/dev/sd
 1c18 61320000 00000003 00000004 000001d7  a2..............
 1c28 00000600 00000002 00000002 00000009  ................
 1c38 6d6f6465 6c00636f 6d706174 69626c65  model.compatible
 1c48 00236164 64726573 732d6365 6c6c7300  .#address-cells.
 1c58 2373697a 652d6365 6c6c7300 696e7465  #size-cells.inte
 1c68 72727570 742d7061 72656e74 006c696e  rrupt-parent.lin
 1c78 75782c70 68616e64 6c650074 696d6562  ux,phandle.timeb
 1c88 6173652d 66726571 75656e63 79006465  ase-frequency.de
 1c98 76696365 5f747970 65007265 67007374  vice_type.reg.st
 1ca8 61747573 00692d63 61636865 2d626c6f  atus.i-cache-blo
 1cb8 636b2d73 697a6500 692d6361 6368652d  ck-size.i-cache-
 1cc8 73657473 00692d63 61636865 2d73697a  sets.i-cache-siz
 1cd8 6500692d 746c622d 73657473 00692d74  e.i-tlb-sets.i-t
 1ce8 6c622d73 697a6500 642d6361 6368652d  lb-size.d-cache-
 1cf8 626c6f63 6b2d7369 7a650064 2d636163  block-size.d-cac
 1d08 68652d73 65747300 642d6361 6368652d  he-sets.d-cache-
 1d18 73697a65 00642d74 6c622d73 65747300  size.d-tlb-sets.
 1d28 642d746c 622d7369 7a650072 69736376  d-tlb-size.riscv
 1d38 2c697361 006d6d75 2d747970 65007269  ,isa.mmu-type.ri
 1d48 7363762c 706d7072 6567696f 6e730072  scv,pmpregions.r
 1d58 69736376 2c706d70 6772616e 756c6172  iscv,pmpgranular
 1d68 69747900 636c6f63 6b2d6672 65717565  ity.clock-freque
 1d78 6e637900 6c696e75 782c626f 6f742d63  ncy.linux,boot-c
 1d88 70750023 696e7465 72727570 742d6365  pu.#interrupt-ce
 1d98 6c6c7300 696e7465 72727570 742d636f  lls.interrupt-co
 1da8 6e74726f 6c6c6572 0072616e 67657300  ntroller.ranges.
 1db8 696e7465 72727570 74732d65 7874656e  interrupts-exten
 1dc8 64656400 72697363 762c6e64 65760069  ded.riscv,ndev.i
 1dd8 6e746572 72757074 73007269 7363762c  nterrupts.riscv,
 1de8 6b65726e 656c2d73 74617274 00726973  kernel-start.ris
 1df8 63762c6b 65726e65 6c2d656e 6400626f  cv,kernel-end.bo
 1e08 6f746172 6773006c 696e7578 2c706c61  otargs.linux,pla
 1e18 74666f72 6d000000                    tform...        
Contents of section .comment:
 0000 4743433a 20286735 39363462 35636437  GCC: (g5964b5cd7
 0010 32372920 31312e31 2e3000             27) 11.1.0.     
Contents of section .riscv.attributes:
 0000 41430000 00726973 63760001 39000000  AC...riscv..9...
 0010 04100572 76363469 3270315f 6d327030  ...rv64i2p1_m2p0
 0020 5f613270 315f6332 70305f7a 69637372  _a2p1_c2p0_zicsr
 0030 3270305f 7a696665 6e636569 32703000  2p0_zifencei2p0.
 0040 08010a0b                             ....            

Disassembly of section .text:

0000000000000000 <__text_start>:
       0:	4081                	li	ra,0
       2:	4101                	li	sp,0
       4:	4181                	li	gp,0
       6:	4201                	li	tp,0
       8:	4281                	li	t0,0
       a:	4301                	li	t1,0
       c:	4381                	li	t2,0
       e:	4401                	li	s0,0
      10:	4481                	li	s1,0
      12:	4501                	li	a0,0
      14:	4581                	li	a1,0
      16:	4601                	li	a2,0
      18:	4681                	li	a3,0
      1a:	4701                	li	a4,0
      1c:	4781                	li	a5,0
      1e:	4801                	li	a6,0
      20:	4881                	li	a7,0
      22:	4901                	li	s2,0
      24:	4981                	li	s3,0
      26:	4a01                	li	s4,0
      28:	4a81                	li	s5,0
      2a:	4b01                	li	s6,0
      2c:	4b81                	li	s7,0
      2e:	4c01                	li	s8,0
      30:	4c81                	li	s9,0
      32:	4d01                	li	s10,0
      34:	4d81                	li	s11,0
      36:	4e01                	li	t3,0
      38:	4e81                	li	t4,0
      3a:	4f01                	li	t5,0
      3c:	4f81                	li	t6,0

000000000000003e <fill_stack>:
      3e:	0003f517          	auipc	a0,0x3f
      42:	fc250513          	addi	a0,a0,-62 # 3f000 <_stack_end>
      46:	00040597          	auipc	a1,0x40
      4a:	fb658593          	addi	a1,a1,-74 # 3fffc <_stack_end+0xffc>
      4e:	4601                	li	a2,0
      50:	090000ef          	jal	ra,e0 <fill_block>

0000000000000054 <init_stack>:
      54:	00040117          	auipc	sp,0x40
      58:	fac10113          	addi	sp,sp,-84 # 40000 <__stack>

000000000000005c <init_system>:
      5c:	301022f3          	csrr	t0,misa
      60:	0202cc63          	bltz	t0,98 <rv64>
      64:	1a0002b7          	lui	t0,0x1a000
      68:	3c329073          	csrw	0x3c3,t0
      6c:	00000297          	auipc	t0,0x0
      70:	0842a283          	lw	t0,132(t0) # f0 <sysram_base>
      74:	00000317          	auipc	t1,0x0
      78:	08432303          	lw	t1,132(t1) # f8 <sysram_size>
      7c:	137d                	addi	t1,t1,-1
      7e:	00135313          	srli	t1,t1,0x1
      82:	0062e2b3          	or	t0,t0,t1
      86:	0022d293          	srli	t0,t0,0x2
      8a:	3df29073          	csrw	0x3df,t0
      8e:	00000417          	auipc	s0,0x0
      92:	06242403          	lw	s0,98(s0) # f0 <sysram_base>
      96:	a81d                	j	cc <goto_main>

0000000000000098 <rv64>:
      98:	00d0029b          	addiw	t0,zero,13
      9c:	12e6                	slli	t0,t0,0x39
      9e:	3c229073          	csrw	0x3c2,t0
      a2:	00000297          	auipc	t0,0x0
      a6:	04e2b283          	ld	t0,78(t0) # f0 <sysram_base>
      aa:	00000317          	auipc	t1,0x0
      ae:	04e33303          	ld	t1,78(t1) # f8 <sysram_size>
      b2:	137d                	addi	t1,t1,-1
      b4:	00135313          	srli	t1,t1,0x1
      b8:	0062e2b3          	or	t0,t0,t1
      bc:	0022d293          	srli	t0,t0,0x2
      c0:	3df29073          	csrw	0x3df,t0
      c4:	00000417          	auipc	s0,0x0
      c8:	02c43403          	ld	s0,44(s0) # f0 <sysram_base>

00000000000000cc <goto_main>:
      cc:	038000ef          	jal	ra,104 <main>
      d0:	f1402573          	csrr	a0,mhartid
      d4:	00001597          	auipc	a1,0x1
      d8:	4d458593          	addi	a1,a1,1236 # 15a8 <_DTB>
      dc:	8402                	jr	s0

00000000000000de <dead_loop>:
      de:	a001                	j	de <dead_loop>

00000000000000e0 <fill_block>:
      e0:	00a5e563          	bltu	a1,a0,ea <fb_end>
      e4:	c110                	sw	a2,0(a0)
      e6:	0511                	addi	a0,a0,4
      e8:	bfe5                	j	e0 <fill_block>

00000000000000ea <fb_end>:
      ea:	8082                	ret
      ec:	00000013          	nop

00000000000000f0 <sysram_base>:
      f0:	00020000          	.word	0x00020000
      f4:	00000000          	.word	0x00000000

00000000000000f8 <sysram_size>:
      f8:	00020000          	.word	0x00020000
	...

0000000000000104 <main>:
     104:	9a010113          	addi	sp,sp,-1632
     108:	64113c23          	sd	ra,1624(sp)
     10c:	64813823          	sd	s0,1616(sp)
     110:	66010413          	addi	s0,sp,1632
     114:	dd040793          	addi	a5,s0,-560
     118:	9cf43023          	sd	a5,-1600(s0)
     11c:	1b6010ef          	jal	ra,12d2 <__uart_init>
     120:	fef40793          	addi	a5,s0,-17
     124:	853e                	mv	a0,a5
     126:	7b7000ef          	jal	ra,10dc <__sd_init>
     12a:	dd040793          	addi	a5,s0,-560
     12e:	853e                	mv	a0,a5
     130:	2f2000ef          	jal	ra,422 <__fat_bpb_init>
     134:	9a040793          	addi	a5,s0,-1632
     138:	00001597          	auipc	a1,0x1
     13c:	46058593          	addi	a1,a1,1120 # 1598 <__text_end+0x32>
     140:	853e                	mv	a0,a5
     142:	6e0000ef          	jal	ra,822 <__fopen>
     146:	9a040793          	addi	a5,s0,-1632
     14a:	853e                	mv	a0,a5
     14c:	0e4000ef          	jal	ra,230 <__elf_loader>
     150:	4781                	li	a5,0
     152:	853e                	mv	a0,a5
     154:	65813083          	ld	ra,1624(sp)
     158:	65013403          	ld	s0,1616(sp)
     15c:	66010113          	addi	sp,sp,1632
     160:	8082                	ret

0000000000000162 <__dma_memfill>:
     162:	1101                	addi	sp,sp,-32
     164:	ec22                	sd	s0,24(sp)
     166:	1000                	addi	s0,sp,32
     168:	fea43423          	sd	a0,-24(s0)
     16c:	87ae                	mv	a5,a1
     16e:	8732                	mv	a4,a2
     170:	fef42223          	sw	a5,-28(s0)
     174:	87ba                	mv	a5,a4
     176:	fef42023          	sw	a5,-32(s0)
     17a:	100027b7          	lui	a5,0x10002
     17e:	80078793          	addi	a5,a5,-2048 # 10001800 <__stack+0xffc1800>
     182:	fe442703          	lw	a4,-28(s0)
     186:	c398                	sw	a4,0(a5)
     188:	fe843703          	ld	a4,-24(s0)
     18c:	100027b7          	lui	a5,0x10002
     190:	80478793          	addi	a5,a5,-2044 # 10001804 <__stack+0xffc1804>
     194:	2701                	sext.w	a4,a4
     196:	c398                	sw	a4,0(a5)
     198:	100027b7          	lui	a5,0x10002
     19c:	80878793          	addi	a5,a5,-2040 # 10001808 <__stack+0xffc1808>
     1a0:	fe042703          	lw	a4,-32(s0)
     1a4:	c398                	sw	a4,0(a5)
     1a6:	100027b7          	lui	a5,0x10002
     1aa:	80c78793          	addi	a5,a5,-2036 # 1000180c <__stack+0xffc180c>
     1ae:	0007a023          	sw	zero,0(a5)
     1b2:	100027b7          	lui	a5,0x10002
     1b6:	80c78793          	addi	a5,a5,-2036 # 1000180c <__stack+0xffc180c>
     1ba:	439c                	lw	a5,0(a5)
     1bc:	0007871b          	sext.w	a4,a5
     1c0:	100027b7          	lui	a5,0x10002
     1c4:	80c78793          	addi	a5,a5,-2036 # 1000180c <__stack+0xffc180c>
     1c8:	07076713          	ori	a4,a4,112
     1cc:	2701                	sext.w	a4,a4
     1ce:	c398                	sw	a4,0(a5)
     1d0:	100027b7          	lui	a5,0x10002
     1d4:	80c78793          	addi	a5,a5,-2036 # 1000180c <__stack+0xffc180c>
     1d8:	439c                	lw	a5,0(a5)
     1da:	0007871b          	sext.w	a4,a5
     1de:	100027b7          	lui	a5,0x10002
     1e2:	80c78793          	addi	a5,a5,-2036 # 1000180c <__stack+0xffc180c>
     1e6:	86ba                	mv	a3,a4
     1e8:	6705                	lui	a4,0x1
     1ea:	a0070713          	addi	a4,a4,-1536 # a00 <_binary_tmp_size+0x18a>
     1ee:	8f55                	or	a4,a4,a3
     1f0:	2701                	sext.w	a4,a4
     1f2:	c398                	sw	a4,0(a5)
     1f4:	100027b7          	lui	a5,0x10002
     1f8:	80c78793          	addi	a5,a5,-2036 # 1000180c <__stack+0xffc180c>
     1fc:	439c                	lw	a5,0(a5)
     1fe:	0007871b          	sext.w	a4,a5
     202:	100027b7          	lui	a5,0x10002
     206:	80c78793          	addi	a5,a5,-2036 # 1000180c <__stack+0xffc180c>
     20a:	00176713          	ori	a4,a4,1
     20e:	2701                	sext.w	a4,a4
     210:	c398                	sw	a4,0(a5)
     212:	0001                	nop
     214:	100027b7          	lui	a5,0x10002
     218:	80c78793          	addi	a5,a5,-2036 # 1000180c <__stack+0xffc180c>
     21c:	439c                	lw	a5,0(a5)
     21e:	2781                	sext.w	a5,a5
     220:	2781                	sext.w	a5,a5
     222:	fe07c9e3          	bltz	a5,214 <__dma_memfill+0xb2>
     226:	4785                	li	a5,1
     228:	853e                	mv	a0,a5
     22a:	6462                	ld	s0,24(sp)
     22c:	6105                	addi	sp,sp,32
     22e:	8082                	ret

0000000000000230 <__elf_loader>:
     230:	dd010113          	addi	sp,sp,-560
     234:	22113423          	sd	ra,552(sp)
     238:	22813023          	sd	s0,544(sp)
     23c:	1c00                	addi	s0,sp,560
     23e:	dca43c23          	sd	a0,-552(s0)
     242:	fe042623          	sw	zero,-20(s0)
     246:	4601                	li	a2,0
     248:	4581                	li	a1,0
     24a:	dd843503          	ld	a0,-552(s0)
     24e:	0d1000ef          	jal	ra,b1e <__fseek>
     252:	fa040793          	addi	a5,s0,-96
     256:	04000613          	li	a2,64
     25a:	85be                	mv	a1,a5
     25c:	dd843503          	ld	a0,-552(s0)
     260:	143000ef          	jal	ra,ba2 <__fread>
     264:	aa61                	j	3fc <__elf_loader+0x1cc>
     266:	fd845783          	lhu	a5,-40(s0)
     26a:	2781                	sext.w	a5,a5
     26c:	fec42703          	lw	a4,-20(s0)
     270:	9f99                	subw	a5,a5,a4
     272:	2781                	sext.w	a5,a5
     274:	873e                	mv	a4,a5
     276:	47a1                	li	a5,8
     278:	00e7e663          	bltu	a5,a4,284 <__elf_loader+0x54>
     27c:	fd845783          	lhu	a5,-40(s0)
     280:	2781                	sext.w	a5,a5
     282:	a011                	j	286 <__elf_loader+0x56>
     284:	47a1                	li	a5,8
     286:	fef42223          	sw	a5,-28(s0)
     28a:	fec42783          	lw	a5,-20(s0)
     28e:	873e                	mv	a4,a5
     290:	87ba                	mv	a5,a4
     292:	0037979b          	slliw	a5,a5,0x3
     296:	9f99                	subw	a5,a5,a4
     298:	0037979b          	slliw	a5,a5,0x3
     29c:	0007871b          	sext.w	a4,a5
     2a0:	fc043783          	ld	a5,-64(s0)
     2a4:	2781                	sext.w	a5,a5
     2a6:	9fb9                	addw	a5,a5,a4
     2a8:	2781                	sext.w	a5,a5
     2aa:	4601                	li	a2,0
     2ac:	85be                	mv	a1,a5
     2ae:	dd843503          	ld	a0,-552(s0)
     2b2:	06d000ef          	jal	ra,b1e <__fseek>
     2b6:	fe442783          	lw	a5,-28(s0)
     2ba:	873e                	mv	a4,a5
     2bc:	87ba                	mv	a5,a4
     2be:	0037979b          	slliw	a5,a5,0x3
     2c2:	9f99                	subw	a5,a5,a4
     2c4:	0037979b          	slliw	a5,a5,0x3
     2c8:	0007871b          	sext.w	a4,a5
     2cc:	de040793          	addi	a5,s0,-544
     2d0:	863a                	mv	a2,a4
     2d2:	85be                	mv	a1,a5
     2d4:	dd843503          	ld	a0,-552(s0)
     2d8:	0cb000ef          	jal	ra,ba2 <__fread>
     2dc:	fe042423          	sw	zero,-24(s0)
     2e0:	a8ed                	j	3da <__elf_loader+0x1aa>
     2e2:	fe846703          	lwu	a4,-24(s0)
     2e6:	87ba                	mv	a5,a4
     2e8:	078e                	slli	a5,a5,0x3
     2ea:	8f99                	sub	a5,a5,a4
     2ec:	078e                	slli	a5,a5,0x3
     2ee:	17c1                	addi	a5,a5,-16
     2f0:	97a2                	add	a5,a5,s0
     2f2:	df87b783          	ld	a5,-520(a5)
     2f6:	2781                	sext.w	a5,a5
     2f8:	4601                	li	a2,0
     2fa:	85be                	mv	a1,a5
     2fc:	dd843503          	ld	a0,-552(s0)
     300:	01f000ef          	jal	ra,b1e <__fseek>
     304:	fe846703          	lwu	a4,-24(s0)
     308:	87ba                	mv	a5,a4
     30a:	078e                	slli	a5,a5,0x3
     30c:	8f99                	sub	a5,a5,a4
     30e:	078e                	slli	a5,a5,0x3
     310:	17c1                	addi	a5,a5,-16
     312:	97a2                	add	a5,a5,s0
     314:	e087b783          	ld	a5,-504(a5)
     318:	86be                	mv	a3,a5
     31a:	fe846703          	lwu	a4,-24(s0)
     31e:	87ba                	mv	a5,a4
     320:	078e                	slli	a5,a5,0x3
     322:	8f99                	sub	a5,a5,a4
     324:	078e                	slli	a5,a5,0x3
     326:	17c1                	addi	a5,a5,-16
     328:	97a2                	add	a5,a5,s0
     32a:	e107b783          	ld	a5,-496(a5)
     32e:	2781                	sext.w	a5,a5
     330:	863e                	mv	a2,a5
     332:	85b6                	mv	a1,a3
     334:	dd843503          	ld	a0,-552(s0)
     338:	06b000ef          	jal	ra,ba2 <__fread>
     33c:	fe846703          	lwu	a4,-24(s0)
     340:	87ba                	mv	a5,a4
     342:	078e                	slli	a5,a5,0x3
     344:	8f99                	sub	a5,a5,a4
     346:	078e                	slli	a5,a5,0x3
     348:	17c1                	addi	a5,a5,-16
     34a:	97a2                	add	a5,a5,s0
     34c:	e107b683          	ld	a3,-496(a5)
     350:	fe846703          	lwu	a4,-24(s0)
     354:	87ba                	mv	a5,a4
     356:	078e                	slli	a5,a5,0x3
     358:	8f99                	sub	a5,a5,a4
     35a:	078e                	slli	a5,a5,0x3
     35c:	17c1                	addi	a5,a5,-16
     35e:	97a2                	add	a5,a5,s0
     360:	e187b783          	ld	a5,-488(a5)
     364:	06f6f663          	bgeu	a3,a5,3d0 <__elf_loader+0x1a0>
     368:	fe846703          	lwu	a4,-24(s0)
     36c:	87ba                	mv	a5,a4
     36e:	078e                	slli	a5,a5,0x3
     370:	8f99                	sub	a5,a5,a4
     372:	078e                	slli	a5,a5,0x3
     374:	17c1                	addi	a5,a5,-16
     376:	97a2                	add	a5,a5,s0
     378:	e087b683          	ld	a3,-504(a5)
     37c:	fe846703          	lwu	a4,-24(s0)
     380:	87ba                	mv	a5,a4
     382:	078e                	slli	a5,a5,0x3
     384:	8f99                	sub	a5,a5,a4
     386:	078e                	slli	a5,a5,0x3
     388:	17c1                	addi	a5,a5,-16
     38a:	97a2                	add	a5,a5,s0
     38c:	e107b783          	ld	a5,-496(a5)
     390:	97b6                	add	a5,a5,a3
     392:	853e                	mv	a0,a5
     394:	fe846703          	lwu	a4,-24(s0)
     398:	87ba                	mv	a5,a4
     39a:	078e                	slli	a5,a5,0x3
     39c:	8f99                	sub	a5,a5,a4
     39e:	078e                	slli	a5,a5,0x3
     3a0:	17c1                	addi	a5,a5,-16
     3a2:	97a2                	add	a5,a5,s0
     3a4:	e187b783          	ld	a5,-488(a5)
     3a8:	0007869b          	sext.w	a3,a5
     3ac:	fe846703          	lwu	a4,-24(s0)
     3b0:	87ba                	mv	a5,a4
     3b2:	078e                	slli	a5,a5,0x3
     3b4:	8f99                	sub	a5,a5,a4
     3b6:	078e                	slli	a5,a5,0x3
     3b8:	17c1                	addi	a5,a5,-16
     3ba:	97a2                	add	a5,a5,s0
     3bc:	e107b783          	ld	a5,-496(a5)
     3c0:	2781                	sext.w	a5,a5
     3c2:	40f687bb          	subw	a5,a3,a5
     3c6:	2781                	sext.w	a5,a5
     3c8:	863e                	mv	a2,a5
     3ca:	4581                	li	a1,0
     3cc:	d97ff0ef          	jal	ra,162 <__dma_memfill>
     3d0:	fe842783          	lw	a5,-24(s0)
     3d4:	2785                	addiw	a5,a5,1
     3d6:	fef42423          	sw	a5,-24(s0)
     3da:	fe842783          	lw	a5,-24(s0)
     3de:	873e                	mv	a4,a5
     3e0:	fe442783          	lw	a5,-28(s0)
     3e4:	2701                	sext.w	a4,a4
     3e6:	2781                	sext.w	a5,a5
     3e8:	eef76de3          	bltu	a4,a5,2e2 <__elf_loader+0xb2>
     3ec:	fec42783          	lw	a5,-20(s0)
     3f0:	873e                	mv	a4,a5
     3f2:	fe442783          	lw	a5,-28(s0)
     3f6:	9fb9                	addw	a5,a5,a4
     3f8:	fef42623          	sw	a5,-20(s0)
     3fc:	fd845783          	lhu	a5,-40(s0)
     400:	0007871b          	sext.w	a4,a5
     404:	fec42783          	lw	a5,-20(s0)
     408:	2781                	sext.w	a5,a5
     40a:	e4e7eee3          	bltu	a5,a4,266 <__elf_loader+0x36>
     40e:	fb843783          	ld	a5,-72(s0)
     412:	853e                	mv	a0,a5
     414:	22813083          	ld	ra,552(sp)
     418:	22013403          	ld	s0,544(sp)
     41c:	23010113          	addi	sp,sp,560
     420:	8082                	ret

0000000000000422 <__fat_bpb_init>:
     422:	dd010113          	addi	sp,sp,-560
     426:	22113423          	sd	ra,552(sp)
     42a:	22813023          	sd	s0,544(sp)
     42e:	1c00                	addi	s0,sp,560
     430:	dca43c23          	sd	a0,-552(s0)
     434:	fe041723          	sh	zero,-18(s0)
     438:	fee45783          	lhu	a5,-18(s0)
     43c:	2781                	sext.w	a5,a5
     43e:	de840713          	addi	a4,s0,-536
     442:	85ba                	mv	a1,a4
     444:	853e                	mv	a0,a5
     446:	43b000ef          	jal	ra,1080 <__sd_readblk>
     44a:	87aa                	mv	a5,a0
     44c:	e399                	bnez	a5,452 <__fat_bpb_init+0x30>
     44e:	4781                	li	a5,0
     450:	a6c9                	j	812 <__fat_bpb_init+0x3f0>
     452:	de840793          	addi	a5,s0,-536
     456:	1fe78793          	addi	a5,a5,510
     45a:	0007d783          	lhu	a5,0(a5)
     45e:	0007871b          	sext.w	a4,a5
     462:	67ad                	lui	a5,0xb
     464:	a5578793          	addi	a5,a5,-1451 # aa55 <__data_end+0x8c35>
     468:	00f70463          	beq	a4,a5,470 <__fat_bpb_init+0x4e>
     46c:	4781                	li	a5,0
     46e:	a655                	j	812 <__fat_bpb_init+0x3f0>
     470:	de840793          	addi	a5,s0,-536
     474:	03678793          	addi	a5,a5,54
     478:	4621                	li	a2,8
     47a:	00001597          	auipc	a1,0x1
     47e:	0ee58593          	addi	a1,a1,238 # 1568 <__text_end+0x2>
     482:	853e                	mv	a0,a5
     484:	6e9000ef          	jal	ra,136c <__strcmp>
     488:	87aa                	mv	a5,a0
     48a:	2781                	sext.w	a5,a5
     48c:	e799                	bnez	a5,49a <__fat_bpb_init+0x78>
     48e:	dd843783          	ld	a5,-552(s0)
     492:	470d                	li	a4,3
     494:	00e78a23          	sb	a4,20(a5)
     498:	a205                	j	5b8 <__fat_bpb_init+0x196>
     49a:	de840793          	addi	a5,s0,-536
     49e:	03678793          	addi	a5,a5,54
     4a2:	4621                	li	a2,8
     4a4:	00001597          	auipc	a1,0x1
     4a8:	0d458593          	addi	a1,a1,212 # 1578 <__text_end+0x12>
     4ac:	853e                	mv	a0,a5
     4ae:	6bf000ef          	jal	ra,136c <__strcmp>
     4b2:	87aa                	mv	a5,a0
     4b4:	2781                	sext.w	a5,a5
     4b6:	e799                	bnez	a5,4c4 <__fat_bpb_init+0xa2>
     4b8:	dd843783          	ld	a5,-552(s0)
     4bc:	4711                	li	a4,4
     4be:	00e78a23          	sb	a4,20(a5)
     4c2:	a8dd                	j	5b8 <__fat_bpb_init+0x196>
     4c4:	de840793          	addi	a5,s0,-536
     4c8:	05278793          	addi	a5,a5,82
     4cc:	4621                	li	a2,8
     4ce:	00001597          	auipc	a1,0x1
     4d2:	0ba58593          	addi	a1,a1,186 # 1588 <__text_end+0x22>
     4d6:	853e                	mv	a0,a5
     4d8:	695000ef          	jal	ra,136c <__strcmp>
     4dc:	87aa                	mv	a5,a0
     4de:	2781                	sext.w	a5,a5
     4e0:	e799                	bnez	a5,4ee <__fat_bpb_init+0xcc>
     4e2:	dd843783          	ld	a5,-552(s0)
     4e6:	4715                	li	a4,5
     4e8:	00e78a23          	sb	a4,20(a5)
     4ec:	a0f1                	j	5b8 <__fat_bpb_init+0x196>
     4ee:	de840793          	addi	a5,s0,-536
     4f2:	1c678793          	addi	a5,a5,454
     4f6:	0007d783          	lhu	a5,0(a5)
     4fa:	fef41723          	sh	a5,-18(s0)
     4fe:	fee45783          	lhu	a5,-18(s0)
     502:	2781                	sext.w	a5,a5
     504:	de840713          	addi	a4,s0,-536
     508:	85ba                	mv	a1,a4
     50a:	853e                	mv	a0,a5
     50c:	375000ef          	jal	ra,1080 <__sd_readblk>
     510:	87aa                	mv	a5,a0
     512:	e399                	bnez	a5,518 <__fat_bpb_init+0xf6>
     514:	4781                	li	a5,0
     516:	acf5                	j	812 <__fat_bpb_init+0x3f0>
     518:	de840793          	addi	a5,s0,-536
     51c:	1fe78793          	addi	a5,a5,510
     520:	0007d783          	lhu	a5,0(a5)
     524:	0007871b          	sext.w	a4,a5
     528:	67ad                	lui	a5,0xb
     52a:	a5578793          	addi	a5,a5,-1451 # aa55 <__data_end+0x8c35>
     52e:	00f70463          	beq	a4,a5,536 <__fat_bpb_init+0x114>
     532:	4781                	li	a5,0
     534:	acf9                	j	812 <__fat_bpb_init+0x3f0>
     536:	de840793          	addi	a5,s0,-536
     53a:	03678793          	addi	a5,a5,54
     53e:	4621                	li	a2,8
     540:	00001597          	auipc	a1,0x1
     544:	02858593          	addi	a1,a1,40 # 1568 <__text_end+0x2>
     548:	853e                	mv	a0,a5
     54a:	623000ef          	jal	ra,136c <__strcmp>
     54e:	87aa                	mv	a5,a0
     550:	2781                	sext.w	a5,a5
     552:	e799                	bnez	a5,560 <__fat_bpb_init+0x13e>
     554:	dd843783          	ld	a5,-552(s0)
     558:	470d                	li	a4,3
     55a:	00e78a23          	sb	a4,20(a5)
     55e:	a8a9                	j	5b8 <__fat_bpb_init+0x196>
     560:	de840793          	addi	a5,s0,-536
     564:	03678793          	addi	a5,a5,54
     568:	4621                	li	a2,8
     56a:	00001597          	auipc	a1,0x1
     56e:	00e58593          	addi	a1,a1,14 # 1578 <__text_end+0x12>
     572:	853e                	mv	a0,a5
     574:	5f9000ef          	jal	ra,136c <__strcmp>
     578:	87aa                	mv	a5,a0
     57a:	2781                	sext.w	a5,a5
     57c:	e799                	bnez	a5,58a <__fat_bpb_init+0x168>
     57e:	dd843783          	ld	a5,-552(s0)
     582:	4711                	li	a4,4
     584:	00e78a23          	sb	a4,20(a5)
     588:	a805                	j	5b8 <__fat_bpb_init+0x196>
     58a:	de840793          	addi	a5,s0,-536
     58e:	05278793          	addi	a5,a5,82
     592:	4621                	li	a2,8
     594:	00001597          	auipc	a1,0x1
     598:	ff458593          	addi	a1,a1,-12 # 1588 <__text_end+0x22>
     59c:	853e                	mv	a0,a5
     59e:	5cf000ef          	jal	ra,136c <__strcmp>
     5a2:	87aa                	mv	a5,a0
     5a4:	2781                	sext.w	a5,a5
     5a6:	e799                	bnez	a5,5b4 <__fat_bpb_init+0x192>
     5a8:	dd843783          	ld	a5,-552(s0)
     5ac:	4715                	li	a4,5
     5ae:	00e78a23          	sb	a4,20(a5)
     5b2:	a019                	j	5b8 <__fat_bpb_init+0x196>
     5b4:	4781                	li	a5,0
     5b6:	acb1                	j	812 <__fat_bpb_init+0x3f0>
     5b8:	df344783          	lbu	a5,-525(s0)
     5bc:	0107971b          	slliw	a4,a5,0x10
     5c0:	4107571b          	sraiw	a4,a4,0x10
     5c4:	de840793          	addi	a5,s0,-536
     5c8:	07ad                	addi	a5,a5,11
     5ca:	0785                	addi	a5,a5,1
     5cc:	0007c783          	lbu	a5,0(a5)
     5d0:	2781                	sext.w	a5,a5
     5d2:	0087979b          	slliw	a5,a5,0x8
     5d6:	2781                	sext.w	a5,a5
     5d8:	0107979b          	slliw	a5,a5,0x10
     5dc:	4107d79b          	sraiw	a5,a5,0x10
     5e0:	8fd9                	or	a5,a5,a4
     5e2:	0107979b          	slliw	a5,a5,0x10
     5e6:	4107d79b          	sraiw	a5,a5,0x10
     5ea:	03079713          	slli	a4,a5,0x30
     5ee:	9341                	srli	a4,a4,0x30
     5f0:	dd843783          	ld	a5,-552(s0)
     5f4:	00e79023          	sh	a4,0(a5)
     5f8:	df544703          	lbu	a4,-523(s0)
     5fc:	dd843783          	ld	a5,-552(s0)
     600:	00e78923          	sb	a4,18(a5)
     604:	dd843783          	ld	a5,-552(s0)
     608:	0147c783          	lbu	a5,20(a5)
     60c:	873e                	mv	a4,a5
     60e:	4795                	li	a5,5
     610:	00f71963          	bne	a4,a5,622 <__fat_bpb_init+0x200>
     614:	de840793          	addi	a5,s0,-536
     618:	02478793          	addi	a5,a5,36
     61c:	0007d783          	lhu	a5,0(a5)
     620:	a031                	j	62c <__fat_bpb_init+0x20a>
     622:	de840793          	addi	a5,s0,-536
     626:	07d9                	addi	a5,a5,22
     628:	0007d783          	lhu	a5,0(a5)
     62c:	dd843703          	ld	a4,-552(s0)
     630:	00f71123          	sh	a5,2(a4)
     634:	df844703          	lbu	a4,-520(s0)
     638:	dd843783          	ld	a5,-552(s0)
     63c:	00e789a3          	sb	a4,19(a5)
     640:	df644783          	lbu	a5,-522(s0)
     644:	0107971b          	slliw	a4,a5,0x10
     648:	4107571b          	sraiw	a4,a4,0x10
     64c:	de840793          	addi	a5,s0,-536
     650:	07b9                	addi	a5,a5,14
     652:	0785                	addi	a5,a5,1
     654:	0007c783          	lbu	a5,0(a5)
     658:	2781                	sext.w	a5,a5
     65a:	0087979b          	slliw	a5,a5,0x8
     65e:	2781                	sext.w	a5,a5
     660:	0107979b          	slliw	a5,a5,0x10
     664:	4107d79b          	sraiw	a5,a5,0x10
     668:	8fd9                	or	a5,a5,a4
     66a:	0107979b          	slliw	a5,a5,0x10
     66e:	4107d79b          	sraiw	a5,a5,0x10
     672:	17c2                	slli	a5,a5,0x30
     674:	93c1                	srli	a5,a5,0x30
     676:	fee45703          	lhu	a4,-18(s0)
     67a:	9fb9                	addw	a5,a5,a4
     67c:	03079713          	slli	a4,a5,0x30
     680:	9341                	srli	a4,a4,0x30
     682:	dd843783          	ld	a5,-552(s0)
     686:	00e79223          	sh	a4,4(a5)
     68a:	dd843783          	ld	a5,-552(s0)
     68e:	0137c783          	lbu	a5,19(a5)
     692:	03079713          	slli	a4,a5,0x30
     696:	9341                	srli	a4,a4,0x30
     698:	dd843783          	ld	a5,-552(s0)
     69c:	0027d783          	lhu	a5,2(a5)
     6a0:	02f707bb          	mulw	a5,a4,a5
     6a4:	03079713          	slli	a4,a5,0x30
     6a8:	9341                	srli	a4,a4,0x30
     6aa:	dd843783          	ld	a5,-552(s0)
     6ae:	0047d783          	lhu	a5,4(a5)
     6b2:	9fb9                	addw	a5,a5,a4
     6b4:	03079713          	slli	a4,a5,0x30
     6b8:	9341                	srli	a4,a4,0x30
     6ba:	dd843783          	ld	a5,-552(s0)
     6be:	00e79323          	sh	a4,6(a5)
     6c2:	df944783          	lbu	a5,-519(s0)
     6c6:	0107971b          	slliw	a4,a5,0x10
     6ca:	4107571b          	sraiw	a4,a4,0x10
     6ce:	de840793          	addi	a5,s0,-536
     6d2:	07c5                	addi	a5,a5,17
     6d4:	0785                	addi	a5,a5,1
     6d6:	0007c783          	lbu	a5,0(a5)
     6da:	2781                	sext.w	a5,a5
     6dc:	0087979b          	slliw	a5,a5,0x8
     6e0:	2781                	sext.w	a5,a5
     6e2:	0107979b          	slliw	a5,a5,0x10
     6e6:	4107d79b          	sraiw	a5,a5,0x10
     6ea:	8fd9                	or	a5,a5,a4
     6ec:	0107979b          	slliw	a5,a5,0x10
     6f0:	4107d79b          	sraiw	a5,a5,0x10
     6f4:	03079713          	slli	a4,a5,0x30
     6f8:	9341                	srli	a4,a4,0x30
     6fa:	dd843783          	ld	a5,-552(s0)
     6fe:	00e79623          	sh	a4,12(a5)
     702:	dd843783          	ld	a5,-552(s0)
     706:	0147c783          	lbu	a5,20(a5)
     70a:	873e                	mv	a4,a5
     70c:	4795                	li	a5,5
     70e:	02f71563          	bne	a4,a5,738 <__fat_bpb_init+0x316>
     712:	de840793          	addi	a5,s0,-536
     716:	02c78793          	addi	a5,a5,44
     71a:	0007d703          	lhu	a4,0(a5)
     71e:	dd843783          	ld	a5,-552(s0)
     722:	00e79723          	sh	a4,14(a5)
     726:	dd843783          	ld	a5,-552(s0)
     72a:	0067d703          	lhu	a4,6(a5)
     72e:	dd843783          	ld	a5,-552(s0)
     732:	00e79823          	sh	a4,16(a5)
     736:	a835                	j	772 <__fat_bpb_init+0x350>
     738:	dd843783          	ld	a5,-552(s0)
     73c:	0067d703          	lhu	a4,6(a5)
     740:	dd843783          	ld	a5,-552(s0)
     744:	00e79723          	sh	a4,14(a5)
     748:	dd843783          	ld	a5,-552(s0)
     74c:	00c7d783          	lhu	a5,12(a5)
     750:	0047d79b          	srliw	a5,a5,0x4
     754:	03079713          	slli	a4,a5,0x30
     758:	9341                	srli	a4,a4,0x30
     75a:	dd843783          	ld	a5,-552(s0)
     75e:	0067d783          	lhu	a5,6(a5)
     762:	9fb9                	addw	a5,a5,a4
     764:	03079713          	slli	a4,a5,0x30
     768:	9341                	srli	a4,a4,0x30
     76a:	dd843783          	ld	a5,-552(s0)
     76e:	00e79823          	sh	a4,16(a5)
     772:	de840793          	addi	a5,s0,-536
     776:	02078793          	addi	a5,a5,32
     77a:	439c                	lw	a5,0(a5)
     77c:	c799                	beqz	a5,78a <__fat_bpb_init+0x368>
     77e:	de840793          	addi	a5,s0,-536
     782:	02078793          	addi	a5,a5,32
     786:	439c                	lw	a5,0(a5)
     788:	a015                	j	7ac <__fat_bpb_init+0x38a>
     78a:	dfb44783          	lbu	a5,-517(s0)
     78e:	0007871b          	sext.w	a4,a5
     792:	de840793          	addi	a5,s0,-536
     796:	07cd                	addi	a5,a5,19
     798:	0785                	addi	a5,a5,1
     79a:	0007c783          	lbu	a5,0(a5)
     79e:	2781                	sext.w	a5,a5
     7a0:	0087979b          	slliw	a5,a5,0x8
     7a4:	2781                	sext.w	a5,a5
     7a6:	8fd9                	or	a5,a5,a4
     7a8:	2781                	sext.w	a5,a5
     7aa:	2781                	sext.w	a5,a5
     7ac:	fef42423          	sw	a5,-24(s0)
     7b0:	dd843783          	ld	a5,-552(s0)
     7b4:	0107d783          	lhu	a5,16(a5)
     7b8:	2781                	sext.w	a5,a5
     7ba:	fe842703          	lw	a4,-24(s0)
     7be:	40f707bb          	subw	a5,a4,a5
     7c2:	0007871b          	sext.w	a4,a5
     7c6:	fee45783          	lhu	a5,-18(s0)
     7ca:	2781                	sext.w	a5,a5
     7cc:	9fb9                	addw	a5,a5,a4
     7ce:	0007871b          	sext.w	a4,a5
     7d2:	dd843783          	ld	a5,-552(s0)
     7d6:	0127c783          	lbu	a5,18(a5)
     7da:	2781                	sext.w	a5,a5
     7dc:	02f757bb          	divuw	a5,a4,a5
     7e0:	2781                	sext.w	a5,a5
     7e2:	2789                	addiw	a5,a5,2
     7e4:	0007871b          	sext.w	a4,a5
     7e8:	dd843783          	ld	a5,-552(s0)
     7ec:	c798                	sw	a4,8(a5)
     7ee:	dd843783          	ld	a5,-552(s0)
     7f2:	0047d783          	lhu	a5,4(a5)
     7f6:	0007871b          	sext.w	a4,a5
     7fa:	dd843783          	ld	a5,-552(s0)
     7fe:	07e1                	addi	a5,a5,24
     800:	85be                	mv	a1,a5
     802:	853a                	mv	a0,a4
     804:	07d000ef          	jal	ra,1080 <__sd_readblk>
     808:	87aa                	mv	a5,a0
     80a:	e399                	bnez	a5,810 <__fat_bpb_init+0x3ee>
     80c:	4781                	li	a5,0
     80e:	a011                	j	812 <__fat_bpb_init+0x3f0>
     810:	4785                	li	a5,1
     812:	853e                	mv	a0,a5
     814:	22813083          	ld	ra,552(sp)
     818:	22013403          	ld	s0,544(sp)
     81c:	23010113          	addi	sp,sp,560
     820:	8082                	ret

0000000000000822 <__fopen>:
     822:	dc010113          	addi	sp,sp,-576
     826:	22113c23          	sd	ra,568(sp)
     82a:	22813823          	sd	s0,560(sp)
     82e:	0480                	addi	s0,sp,576
     830:	dca43423          	sd	a0,-568(s0)
     834:	dcb43023          	sd	a1,-576(s0)
     838:	fe041723          	sh	zero,-18(s0)
     83c:	a805                	j	86c <__fopen+0x4a>
     83e:	dc043783          	ld	a5,-576(s0)
     842:	00178713          	addi	a4,a5,1
     846:	dce43023          	sd	a4,-576(s0)
     84a:	0007c703          	lbu	a4,0(a5)
     84e:	fee45783          	lhu	a5,-18(s0)
     852:	0017869b          	addiw	a3,a5,1
     856:	fed41723          	sh	a3,-18(s0)
     85a:	2781                	sext.w	a5,a5
     85c:	fdf77713          	andi	a4,a4,-33
     860:	0ff77713          	zext.b	a4,a4
     864:	17c1                	addi	a5,a5,-16
     866:	97a2                	add	a5,a5,s0
     868:	fee78423          	sb	a4,-24(a5)
     86c:	fee45783          	lhu	a5,-18(s0)
     870:	0007871b          	sext.w	a4,a5
     874:	479d                	li	a5,7
     876:	02e7ee63          	bltu	a5,a4,8b2 <_binary_tmp_size+0x3c>
     87a:	dc043783          	ld	a5,-576(s0)
     87e:	0007c783          	lbu	a5,0(a5)
     882:	cb85                	beqz	a5,8b2 <_binary_tmp_size+0x3c>
     884:	dc043783          	ld	a5,-576(s0)
     888:	0007c783          	lbu	a5,0(a5)
     88c:	873e                	mv	a4,a5
     88e:	02e00793          	li	a5,46
     892:	faf716e3          	bne	a4,a5,83e <__fopen+0x1c>
     896:	a831                	j	8b2 <_binary_tmp_size+0x3c>
     898:	fee45783          	lhu	a5,-18(s0)
     89c:	0017871b          	addiw	a4,a5,1
     8a0:	fee41723          	sh	a4,-18(s0)
     8a4:	2781                	sext.w	a5,a5
     8a6:	17c1                	addi	a5,a5,-16
     8a8:	97a2                	add	a5,a5,s0
     8aa:	02000713          	li	a4,32
     8ae:	fee78423          	sb	a4,-24(a5)
     8b2:	fee45783          	lhu	a5,-18(s0)
     8b6:	0007871b          	sext.w	a4,a5
     8ba:	479d                	li	a5,7
     8bc:	fce7fee3          	bgeu	a5,a4,898 <_binary_tmp_size+0x22>
     8c0:	dc043783          	ld	a5,-576(s0)
     8c4:	0785                	addi	a5,a5,1
     8c6:	dcf43023          	sd	a5,-576(s0)
     8ca:	fe041723          	sh	zero,-18(s0)
     8ce:	a805                	j	8fe <_binary_tmp_size+0x88>
     8d0:	dc043783          	ld	a5,-576(s0)
     8d4:	00178713          	addi	a4,a5,1
     8d8:	dce43023          	sd	a4,-576(s0)
     8dc:	0007c703          	lbu	a4,0(a5)
     8e0:	fee45783          	lhu	a5,-18(s0)
     8e4:	0017869b          	addiw	a3,a5,1
     8e8:	fed41723          	sh	a3,-18(s0)
     8ec:	2781                	sext.w	a5,a5
     8ee:	fdf77713          	andi	a4,a4,-33
     8f2:	0ff77713          	zext.b	a4,a4
     8f6:	17c1                	addi	a5,a5,-16
     8f8:	97a2                	add	a5,a5,s0
     8fa:	fee78023          	sb	a4,-32(a5)
     8fe:	fee45783          	lhu	a5,-18(s0)
     902:	0007871b          	sext.w	a4,a5
     906:	4789                	li	a5,2
     908:	02e7e563          	bltu	a5,a4,932 <_binary_tmp_size+0xbc>
     90c:	dc043783          	ld	a5,-576(s0)
     910:	0007c783          	lbu	a5,0(a5)
     914:	ffd5                	bnez	a5,8d0 <_binary_tmp_size+0x5a>
     916:	a831                	j	932 <_binary_tmp_size+0xbc>
     918:	fee45783          	lhu	a5,-18(s0)
     91c:	0017871b          	addiw	a4,a5,1
     920:	fee41723          	sh	a4,-18(s0)
     924:	2781                	sext.w	a5,a5
     926:	17c1                	addi	a5,a5,-16
     928:	97a2                	add	a5,a5,s0
     92a:	02000713          	li	a4,32
     92e:	fee78023          	sb	a4,-32(a5)
     932:	fee45783          	lhu	a5,-18(s0)
     936:	0007871b          	sext.w	a4,a5
     93a:	4789                	li	a5,2
     93c:	fce7fee3          	bgeu	a5,a4,918 <_binary_tmp_size+0xa2>
     940:	dc843783          	ld	a5,-568(s0)
     944:	739c                	ld	a5,32(a5)
     946:	0107d783          	lhu	a5,16(a5)
     94a:	2781                	sext.w	a5,a5
     94c:	dd040713          	addi	a4,s0,-560
     950:	85ba                	mv	a1,a4
     952:	853e                	mv	a0,a5
     954:	72c000ef          	jal	ra,1080 <__sd_readblk>
     958:	87aa                	mv	a5,a0
     95a:	e399                	bnez	a5,960 <_binary_tmp_size+0xea>
     95c:	4781                	li	a5,0
     95e:	aa45                	j	b0e <_binary_tmp_size+0x298>
     960:	fe041723          	sh	zero,-18(s0)
     964:	aa61                	j	afc <_binary_tmp_size+0x286>
     966:	fee45783          	lhu	a5,-18(s0)
     96a:	2781                	sext.w	a5,a5
     96c:	17c1                	addi	a5,a5,-16
     96e:	97a2                	add	a5,a5,s0
     970:	de07c783          	lbu	a5,-544(a5)
     974:	873e                	mv	a4,a5
     976:	0e500793          	li	a5,229
     97a:	04f70463          	beq	a4,a5,9c2 <_binary_tmp_size+0x14c>
     97e:	fee45783          	lhu	a5,-18(s0)
     982:	2781                	sext.w	a5,a5
     984:	dd040713          	addi	a4,s0,-560
     988:	97ba                	add	a5,a5,a4
     98a:	fd840713          	addi	a4,s0,-40
     98e:	4621                	li	a2,8
     990:	85ba                	mv	a1,a4
     992:	853e                	mv	a0,a5
     994:	1d9000ef          	jal	ra,136c <__strcmp>
     998:	87aa                	mv	a5,a0
     99a:	2781                	sext.w	a5,a5
     99c:	e39d                	bnez	a5,9c2 <_binary_tmp_size+0x14c>
     99e:	fee45783          	lhu	a5,-18(s0)
     9a2:	2781                	sext.w	a5,a5
     9a4:	27a1                	addiw	a5,a5,8
     9a6:	2781                	sext.w	a5,a5
     9a8:	dd040713          	addi	a4,s0,-560
     9ac:	97ba                	add	a5,a5,a4
     9ae:	fd040713          	addi	a4,s0,-48
     9b2:	460d                	li	a2,3
     9b4:	85ba                	mv	a1,a4
     9b6:	853e                	mv	a0,a5
     9b8:	1b5000ef          	jal	ra,136c <__strcmp>
     9bc:	87aa                	mv	a5,a0
     9be:	2781                	sext.w	a5,a5
     9c0:	cb81                	beqz	a5,9d0 <_binary_tmp_size+0x15a>
     9c2:	fee45783          	lhu	a5,-18(s0)
     9c6:	0207879b          	addiw	a5,a5,32
     9ca:	fef41723          	sh	a5,-18(s0)
     9ce:	a23d                	j	afc <_binary_tmp_size+0x286>
     9d0:	fee45783          	lhu	a5,-18(s0)
     9d4:	2781                	sext.w	a5,a5
     9d6:	dd040713          	addi	a4,s0,-560
     9da:	97ba                	add	a5,a5,a4
     9dc:	02000613          	li	a2,32
     9e0:	85be                	mv	a1,a5
     9e2:	dc843503          	ld	a0,-568(s0)
     9e6:	1f9000ef          	jal	ra,13de <__memcpy>
     9ea:	dc843783          	ld	a5,-568(s0)
     9ee:	0207a423          	sw	zero,40(a5)
     9f2:	dc843783          	ld	a5,-568(s0)
     9f6:	577d                	li	a4,-1
     9f8:	d7d8                	sw	a4,44(a5)
     9fa:	dc843783          	ld	a5,-568(s0)
     9fe:	01a7d783          	lhu	a5,26(a5)
     a02:	0007871b          	sext.w	a4,a5
     a06:	dc843783          	ld	a5,-568(s0)
     a0a:	0147d783          	lhu	a5,20(a5)
     a0e:	2781                	sext.w	a5,a5
     a10:	0107979b          	slliw	a5,a5,0x10
     a14:	2781                	sext.w	a5,a5
     a16:	2781                	sext.w	a5,a5
     a18:	8fd9                	or	a5,a5,a4
     a1a:	0007871b          	sext.w	a4,a5
     a1e:	dc843783          	ld	a5,-568(s0)
     a22:	739c                	ld	a5,32(a5)
     a24:	00e7d783          	lhu	a5,14(a5)
     a28:	2781                	sext.w	a5,a5
     a2a:	40f707bb          	subw	a5,a4,a5
     a2e:	0007871b          	sext.w	a4,a5
     a32:	dc843783          	ld	a5,-568(s0)
     a36:	db98                	sw	a4,48(a5)
     a38:	fe0403a3          	sb	zero,-25(s0)
     a3c:	4785                	li	a5,1
     a3e:	fef41623          	sh	a5,-20(s0)
     a42:	a05d                	j	ae8 <_binary_tmp_size+0x272>
     a44:	fe744783          	lbu	a5,-25(s0)
     a48:	0ff7f793          	zext.b	a5,a5
     a4c:	efb1                	bnez	a5,aa8 <_binary_tmp_size+0x232>
     a4e:	dc843783          	ld	a5,-568(s0)
     a52:	7398                	ld	a4,32(a5)
     a54:	fec45783          	lhu	a5,-20(s0)
     a58:	2781                	sext.w	a5,a5
     a5a:	37fd                	addiw	a5,a5,-1
     a5c:	2781                	sext.w	a5,a5
     a5e:	dc843683          	ld	a3,-568(s0)
     a62:	07b1                	addi	a5,a5,12
     a64:	078a                	slli	a5,a5,0x2
     a66:	97b6                	add	a5,a5,a3
     a68:	4394                	lw	a3,0(a5)
     a6a:	dc843783          	ld	a5,-568(s0)
     a6e:	739c                	ld	a5,32(a5)
     a70:	00e7d783          	lhu	a5,14(a5)
     a74:	2781                	sext.w	a5,a5
     a76:	9fb5                	addw	a5,a5,a3
     a78:	2781                	sext.w	a5,a5
     a7a:	1782                	slli	a5,a5,0x20
     a7c:	9381                	srli	a5,a5,0x20
     a7e:	0791                	addi	a5,a5,4
     a80:	078a                	slli	a5,a5,0x2
     a82:	97ba                	add	a5,a5,a4
     a84:	479c                	lw	a5,8(a5)
     a86:	fef42423          	sw	a5,-24(s0)
     a8a:	fe842783          	lw	a5,-24(s0)
     a8e:	0007871b          	sext.w	a4,a5
     a92:	100007b7          	lui	a5,0x10000
     a96:	17fd                	addi	a5,a5,-1 # fffffff <__stack+0xffbffff>
     a98:	40f707b3          	sub	a5,a4,a5
     a9c:	0017b793          	seqz	a5,a5
     aa0:	0ff7f793          	zext.b	a5,a5
     aa4:	fef403a3          	sb	a5,-25(s0)
     aa8:	fe744783          	lbu	a5,-25(s0)
     aac:	0ff7f793          	zext.b	a5,a5
     ab0:	ef89                	bnez	a5,aca <_binary_tmp_size+0x254>
     ab2:	dc843783          	ld	a5,-568(s0)
     ab6:	739c                	ld	a5,32(a5)
     ab8:	00e7d783          	lhu	a5,14(a5)
     abc:	2781                	sext.w	a5,a5
     abe:	fe842703          	lw	a4,-24(s0)
     ac2:	40f707bb          	subw	a5,a4,a5
     ac6:	2781                	sext.w	a5,a5
     ac8:	a011                	j	acc <_binary_tmp_size+0x256>
     aca:	57fd                	li	a5,-1
     acc:	fec45703          	lhu	a4,-20(s0)
     ad0:	2701                	sext.w	a4,a4
     ad2:	dc843683          	ld	a3,-568(s0)
     ad6:	0731                	addi	a4,a4,12
     ad8:	070a                	slli	a4,a4,0x2
     ada:	9736                	add	a4,a4,a3
     adc:	c31c                	sw	a5,0(a4)
     ade:	fec45783          	lhu	a5,-20(s0)
     ae2:	2785                	addiw	a5,a5,1
     ae4:	fef41623          	sh	a5,-20(s0)
     ae8:	fec45783          	lhu	a5,-20(s0)
     aec:	0007871b          	sext.w	a4,a5
     af0:	07f00793          	li	a5,127
     af4:	f4e7f8e3          	bgeu	a5,a4,a44 <_binary_tmp_size+0x1ce>
     af8:	4785                	li	a5,1
     afa:	a811                	j	b0e <_binary_tmp_size+0x298>
     afc:	fee45783          	lhu	a5,-18(s0)
     b00:	0007871b          	sext.w	a4,a5
     b04:	1ff00793          	li	a5,511
     b08:	e4e7ffe3          	bgeu	a5,a4,966 <_binary_tmp_size+0xf0>
     b0c:	4781                	li	a5,0
     b0e:	853e                	mv	a0,a5
     b10:	23813083          	ld	ra,568(sp)
     b14:	23013403          	ld	s0,560(sp)
     b18:	24010113          	addi	sp,sp,576
     b1c:	8082                	ret

0000000000000b1e <__fseek>:
     b1e:	1101                	addi	sp,sp,-32
     b20:	ec22                	sd	s0,24(sp)
     b22:	1000                	addi	s0,sp,32
     b24:	fea43423          	sd	a0,-24(s0)
     b28:	87ae                	mv	a5,a1
     b2a:	8732                	mv	a4,a2
     b2c:	fef42223          	sw	a5,-28(s0)
     b30:	87ba                	mv	a5,a4
     b32:	fef401a3          	sb	a5,-29(s0)
     b36:	fe344783          	lbu	a5,-29(s0)
     b3a:	2781                	sext.w	a5,a5
     b3c:	86be                	mv	a3,a5
     b3e:	4709                	li	a4,2
     b40:	02e68e63          	beq	a3,a4,b7c <__fseek+0x5e>
     b44:	86be                	mv	a3,a5
     b46:	4709                	li	a4,2
     b48:	04d74663          	blt	a4,a3,b94 <__fseek+0x76>
     b4c:	c791                	beqz	a5,b58 <__fseek+0x3a>
     b4e:	873e                	mv	a4,a5
     b50:	4785                	li	a5,1
     b52:	00f70963          	beq	a4,a5,b64 <__fseek+0x46>
     b56:	a83d                	j	b94 <__fseek+0x76>
     b58:	fe843783          	ld	a5,-24(s0)
     b5c:	fe442703          	lw	a4,-28(s0)
     b60:	d798                	sw	a4,40(a5)
     b62:	a81d                	j	b98 <__fseek+0x7a>
     b64:	fe843783          	ld	a5,-24(s0)
     b68:	579c                	lw	a5,40(a5)
     b6a:	fe442703          	lw	a4,-28(s0)
     b6e:	9fb9                	addw	a5,a5,a4
     b70:	0007871b          	sext.w	a4,a5
     b74:	fe843783          	ld	a5,-24(s0)
     b78:	d798                	sw	a4,40(a5)
     b7a:	a839                	j	b98 <__fseek+0x7a>
     b7c:	fe843783          	ld	a5,-24(s0)
     b80:	4fdc                	lw	a5,28(a5)
     b82:	fe442703          	lw	a4,-28(s0)
     b86:	9fb9                	addw	a5,a5,a4
     b88:	0007871b          	sext.w	a4,a5
     b8c:	fe843783          	ld	a5,-24(s0)
     b90:	d798                	sw	a4,40(a5)
     b92:	a019                	j	b98 <__fseek+0x7a>
     b94:	4781                	li	a5,0
     b96:	a011                	j	b9a <__fseek+0x7c>
     b98:	4785                	li	a5,1
     b9a:	853e                	mv	a0,a5
     b9c:	6462                	ld	s0,24(sp)
     b9e:	6105                	addi	sp,sp,32
     ba0:	8082                	ret

0000000000000ba2 <__fread>:
     ba2:	715d                	addi	sp,sp,-80
     ba4:	e486                	sd	ra,72(sp)
     ba6:	e0a2                	sd	s0,64(sp)
     ba8:	0880                	addi	s0,sp,80
     baa:	fca43423          	sd	a0,-56(s0)
     bae:	fcb43023          	sd	a1,-64(s0)
     bb2:	87b2                	mv	a5,a2
     bb4:	faf42e23          	sw	a5,-68(s0)
     bb8:	fc043783          	ld	a5,-64(s0)
     bbc:	fef43423          	sd	a5,-24(s0)
     bc0:	fe042023          	sw	zero,-32(s0)
     bc4:	fc843783          	ld	a5,-56(s0)
     bc8:	579c                	lw	a5,40(a5)
     bca:	1ff7f793          	andi	a5,a5,511
     bce:	fcf42e23          	sw	a5,-36(s0)
     bd2:	a291                	j	d16 <__fread+0x174>
     bd4:	fc843783          	ld	a5,-56(s0)
     bd8:	579c                	lw	a5,40(a5)
     bda:	0097d79b          	srliw	a5,a5,0x9
     bde:	fcf42c23          	sw	a5,-40(s0)
     be2:	fc843783          	ld	a5,-56(s0)
     be6:	57d8                	lw	a4,44(a5)
     be8:	fd842783          	lw	a5,-40(s0)
     bec:	2781                	sext.w	a5,a5
     bee:	08e78763          	beq	a5,a4,c7c <__fread+0xda>
     bf2:	fc843783          	ld	a5,-56(s0)
     bf6:	739c                	ld	a5,32(a5)
     bf8:	0107d783          	lhu	a5,16(a5)
     bfc:	0007871b          	sext.w	a4,a5
     c00:	fc843783          	ld	a5,-56(s0)
     c04:	739c                	ld	a5,32(a5)
     c06:	0127c783          	lbu	a5,18(a5)
     c0a:	2781                	sext.w	a5,a5
     c0c:	fd842683          	lw	a3,-40(s0)
     c10:	02f6f7bb          	remuw	a5,a3,a5
     c14:	2781                	sext.w	a5,a5
     c16:	9fb9                	addw	a5,a5,a4
     c18:	0007871b          	sext.w	a4,a5
     c1c:	fc843783          	ld	a5,-56(s0)
     c20:	739c                	ld	a5,32(a5)
     c22:	0127c783          	lbu	a5,18(a5)
     c26:	2781                	sext.w	a5,a5
     c28:	fd842683          	lw	a3,-40(s0)
     c2c:	02f6d7bb          	divuw	a5,a3,a5
     c30:	2781                	sext.w	a5,a5
     c32:	fc843683          	ld	a3,-56(s0)
     c36:	1782                	slli	a5,a5,0x20
     c38:	9381                	srli	a5,a5,0x20
     c3a:	07b1                	addi	a5,a5,12
     c3c:	078a                	slli	a5,a5,0x2
     c3e:	97b6                	add	a5,a5,a3
     c40:	4394                	lw	a3,0(a5)
     c42:	fc843783          	ld	a5,-56(s0)
     c46:	739c                	ld	a5,32(a5)
     c48:	0127c783          	lbu	a5,18(a5)
     c4c:	2781                	sext.w	a5,a5
     c4e:	02f687bb          	mulw	a5,a3,a5
     c52:	2781                	sext.w	a5,a5
     c54:	9fb9                	addw	a5,a5,a4
     c56:	0007871b          	sext.w	a4,a5
     c5a:	fc843783          	ld	a5,-56(s0)
     c5e:	23078793          	addi	a5,a5,560
     c62:	85be                	mv	a1,a5
     c64:	853a                	mv	a0,a4
     c66:	41a000ef          	jal	ra,1080 <__sd_readblk>
     c6a:	87aa                	mv	a5,a0
     c6c:	e399                	bnez	a5,c72 <__fread+0xd0>
     c6e:	4781                	li	a5,0
     c70:	a86d                	j	d2a <__fread+0x188>
     c72:	fc843783          	ld	a5,-56(s0)
     c76:	fd842703          	lw	a4,-40(s0)
     c7a:	d7d8                	sw	a4,44(a5)
     c7c:	fc843783          	ld	a5,-56(s0)
     c80:	579c                	lw	a5,40(a5)
     c82:	1ff7f793          	andi	a5,a5,511
     c86:	2781                	sext.w	a5,a5
     c88:	20000713          	li	a4,512
     c8c:	40f707bb          	subw	a5,a4,a5
     c90:	fef42223          	sw	a5,-28(s0)
     c94:	fe042783          	lw	a5,-32(s0)
     c98:	873e                	mv	a4,a5
     c9a:	fe442783          	lw	a5,-28(s0)
     c9e:	9fb9                	addw	a5,a5,a4
     ca0:	0007871b          	sext.w	a4,a5
     ca4:	fbc42783          	lw	a5,-68(s0)
     ca8:	2781                	sext.w	a5,a5
     caa:	00f76b63          	bltu	a4,a5,cc0 <__fread+0x11e>
     cae:	fbc42783          	lw	a5,-68(s0)
     cb2:	873e                	mv	a4,a5
     cb4:	fe042783          	lw	a5,-32(s0)
     cb8:	40f707bb          	subw	a5,a4,a5
     cbc:	fef42223          	sw	a5,-28(s0)
     cc0:	fc843783          	ld	a5,-56(s0)
     cc4:	23078713          	addi	a4,a5,560
     cc8:	fdc46783          	lwu	a5,-36(s0)
     ccc:	97ba                	add	a5,a5,a4
     cce:	fe442703          	lw	a4,-28(s0)
     cd2:	863a                	mv	a2,a4
     cd4:	85be                	mv	a1,a5
     cd6:	fe843503          	ld	a0,-24(s0)
     cda:	704000ef          	jal	ra,13de <__memcpy>
     cde:	fe042783          	lw	a5,-32(s0)
     ce2:	873e                	mv	a4,a5
     ce4:	fe442783          	lw	a5,-28(s0)
     ce8:	9fb9                	addw	a5,a5,a4
     cea:	fef42023          	sw	a5,-32(s0)
     cee:	fe446783          	lwu	a5,-28(s0)
     cf2:	fe843703          	ld	a4,-24(s0)
     cf6:	97ba                	add	a5,a5,a4
     cf8:	fef43423          	sd	a5,-24(s0)
     cfc:	fc843783          	ld	a5,-56(s0)
     d00:	579c                	lw	a5,40(a5)
     d02:	fe442703          	lw	a4,-28(s0)
     d06:	9fb9                	addw	a5,a5,a4
     d08:	0007871b          	sext.w	a4,a5
     d0c:	fc843783          	ld	a5,-56(s0)
     d10:	d798                	sw	a4,40(a5)
     d12:	fc042e23          	sw	zero,-36(s0)
     d16:	fe042783          	lw	a5,-32(s0)
     d1a:	873e                	mv	a4,a5
     d1c:	fbc42783          	lw	a5,-68(s0)
     d20:	2701                	sext.w	a4,a4
     d22:	2781                	sext.w	a5,a5
     d24:	eaf768e3          	bltu	a4,a5,bd4 <__fread+0x32>
     d28:	4785                	li	a5,1
     d2a:	853e                	mv	a0,a5
     d2c:	60a6                	ld	ra,72(sp)
     d2e:	6406                	ld	s0,64(sp)
     d30:	6161                	addi	sp,sp,80
     d32:	8082                	ret

0000000000000d34 <__dma_spi_mem_cpy>:
     d34:	1101                	addi	sp,sp,-32
     d36:	ec22                	sd	s0,24(sp)
     d38:	1000                	addi	s0,sp,32
     d3a:	fea43423          	sd	a0,-24(s0)
     d3e:	87ae                	mv	a5,a1
     d40:	fef42223          	sw	a5,-28(s0)
     d44:	fe843703          	ld	a4,-24(s0)
     d48:	100027b7          	lui	a5,0x10002
     d4c:	80478793          	addi	a5,a5,-2044 # 10001804 <__stack+0xffc1804>
     d50:	2701                	sext.w	a4,a4
     d52:	c398                	sw	a4,0(a5)
     d54:	100027b7          	lui	a5,0x10002
     d58:	80878793          	addi	a5,a5,-2040 # 10001808 <__stack+0xffc1808>
     d5c:	fe442703          	lw	a4,-28(s0)
     d60:	c398                	sw	a4,0(a5)
     d62:	100027b7          	lui	a5,0x10002
     d66:	80c78793          	addi	a5,a5,-2036 # 1000180c <__stack+0xffc180c>
     d6a:	0007a023          	sw	zero,0(a5)
     d6e:	100027b7          	lui	a5,0x10002
     d72:	80c78793          	addi	a5,a5,-2036 # 1000180c <__stack+0xffc180c>
     d76:	439c                	lw	a5,0(a5)
     d78:	0007871b          	sext.w	a4,a5
     d7c:	100027b7          	lui	a5,0x10002
     d80:	80c78793          	addi	a5,a5,-2036 # 1000180c <__stack+0xffc180c>
     d84:	06076713          	ori	a4,a4,96
     d88:	2701                	sext.w	a4,a4
     d8a:	c398                	sw	a4,0(a5)
     d8c:	100027b7          	lui	a5,0x10002
     d90:	80c78793          	addi	a5,a5,-2036 # 1000180c <__stack+0xffc180c>
     d94:	439c                	lw	a5,0(a5)
     d96:	0007871b          	sext.w	a4,a5
     d9a:	100027b7          	lui	a5,0x10002
     d9e:	80c78793          	addi	a5,a5,-2036 # 1000180c <__stack+0xffc180c>
     da2:	86ba                	mv	a3,a4
     da4:	6705                	lui	a4,0x1
     da6:	80070713          	addi	a4,a4,-2048 # 800 <__fat_bpb_init+0x3de>
     daa:	8f55                	or	a4,a4,a3
     dac:	2701                	sext.w	a4,a4
     dae:	c398                	sw	a4,0(a5)
     db0:	100027b7          	lui	a5,0x10002
     db4:	80c78793          	addi	a5,a5,-2036 # 1000180c <__stack+0xffc180c>
     db8:	439c                	lw	a5,0(a5)
     dba:	0007871b          	sext.w	a4,a5
     dbe:	100027b7          	lui	a5,0x10002
     dc2:	80c78793          	addi	a5,a5,-2036 # 1000180c <__stack+0xffc180c>
     dc6:	00176713          	ori	a4,a4,1
     dca:	2701                	sext.w	a4,a4
     dcc:	c398                	sw	a4,0(a5)
     dce:	0001                	nop
     dd0:	100027b7          	lui	a5,0x10002
     dd4:	80c78793          	addi	a5,a5,-2036 # 1000180c <__stack+0xffc180c>
     dd8:	439c                	lw	a5,0(a5)
     dda:	2781                	sext.w	a5,a5
     ddc:	2781                	sext.w	a5,a5
     dde:	fe07c9e3          	bltz	a5,dd0 <__dma_spi_mem_cpy+0x9c>
     de2:	4785                	li	a5,1
     de4:	853e                	mv	a0,a5
     de6:	6462                	ld	s0,24(sp)
     de8:	6105                	addi	sp,sp,32
     dea:	8082                	ret

0000000000000dec <__spi_init>:
     dec:	1101                	addi	sp,sp,-32
     dee:	ec22                	sd	s0,24(sp)
     df0:	1000                	addi	s0,sp,32
     df2:	87aa                	mv	a5,a0
     df4:	fef42623          	sw	a5,-20(s0)
     df8:	100017b7          	lui	a5,0x10001
     dfc:	0007a023          	sw	zero,0(a5) # 10001000 <__stack+0xffc1000>
     e00:	fec42783          	lw	a5,-20(s0)
     e04:	0037979b          	slliw	a5,a5,0x3
     e08:	2781                	sext.w	a5,a5
     e0a:	0387f793          	andi	a5,a5,56
     e0e:	0007871b          	sext.w	a4,a5
     e12:	100017b7          	lui	a5,0x10001
     e16:	04476713          	ori	a4,a4,68
     e1a:	2701                	sext.w	a4,a4
     e1c:	c398                	sw	a4,0(a5)
     e1e:	4785                	li	a5,1
     e20:	853e                	mv	a0,a5
     e22:	6462                	ld	s0,24(sp)
     e24:	6105                	addi	sp,sp,32
     e26:	8082                	ret

0000000000000e28 <__spi_rwbyte>:
     e28:	1101                	addi	sp,sp,-32
     e2a:	ec22                	sd	s0,24(sp)
     e2c:	1000                	addi	s0,sp,32
     e2e:	87aa                	mv	a5,a0
     e30:	fef407a3          	sb	a5,-17(s0)
     e34:	0001                	nop
     e36:	100017b7          	lui	a5,0x10001
     e3a:	07a1                	addi	a5,a5,8 # 10001008 <__stack+0xffc1008>
     e3c:	439c                	lw	a5,0(a5)
     e3e:	2781                	sext.w	a5,a5
     e40:	8b85                	andi	a5,a5,1
     e42:	2781                	sext.w	a5,a5
     e44:	dbed                	beqz	a5,e36 <__spi_rwbyte+0xe>
     e46:	100017b7          	lui	a5,0x10001
     e4a:	07b1                	addi	a5,a5,12 # 1000100c <__stack+0xffc100c>
     e4c:	fef44703          	lbu	a4,-17(s0)
     e50:	2701                	sext.w	a4,a4
     e52:	c398                	sw	a4,0(a5)
     e54:	0001                	nop
     e56:	100017b7          	lui	a5,0x10001
     e5a:	07a1                	addi	a5,a5,8 # 10001008 <__stack+0xffc1008>
     e5c:	439c                	lw	a5,0(a5)
     e5e:	2781                	sext.w	a5,a5
     e60:	8b89                	andi	a5,a5,2
     e62:	2781                	sext.w	a5,a5
     e64:	dbed                	beqz	a5,e56 <__spi_rwbyte+0x2e>
     e66:	100017b7          	lui	a5,0x10001
     e6a:	07b1                	addi	a5,a5,12 # 1000100c <__stack+0xffc100c>
     e6c:	439c                	lw	a5,0(a5)
     e6e:	2781                	sext.w	a5,a5
     e70:	0ff7f793          	zext.b	a5,a5
     e74:	853e                	mv	a0,a5
     e76:	6462                	ld	s0,24(sp)
     e78:	6105                	addi	sp,sp,32
     e7a:	8082                	ret

0000000000000e7c <__sd_getresp>:
     e7c:	7139                	addi	sp,sp,-64
     e7e:	fc06                	sd	ra,56(sp)
     e80:	f822                	sd	s0,48(sp)
     e82:	f426                	sd	s1,40(sp)
     e84:	0080                	addi	s0,sp,64
     e86:	fca43423          	sd	a0,-56(s0)
     e8a:	87ae                	mv	a5,a1
     e8c:	fcf42223          	sw	a5,-60(s0)
     e90:	fc042e23          	sw	zero,-36(s0)
     e94:	a01d                	j	eba <__sd_getresp+0x3e>
     e96:	fdc46783          	lwu	a5,-36(s0)
     e9a:	fc843703          	ld	a4,-56(s0)
     e9e:	00f704b3          	add	s1,a4,a5
     ea2:	0ff00513          	li	a0,255
     ea6:	f83ff0ef          	jal	ra,e28 <__spi_rwbyte>
     eaa:	87aa                	mv	a5,a0
     eac:	00f48023          	sb	a5,0(s1)
     eb0:	fdc42783          	lw	a5,-36(s0)
     eb4:	2785                	addiw	a5,a5,1
     eb6:	fcf42e23          	sw	a5,-36(s0)
     eba:	fdc42783          	lw	a5,-36(s0)
     ebe:	873e                	mv	a4,a5
     ec0:	fc442783          	lw	a5,-60(s0)
     ec4:	2701                	sext.w	a4,a4
     ec6:	2781                	sext.w	a5,a5
     ec8:	fcf767e3          	bltu	a4,a5,e96 <__sd_getresp+0x1a>
     ecc:	4785                	li	a5,1
     ece:	853e                	mv	a0,a5
     ed0:	70e2                	ld	ra,56(sp)
     ed2:	7442                	ld	s0,48(sp)
     ed4:	74a2                	ld	s1,40(sp)
     ed6:	6121                	addi	sp,sp,64
     ed8:	8082                	ret

0000000000000eda <__sd_sendcmd>:
     eda:	7179                	addi	sp,sp,-48
     edc:	f406                	sd	ra,40(sp)
     ede:	f022                	sd	s0,32(sp)
     ee0:	1800                	addi	s0,sp,48
     ee2:	87aa                	mv	a5,a0
     ee4:	86ae                	mv	a3,a1
     ee6:	8732                	mv	a4,a2
     ee8:	fcf40fa3          	sb	a5,-33(s0)
     eec:	87b6                	mv	a5,a3
     eee:	fcf42c23          	sw	a5,-40(s0)
     ef2:	87ba                	mv	a5,a4
     ef4:	fcf40f23          	sb	a5,-34(s0)
     ef8:	fe042623          	sw	zero,-20(s0)
     efc:	fdf44783          	lbu	a5,-33(s0)
     f00:	0407e793          	ori	a5,a5,64
     f04:	0ff7f793          	zext.b	a5,a5
     f08:	853e                	mv	a0,a5
     f0a:	f1fff0ef          	jal	ra,e28 <__spi_rwbyte>
     f0e:	fd842783          	lw	a5,-40(s0)
     f12:	0187d79b          	srliw	a5,a5,0x18
     f16:	2781                	sext.w	a5,a5
     f18:	0ff7f793          	zext.b	a5,a5
     f1c:	853e                	mv	a0,a5
     f1e:	f0bff0ef          	jal	ra,e28 <__spi_rwbyte>
     f22:	fd842783          	lw	a5,-40(s0)
     f26:	0107d79b          	srliw	a5,a5,0x10
     f2a:	2781                	sext.w	a5,a5
     f2c:	0ff7f793          	zext.b	a5,a5
     f30:	853e                	mv	a0,a5
     f32:	ef7ff0ef          	jal	ra,e28 <__spi_rwbyte>
     f36:	fd842783          	lw	a5,-40(s0)
     f3a:	0087d79b          	srliw	a5,a5,0x8
     f3e:	2781                	sext.w	a5,a5
     f40:	0ff7f793          	zext.b	a5,a5
     f44:	853e                	mv	a0,a5
     f46:	ee3ff0ef          	jal	ra,e28 <__spi_rwbyte>
     f4a:	fd842783          	lw	a5,-40(s0)
     f4e:	0ff7f793          	zext.b	a5,a5
     f52:	853e                	mv	a0,a5
     f54:	ed5ff0ef          	jal	ra,e28 <__spi_rwbyte>
     f58:	fde44783          	lbu	a5,-34(s0)
     f5c:	0017e793          	ori	a5,a5,1
     f60:	0ff7f793          	zext.b	a5,a5
     f64:	853e                	mv	a0,a5
     f66:	ec3ff0ef          	jal	ra,e28 <__spi_rwbyte>
     f6a:	0ff00513          	li	a0,255
     f6e:	ebbff0ef          	jal	ra,e28 <__spi_rwbyte>
     f72:	87aa                	mv	a5,a0
     f74:	fef405a3          	sb	a5,-21(s0)
     f78:	a801                	j	f88 <__sd_sendcmd+0xae>
     f7a:	0ff00513          	li	a0,255
     f7e:	eabff0ef          	jal	ra,e28 <__spi_rwbyte>
     f82:	87aa                	mv	a5,a0
     f84:	fef405a3          	sb	a5,-21(s0)
     f88:	feb44783          	lbu	a5,-21(s0)
     f8c:	2781                	sext.w	a5,a5
     f8e:	8ba1                	andi	a5,a5,8
     f90:	2781                	sext.w	a5,a5
     f92:	cf89                	beqz	a5,fac <__sd_sendcmd+0xd2>
     f94:	fec42783          	lw	a5,-20(s0)
     f98:	0017871b          	addiw	a4,a5,1
     f9c:	fee42623          	sw	a4,-20(s0)
     fa0:	873e                	mv	a4,a5
     fa2:	6785                	lui	a5,0x1
     fa4:	38778793          	addi	a5,a5,903 # 1387 <__strcmp+0x1b>
     fa8:	fce7f9e3          	bgeu	a5,a4,f7a <__sd_sendcmd+0xa0>
     fac:	feb44783          	lbu	a5,-21(s0)
     fb0:	853e                	mv	a0,a5
     fb2:	70a2                	ld	ra,40(sp)
     fb4:	7402                	ld	s0,32(sp)
     fb6:	6145                	addi	sp,sp,48
     fb8:	8082                	ret

0000000000000fba <__sd_rcvdata>:
     fba:	7179                	addi	sp,sp,-48
     fbc:	f406                	sd	ra,40(sp)
     fbe:	f022                	sd	s0,32(sp)
     fc0:	1800                	addi	s0,sp,48
     fc2:	fca43c23          	sd	a0,-40(s0)
     fc6:	87ae                	mv	a5,a1
     fc8:	8732                	mv	a4,a2
     fca:	fcf42a23          	sw	a5,-44(s0)
     fce:	87ba                	mv	a5,a4
     fd0:	fcf409a3          	sb	a5,-45(s0)
     fd4:	fe042623          	sw	zero,-20(s0)
     fd8:	100017b7          	lui	a5,0x10001
     fdc:	0791                	addi	a5,a5,4 # 10001004 <__stack+0xffc1004>
     fde:	439c                	lw	a5,0(a5)
     fe0:	0007871b          	sext.w	a4,a5
     fe4:	100017b7          	lui	a5,0x10001
     fe8:	0791                	addi	a5,a5,4 # 10001004 <__stack+0xffc1004>
     fea:	00476713          	ori	a4,a4,4
     fee:	2701                	sext.w	a4,a4
     ff0:	c398                	sw	a4,0(a5)
     ff2:	0ff00513          	li	a0,255
     ff6:	e33ff0ef          	jal	ra,e28 <__spi_rwbyte>
     ffa:	87aa                	mv	a5,a0
     ffc:	fef405a3          	sb	a5,-21(s0)
    1000:	fec42783          	lw	a5,-20(s0)
    1004:	0017871b          	addiw	a4,a5,1
    1008:	fee42623          	sw	a4,-20(s0)
    100c:	873e                	mv	a4,a5
    100e:	6785                	lui	a5,0x1
    1010:	38878793          	addi	a5,a5,904 # 1388 <__strcmp+0x1c>
    1014:	00e7f563          	bgeu	a5,a4,101e <__sd_rcvdata+0x64>
    1018:	feb44783          	lbu	a5,-21(s0)
    101c:	a8a9                	j	1076 <__sd_rcvdata+0xbc>
    101e:	feb44783          	lbu	a5,-21(s0)
    1022:	0ff7f713          	zext.b	a4,a5
    1026:	0fe00793          	li	a5,254
    102a:	fcf714e3          	bne	a4,a5,ff2 <__sd_rcvdata+0x38>
    102e:	20000593          	li	a1,512
    1032:	fd843503          	ld	a0,-40(s0)
    1036:	cffff0ef          	jal	ra,d34 <__dma_spi_mem_cpy>
    103a:	0ff00513          	li	a0,255
    103e:	debff0ef          	jal	ra,e28 <__spi_rwbyte>
    1042:	0ff00513          	li	a0,255
    1046:	de3ff0ef          	jal	ra,e28 <__spi_rwbyte>
    104a:	fd344783          	lbu	a5,-45(s0)
    104e:	0ff7f793          	zext.b	a5,a5
    1052:	c38d                	beqz	a5,1074 <__sd_rcvdata+0xba>
    1054:	100017b7          	lui	a5,0x10001
    1058:	0791                	addi	a5,a5,4 # 10001004 <__stack+0xffc1004>
    105a:	439c                	lw	a5,0(a5)
    105c:	0007871b          	sext.w	a4,a5
    1060:	100017b7          	lui	a5,0x10001
    1064:	0791                	addi	a5,a5,4 # 10001004 <__stack+0xffc1004>
    1066:	9b6d                	andi	a4,a4,-5
    1068:	2701                	sext.w	a4,a4
    106a:	c398                	sw	a4,0(a5)
    106c:	0ff00513          	li	a0,255
    1070:	db9ff0ef          	jal	ra,e28 <__spi_rwbyte>
    1074:	4785                	li	a5,1
    1076:	853e                	mv	a0,a5
    1078:	70a2                	ld	ra,40(sp)
    107a:	7402                	ld	s0,32(sp)
    107c:	6145                	addi	sp,sp,48
    107e:	8082                	ret

0000000000001080 <__sd_readblk>:
    1080:	1101                	addi	sp,sp,-32
    1082:	ec06                	sd	ra,24(sp)
    1084:	e822                	sd	s0,16(sp)
    1086:	1000                	addi	s0,sp,32
    1088:	87aa                	mv	a5,a0
    108a:	feb43023          	sd	a1,-32(s0)
    108e:	fef42623          	sw	a5,-20(s0)
    1092:	100017b7          	lui	a5,0x10001
    1096:	0791                	addi	a5,a5,4 # 10001004 <__stack+0xffc1004>
    1098:	439c                	lw	a5,0(a5)
    109a:	0007871b          	sext.w	a4,a5
    109e:	100017b7          	lui	a5,0x10001
    10a2:	0791                	addi	a5,a5,4 # 10001004 <__stack+0xffc1004>
    10a4:	00476713          	ori	a4,a4,4
    10a8:	2701                	sext.w	a4,a4
    10aa:	c398                	sw	a4,0(a5)
    10ac:	fec42783          	lw	a5,-20(s0)
    10b0:	4601                	li	a2,0
    10b2:	85be                	mv	a1,a5
    10b4:	4545                	li	a0,17
    10b6:	e25ff0ef          	jal	ra,eda <__sd_sendcmd>
    10ba:	87aa                	mv	a5,a0
    10bc:	c399                	beqz	a5,10c2 <__sd_readblk+0x42>
    10be:	4781                	li	a5,0
    10c0:	a809                	j	10d2 <__sd_readblk+0x52>
    10c2:	4605                	li	a2,1
    10c4:	20000593          	li	a1,512
    10c8:	fe043503          	ld	a0,-32(s0)
    10cc:	eefff0ef          	jal	ra,fba <__sd_rcvdata>
    10d0:	87aa                	mv	a5,a0
    10d2:	853e                	mv	a0,a5
    10d4:	60e2                	ld	ra,24(sp)
    10d6:	6442                	ld	s0,16(sp)
    10d8:	6105                	addi	sp,sp,32
    10da:	8082                	ret

00000000000010dc <__sd_init>:
    10dc:	7179                	addi	sp,sp,-48
    10de:	f406                	sd	ra,40(sp)
    10e0:	f022                	sd	s0,32(sp)
    10e2:	1800                	addi	s0,sp,48
    10e4:	fca43c23          	sd	a0,-40(s0)
    10e8:	fe040523          	sb	zero,-22(s0)
    10ec:	451d                	li	a0,7
    10ee:	cffff0ef          	jal	ra,dec <__spi_init>
    10f2:	4505                	li	a0,1
    10f4:	416000ef          	jal	ra,150a <__delay>
    10f8:	100017b7          	lui	a5,0x10001
    10fc:	0791                	addi	a5,a5,4 # 10001004 <__stack+0xffc1004>
    10fe:	439c                	lw	a5,0(a5)
    1100:	0007871b          	sext.w	a4,a5
    1104:	100017b7          	lui	a5,0x10001
    1108:	0791                	addi	a5,a5,4 # 10001004 <__stack+0xffc1004>
    110a:	9b6d                	andi	a4,a4,-5
    110c:	2701                	sext.w	a4,a4
    110e:	c398                	sw	a4,0(a5)
    1110:	fe0405a3          	sb	zero,-21(s0)
    1114:	a811                	j	1128 <__sd_init+0x4c>
    1116:	0ff00513          	li	a0,255
    111a:	d0fff0ef          	jal	ra,e28 <__spi_rwbyte>
    111e:	feb44783          	lbu	a5,-21(s0)
    1122:	2785                	addiw	a5,a5,1
    1124:	fef405a3          	sb	a5,-21(s0)
    1128:	feb44783          	lbu	a5,-21(s0)
    112c:	0ff7f713          	zext.b	a4,a5
    1130:	47a5                	li	a5,9
    1132:	fee7f2e3          	bgeu	a5,a4,1116 <__sd_init+0x3a>
    1136:	100017b7          	lui	a5,0x10001
    113a:	0791                	addi	a5,a5,4 # 10001004 <__stack+0xffc1004>
    113c:	439c                	lw	a5,0(a5)
    113e:	0007871b          	sext.w	a4,a5
    1142:	100017b7          	lui	a5,0x10001
    1146:	0791                	addi	a5,a5,4 # 10001004 <__stack+0xffc1004>
    1148:	00476713          	ori	a4,a4,4
    114c:	2701                	sext.w	a4,a4
    114e:	c398                	sw	a4,0(a5)
    1150:	4785                	li	a5,1
    1152:	fef40523          	sb	a5,-22(s0)
    1156:	fe042623          	sw	zero,-20(s0)
    115a:	09500613          	li	a2,149
    115e:	4581                	li	a1,0
    1160:	4501                	li	a0,0
    1162:	d79ff0ef          	jal	ra,eda <__sd_sendcmd>
    1166:	87aa                	mv	a5,a0
    1168:	fef404a3          	sb	a5,-23(s0)
    116c:	fec42783          	lw	a5,-20(s0)
    1170:	0017871b          	addiw	a4,a5,1
    1174:	fee42623          	sw	a4,-20(s0)
    1178:	873e                	mv	a4,a5
    117a:	3e800793          	li	a5,1000
    117e:	00e7f563          	bgeu	a5,a4,1188 <__sd_init+0xac>
    1182:	fea44783          	lbu	a5,-22(s0)
    1186:	a289                	j	12c8 <__sd_init+0x1ec>
    1188:	fe944783          	lbu	a5,-23(s0)
    118c:	0ff7f713          	zext.b	a4,a5
    1190:	4785                	li	a5,1
    1192:	fcf714e3          	bne	a4,a5,115a <__sd_init+0x7e>
    1196:	08700613          	li	a2,135
    119a:	1aa00593          	li	a1,426
    119e:	4521                	li	a0,8
    11a0:	d3bff0ef          	jal	ra,eda <__sd_sendcmd>
    11a4:	87aa                	mv	a5,a0
    11a6:	fef404a3          	sb	a5,-23(s0)
    11aa:	fe944783          	lbu	a5,-23(s0)
    11ae:	0ff7f713          	zext.b	a4,a5
    11b2:	4795                	li	a5,5
    11b4:	00f71d63          	bne	a4,a5,11ce <__sd_init+0xf2>
    11b8:	fe040793          	addi	a5,s0,-32
    11bc:	4591                	li	a1,4
    11be:	853e                	mv	a0,a5
    11c0:	cbdff0ef          	jal	ra,e7c <__sd_getresp>
    11c4:	fd843783          	ld	a5,-40(s0)
    11c8:	00078023          	sb	zero,0(a5)
    11cc:	a0d1                	j	1290 <__sd_init+0x1b4>
    11ce:	fe944783          	lbu	a5,-23(s0)
    11d2:	0ff7f713          	zext.b	a4,a5
    11d6:	4785                	li	a5,1
    11d8:	0af71c63          	bne	a4,a5,1290 <__sd_init+0x1b4>
    11dc:	fe040793          	addi	a5,s0,-32
    11e0:	4591                	li	a1,4
    11e2:	853e                	mv	a0,a5
    11e4:	c99ff0ef          	jal	ra,e7c <__sd_getresp>
    11e8:	fe042623          	sw	zero,-20(s0)
    11ec:	4601                	li	a2,0
    11ee:	4581                	li	a1,0
    11f0:	03700513          	li	a0,55
    11f4:	ce7ff0ef          	jal	ra,eda <__sd_sendcmd>
    11f8:	87aa                	mv	a5,a0
    11fa:	fef404a3          	sb	a5,-23(s0)
    11fe:	4601                	li	a2,0
    1200:	400005b7          	lui	a1,0x40000
    1204:	02900513          	li	a0,41
    1208:	cd3ff0ef          	jal	ra,eda <__sd_sendcmd>
    120c:	87aa                	mv	a5,a0
    120e:	fef404a3          	sb	a5,-23(s0)
    1212:	fec42783          	lw	a5,-20(s0)
    1216:	0017871b          	addiw	a4,a5,1
    121a:	fee42623          	sw	a4,-20(s0)
    121e:	873e                	mv	a4,a5
    1220:	3e700793          	li	a5,999
    1224:	00e7e763          	bltu	a5,a4,1232 <__sd_init+0x156>
    1228:	fe944783          	lbu	a5,-23(s0)
    122c:	0ff7f793          	zext.b	a5,a5
    1230:	ffd5                	bnez	a5,11ec <__sd_init+0x110>
    1232:	fe042623          	sw	zero,-20(s0)
    1236:	4601                	li	a2,0
    1238:	4581                	li	a1,0
    123a:	03a00513          	li	a0,58
    123e:	c9dff0ef          	jal	ra,eda <__sd_sendcmd>
    1242:	87aa                	mv	a5,a0
    1244:	fef404a3          	sb	a5,-23(s0)
    1248:	fec42783          	lw	a5,-20(s0)
    124c:	0017871b          	addiw	a4,a5,1
    1250:	fee42623          	sw	a4,-20(s0)
    1254:	873e                	mv	a4,a5
    1256:	3e700793          	li	a5,999
    125a:	00e7e763          	bltu	a5,a4,1268 <__sd_init+0x18c>
    125e:	fe944783          	lbu	a5,-23(s0)
    1262:	0ff7f793          	zext.b	a5,a5
    1266:	fbe1                	bnez	a5,1236 <__sd_init+0x15a>
    1268:	fe040793          	addi	a5,s0,-32
    126c:	4591                	li	a1,4
    126e:	853e                	mv	a0,a5
    1270:	c0dff0ef          	jal	ra,e7c <__sd_getresp>
    1274:	fe044783          	lbu	a5,-32(s0)
    1278:	2781                	sext.w	a5,a5
    127a:	0407f793          	andi	a5,a5,64
    127e:	2781                	sext.w	a5,a5
    1280:	c399                	beqz	a5,1286 <__sd_init+0x1aa>
    1282:	478d                	li	a5,3
    1284:	a011                	j	1288 <__sd_init+0x1ac>
    1286:	4789                	li	a5,2
    1288:	fd843703          	ld	a4,-40(s0)
    128c:	00f70023          	sb	a5,0(a4)
    1290:	4509                	li	a0,2
    1292:	b5bff0ef          	jal	ra,dec <__spi_init>
    1296:	09500613          	li	a2,149
    129a:	4581                	li	a1,0
    129c:	03b00513          	li	a0,59
    12a0:	c3bff0ef          	jal	ra,eda <__sd_sendcmd>
    12a4:	87aa                	mv	a5,a0
    12a6:	fef404a3          	sb	a5,-23(s0)
    12aa:	09500613          	li	a2,149
    12ae:	20000593          	li	a1,512
    12b2:	4541                	li	a0,16
    12b4:	c27ff0ef          	jal	ra,eda <__sd_sendcmd>
    12b8:	87aa                	mv	a5,a0
    12ba:	fef404a3          	sb	a5,-23(s0)
    12be:	4789                	li	a5,2
    12c0:	fef40523          	sb	a5,-22(s0)
    12c4:	fea44783          	lbu	a5,-22(s0)
    12c8:	853e                	mv	a0,a5
    12ca:	70a2                	ld	ra,40(sp)
    12cc:	7402                	ld	s0,32(sp)
    12ce:	6145                	addi	sp,sp,48
    12d0:	8082                	ret

00000000000012d2 <__uart_init>:
    12d2:	1141                	addi	sp,sp,-16
    12d4:	e422                	sd	s0,8(sp)
    12d6:	0800                	addi	s0,sp,16
    12d8:	100007b7          	lui	a5,0x10000
    12dc:	07a1                	addi	a5,a5,8 # 10000008 <__stack+0xffc0008>
    12de:	4705                	li	a4,1
    12e0:	c398                	sw	a4,0(a5)
    12e2:	100007b7          	lui	a5,0x10000
    12e6:	07b1                	addi	a5,a5,12 # 1000000c <__stack+0xffc000c>
    12e8:	4705                	li	a4,1
    12ea:	c398                	sw	a4,0(a5)
    12ec:	0001                	nop
    12ee:	6422                	ld	s0,8(sp)
    12f0:	0141                	addi	sp,sp,16
    12f2:	8082                	ret

00000000000012f4 <__putch>:
    12f4:	1101                	addi	sp,sp,-32
    12f6:	ec22                	sd	s0,24(sp)
    12f8:	1000                	addi	s0,sp,32
    12fa:	87aa                	mv	a5,a0
    12fc:	fef407a3          	sb	a5,-17(s0)
    1300:	0001                	nop
    1302:	100007b7          	lui	a5,0x10000
    1306:	439c                	lw	a5,0(a5)
    1308:	100007b7          	lui	a5,0x10000
    130c:	fef44703          	lbu	a4,-17(s0)
    1310:	2701                	sext.w	a4,a4
    1312:	c398                	sw	a4,0(a5)
    1314:	0001                	nop
    1316:	6462                	ld	s0,24(sp)
    1318:	6105                	addi	sp,sp,32
    131a:	8082                	ret

000000000000131c <__puts>:
    131c:	7179                	addi	sp,sp,-48
    131e:	f406                	sd	ra,40(sp)
    1320:	f022                	sd	s0,32(sp)
    1322:	1800                	addi	s0,sp,48
    1324:	fca43c23          	sd	a0,-40(s0)
    1328:	fe042623          	sw	zero,-20(s0)
    132c:	a00d                	j	134e <__puts+0x32>
    132e:	fd843783          	ld	a5,-40(s0)
    1332:	00178713          	addi	a4,a5,1 # 10000001 <__stack+0xffc0001>
    1336:	fce43c23          	sd	a4,-40(s0)
    133a:	0007c783          	lbu	a5,0(a5)
    133e:	853e                	mv	a0,a5
    1340:	fb5ff0ef          	jal	ra,12f4 <__putch>
    1344:	fec42783          	lw	a5,-20(s0)
    1348:	2785                	addiw	a5,a5,1
    134a:	fef42623          	sw	a5,-20(s0)
    134e:	fd843783          	ld	a5,-40(s0)
    1352:	0007c783          	lbu	a5,0(a5)
    1356:	ffe1                	bnez	a5,132e <__puts+0x12>
    1358:	4529                	li	a0,10
    135a:	f9bff0ef          	jal	ra,12f4 <__putch>
    135e:	fec42783          	lw	a5,-20(s0)
    1362:	853e                	mv	a0,a5
    1364:	70a2                	ld	ra,40(sp)
    1366:	7402                	ld	s0,32(sp)
    1368:	6145                	addi	sp,sp,48
    136a:	8082                	ret

000000000000136c <__strcmp>:
    136c:	7179                	addi	sp,sp,-48
    136e:	f422                	sd	s0,40(sp)
    1370:	1800                	addi	s0,sp,48
    1372:	fea43423          	sd	a0,-24(s0)
    1376:	feb43023          	sd	a1,-32(s0)
    137a:	87b2                	mv	a5,a2
    137c:	fcf42e23          	sw	a5,-36(s0)
    1380:	a099                	j	13c6 <__strcmp+0x5a>
    1382:	fe843783          	ld	a5,-24(s0)
    1386:	0007c703          	lbu	a4,0(a5)
    138a:	fe043783          	ld	a5,-32(s0)
    138e:	0007c783          	lbu	a5,0(a5)
    1392:	00f77463          	bgeu	a4,a5,139a <__strcmp+0x2e>
    1396:	57fd                	li	a5,-1
    1398:	a83d                	j	13d6 <__strcmp+0x6a>
    139a:	fe843783          	ld	a5,-24(s0)
    139e:	0007c703          	lbu	a4,0(a5)
    13a2:	fe043783          	ld	a5,-32(s0)
    13a6:	0007c783          	lbu	a5,0(a5)
    13aa:	00e7f463          	bgeu	a5,a4,13b2 <__strcmp+0x46>
    13ae:	4785                	li	a5,1
    13b0:	a01d                	j	13d6 <__strcmp+0x6a>
    13b2:	fe843783          	ld	a5,-24(s0)
    13b6:	0785                	addi	a5,a5,1
    13b8:	fef43423          	sd	a5,-24(s0)
    13bc:	fe043783          	ld	a5,-32(s0)
    13c0:	0785                	addi	a5,a5,1
    13c2:	fef43023          	sd	a5,-32(s0)
    13c6:	fdc42783          	lw	a5,-36(s0)
    13ca:	fff7871b          	addiw	a4,a5,-1
    13ce:	fce42e23          	sw	a4,-36(s0)
    13d2:	fbc5                	bnez	a5,1382 <__strcmp+0x16>
    13d4:	4781                	li	a5,0
    13d6:	853e                	mv	a0,a5
    13d8:	7422                	ld	s0,40(sp)
    13da:	6145                	addi	sp,sp,48
    13dc:	8082                	ret

00000000000013de <__memcpy>:
    13de:	7179                	addi	sp,sp,-48
    13e0:	f422                	sd	s0,40(sp)
    13e2:	1800                	addi	s0,sp,48
    13e4:	fea43423          	sd	a0,-24(s0)
    13e8:	feb43023          	sd	a1,-32(s0)
    13ec:	87b2                	mv	a5,a2
    13ee:	fcf42e23          	sw	a5,-36(s0)
    13f2:	fe843703          	ld	a4,-24(s0)
    13f6:	fe043783          	ld	a5,-32(s0)
    13fa:	8fd9                	or	a5,a5,a4
    13fc:	8b9d                	andi	a5,a5,7
    13fe:	c3bd                	beqz	a5,1464 <__memcpy+0x86>
    1400:	a805                	j	1430 <__memcpy+0x52>
    1402:	fe043783          	ld	a5,-32(s0)
    1406:	0007c703          	lbu	a4,0(a5)
    140a:	fe843783          	ld	a5,-24(s0)
    140e:	00e78023          	sb	a4,0(a5)
    1412:	fe843783          	ld	a5,-24(s0)
    1416:	0785                	addi	a5,a5,1
    1418:	fef43423          	sd	a5,-24(s0)
    141c:	fe043783          	ld	a5,-32(s0)
    1420:	0785                	addi	a5,a5,1
    1422:	fef43023          	sd	a5,-32(s0)
    1426:	fdc42783          	lw	a5,-36(s0)
    142a:	37fd                	addiw	a5,a5,-1
    142c:	fcf42e23          	sw	a5,-36(s0)
    1430:	fdc42783          	lw	a5,-36(s0)
    1434:	2781                	sext.w	a5,a5
    1436:	f7f1                	bnez	a5,1402 <__memcpy+0x24>
    1438:	a0d9                	j	14fe <__memcpy+0x120>
    143a:	fe043783          	ld	a5,-32(s0)
    143e:	6398                	ld	a4,0(a5)
    1440:	fe843783          	ld	a5,-24(s0)
    1444:	e398                	sd	a4,0(a5)
    1446:	fe843783          	ld	a5,-24(s0)
    144a:	07a1                	addi	a5,a5,8
    144c:	fef43423          	sd	a5,-24(s0)
    1450:	fe043783          	ld	a5,-32(s0)
    1454:	07a1                	addi	a5,a5,8
    1456:	fef43023          	sd	a5,-32(s0)
    145a:	fdc42783          	lw	a5,-36(s0)
    145e:	37e1                	addiw	a5,a5,-8
    1460:	fcf42e23          	sw	a5,-36(s0)
    1464:	fdc42783          	lw	a5,-36(s0)
    1468:	0007871b          	sext.w	a4,a5
    146c:	479d                	li	a5,7
    146e:	fce7e6e3          	bltu	a5,a4,143a <__memcpy+0x5c>
    1472:	fdc42783          	lw	a5,-36(s0)
    1476:	0007871b          	sext.w	a4,a5
    147a:	478d                	li	a5,3
    147c:	02e7f763          	bgeu	a5,a4,14aa <__memcpy+0xcc>
    1480:	fe043783          	ld	a5,-32(s0)
    1484:	4398                	lw	a4,0(a5)
    1486:	fe843783          	ld	a5,-24(s0)
    148a:	c398                	sw	a4,0(a5)
    148c:	fe843783          	ld	a5,-24(s0)
    1490:	0791                	addi	a5,a5,4
    1492:	fef43423          	sd	a5,-24(s0)
    1496:	fe043783          	ld	a5,-32(s0)
    149a:	0791                	addi	a5,a5,4
    149c:	fef43023          	sd	a5,-32(s0)
    14a0:	fdc42783          	lw	a5,-36(s0)
    14a4:	37f1                	addiw	a5,a5,-4
    14a6:	fcf42e23          	sw	a5,-36(s0)
    14aa:	fdc42783          	lw	a5,-36(s0)
    14ae:	0007871b          	sext.w	a4,a5
    14b2:	4785                	li	a5,1
    14b4:	02e7f963          	bgeu	a5,a4,14e6 <__memcpy+0x108>
    14b8:	fe043783          	ld	a5,-32(s0)
    14bc:	0007d703          	lhu	a4,0(a5)
    14c0:	fe843783          	ld	a5,-24(s0)
    14c4:	00e79023          	sh	a4,0(a5)
    14c8:	fe843783          	ld	a5,-24(s0)
    14cc:	0789                	addi	a5,a5,2
    14ce:	fef43423          	sd	a5,-24(s0)
    14d2:	fe043783          	ld	a5,-32(s0)
    14d6:	0789                	addi	a5,a5,2
    14d8:	fef43023          	sd	a5,-32(s0)
    14dc:	fdc42783          	lw	a5,-36(s0)
    14e0:	37f9                	addiw	a5,a5,-2
    14e2:	fcf42e23          	sw	a5,-36(s0)
    14e6:	fdc42783          	lw	a5,-36(s0)
    14ea:	2781                	sext.w	a5,a5
    14ec:	cb89                	beqz	a5,14fe <__memcpy+0x120>
    14ee:	fe043783          	ld	a5,-32(s0)
    14f2:	0007c703          	lbu	a4,0(a5)
    14f6:	fe843783          	ld	a5,-24(s0)
    14fa:	00e78023          	sb	a4,0(a5)
    14fe:	fe843783          	ld	a5,-24(s0)
    1502:	853e                	mv	a0,a5
    1504:	7422                	ld	s0,40(sp)
    1506:	6145                	addi	sp,sp,48
    1508:	8082                	ret

000000000000150a <__delay>:
    150a:	1101                	addi	sp,sp,-32
    150c:	ec22                	sd	s0,24(sp)
    150e:	1000                	addi	s0,sp,32
    1510:	87aa                	mv	a5,a0
    1512:	fef42623          	sw	a5,-20(s0)
    1516:	0800c7b7          	lui	a5,0x800c
    151a:	17e1                	addi	a5,a5,-8 # 800bff8 <__stack+0x7fcbff8>
    151c:	6394                	ld	a3,0(a5)
    151e:	fec42783          	lw	a5,-20(s0)
    1522:	873e                	mv	a4,a5
    1524:	000f47b7          	lui	a5,0xf4
    1528:	2407879b          	addiw	a5,a5,576 # f4240 <__stack+0xb4240>
    152c:	02f707bb          	mulw	a5,a4,a5
    1530:	2781                	sext.w	a5,a5
    1532:	873e                	mv	a4,a5
    1534:	47f9                	li	a5,30
    1536:	02f757bb          	divuw	a5,a4,a5
    153a:	2781                	sext.w	a5,a5
    153c:	02079713          	slli	a4,a5,0x20
    1540:	9301                	srli	a4,a4,0x20
    1542:	080047b7          	lui	a5,0x8004
    1546:	9736                	add	a4,a4,a3
    1548:	e398                	sd	a4,0(a5)
    154a:	08000793          	li	a5,128
    154e:	3047a073          	csrs	mie,a5
    1552:	10500073          	wfi
    1556:	08000793          	li	a5,128
    155a:	3047b073          	csrc	mie,a5
    155e:	0001                	nop
    1560:	6462                	ld	s0,24(sp)
    1562:	6105                	addi	sp,sp,32
    1564:	8082                	ret
